
ATM_MCU.elf:     file format elf32-avr

Sections:
Idx Name          Size      VMA       LMA       File off  Algn
  0 .text         000065ca  00000000  00000000  00000094  2**1
                  CONTENTS, ALLOC, LOAD, READONLY, CODE
  1 .data         00000370  00800060  000065ca  0000665e  2**0
                  CONTENTS, ALLOC, LOAD, DATA
  2 .bss          00000290  008003d0  008003d0  000069ce  2**0
                  ALLOC
  3 .stab         00008a30  00000000  00000000  000069d0  2**2
                  CONTENTS, READONLY, DEBUGGING
  4 .stabstr      000059cf  00000000  00000000  0000f400  2**0
                  CONTENTS, READONLY, DEBUGGING
  5 .debug_aranges 000001a0  00000000  00000000  00014dcf  2**0
                  CONTENTS, READONLY, DEBUGGING
  6 .debug_pubnames 000001f2  00000000  00000000  00014f6f  2**0
                  CONTENTS, READONLY, DEBUGGING
  7 .debug_info   0000240b  00000000  00000000  00015161  2**0
                  CONTENTS, READONLY, DEBUGGING
  8 .debug_abbrev 00001386  00000000  00000000  0001756c  2**0
                  CONTENTS, READONLY, DEBUGGING
  9 .debug_line   000011d6  00000000  00000000  000188f2  2**0
                  CONTENTS, READONLY, DEBUGGING
 10 .debug_frame  000001c0  00000000  00000000  00019ac8  2**2
                  CONTENTS, READONLY, DEBUGGING
 11 .debug_str    000002f6  00000000  00000000  00019c88  2**0
                  CONTENTS, READONLY, DEBUGGING
 12 .debug_loc    0000096e  00000000  00000000  00019f7e  2**0
                  CONTENTS, READONLY, DEBUGGING
 13 .debug_ranges 00000050  00000000  00000000  0001a8ec  2**0
                  CONTENTS, READONLY, DEBUGGING

Disassembly of section .text:

00000000 <__vectors>:
       0:	0c 94 2a 00 	jmp	0x54	; 0x54 <__ctors_end>
       4:	0c 94 c6 16 	jmp	0x2d8c	; 0x2d8c <__vector_1>
       8:	0c 94 f3 16 	jmp	0x2de6	; 0x2de6 <__vector_2>
       c:	0c 94 20 17 	jmp	0x2e40	; 0x2e40 <__vector_3>
      10:	0c 94 47 00 	jmp	0x8e	; 0x8e <__bad_interrupt>
      14:	0c 94 65 10 	jmp	0x20ca	; 0x20ca <__vector_5>
      18:	0c 94 47 00 	jmp	0x8e	; 0x8e <__bad_interrupt>
      1c:	0c 94 47 00 	jmp	0x8e	; 0x8e <__bad_interrupt>
      20:	0c 94 47 00 	jmp	0x8e	; 0x8e <__bad_interrupt>
      24:	0c 94 47 00 	jmp	0x8e	; 0x8e <__bad_interrupt>
      28:	0c 94 47 00 	jmp	0x8e	; 0x8e <__bad_interrupt>
      2c:	0c 94 a5 10 	jmp	0x214a	; 0x214a <__vector_11>
      30:	0c 94 e1 12 	jmp	0x25c2	; 0x25c2 <__vector_12>
      34:	0c 94 fa 0a 	jmp	0x15f4	; 0x15f4 <__vector_13>
      38:	0c 94 47 00 	jmp	0x8e	; 0x8e <__bad_interrupt>
      3c:	0c 94 47 00 	jmp	0x8e	; 0x8e <__bad_interrupt>
      40:	0c 94 47 00 	jmp	0x8e	; 0x8e <__bad_interrupt>
      44:	0c 94 47 00 	jmp	0x8e	; 0x8e <__bad_interrupt>
      48:	0c 94 47 00 	jmp	0x8e	; 0x8e <__bad_interrupt>
      4c:	0c 94 47 00 	jmp	0x8e	; 0x8e <__bad_interrupt>
      50:	0c 94 47 00 	jmp	0x8e	; 0x8e <__bad_interrupt>

00000054 <__ctors_end>:
      54:	11 24       	eor	r1, r1
      56:	1f be       	out	0x3f, r1	; 63
      58:	cf e5       	ldi	r28, 0x5F	; 95
      5a:	d8 e0       	ldi	r29, 0x08	; 8
      5c:	de bf       	out	0x3e, r29	; 62
      5e:	cd bf       	out	0x3d, r28	; 61

00000060 <__do_copy_data>:
      60:	13 e0       	ldi	r17, 0x03	; 3
      62:	a0 e6       	ldi	r26, 0x60	; 96
      64:	b0 e0       	ldi	r27, 0x00	; 0
      66:	ea ec       	ldi	r30, 0xCA	; 202
      68:	f5 e6       	ldi	r31, 0x65	; 101
      6a:	02 c0       	rjmp	.+4      	; 0x70 <.do_copy_data_start>

0000006c <.do_copy_data_loop>:
      6c:	05 90       	lpm	r0, Z+
      6e:	0d 92       	st	X+, r0

00000070 <.do_copy_data_start>:
      70:	a0 3d       	cpi	r26, 0xD0	; 208
      72:	b1 07       	cpc	r27, r17
      74:	d9 f7       	brne	.-10     	; 0x6c <.do_copy_data_loop>

00000076 <__do_clear_bss>:
      76:	16 e0       	ldi	r17, 0x06	; 6
      78:	a0 ed       	ldi	r26, 0xD0	; 208
      7a:	b3 e0       	ldi	r27, 0x03	; 3
      7c:	01 c0       	rjmp	.+2      	; 0x80 <.do_clear_bss_start>

0000007e <.do_clear_bss_loop>:
      7e:	1d 92       	st	X+, r1

00000080 <.do_clear_bss_start>:
      80:	a0 36       	cpi	r26, 0x60	; 96
      82:	b1 07       	cpc	r27, r17
      84:	e1 f7       	brne	.-8      	; 0x7e <.do_clear_bss_loop>
      86:	0e 94 86 2f 	call	0x5f0c	; 0x5f0c <main>
      8a:	0c 94 e3 32 	jmp	0x65c6	; 0x65c6 <_exit>

0000008e <__bad_interrupt>:
      8e:	0c 94 00 00 	jmp	0	; 0x0 <__vectors>

00000092 <__fixunssfsi>:
      92:	ef 92       	push	r14
      94:	ff 92       	push	r15
      96:	0f 93       	push	r16
      98:	1f 93       	push	r17
      9a:	7b 01       	movw	r14, r22
      9c:	8c 01       	movw	r16, r24
      9e:	20 e0       	ldi	r18, 0x00	; 0
      a0:	30 e0       	ldi	r19, 0x00	; 0
      a2:	40 e0       	ldi	r20, 0x00	; 0
      a4:	5f e4       	ldi	r21, 0x4F	; 79
      a6:	0e 94 f5 03 	call	0x7ea	; 0x7ea <__gesf2>
      aa:	88 23       	and	r24, r24
      ac:	8c f0       	brlt	.+34     	; 0xd0 <__fixunssfsi+0x3e>
      ae:	c8 01       	movw	r24, r16
      b0:	b7 01       	movw	r22, r14
      b2:	20 e0       	ldi	r18, 0x00	; 0
      b4:	30 e0       	ldi	r19, 0x00	; 0
      b6:	40 e0       	ldi	r20, 0x00	; 0
      b8:	5f e4       	ldi	r21, 0x4F	; 79
      ba:	0e 94 c1 01 	call	0x382	; 0x382 <__subsf3>
      be:	0e 94 55 04 	call	0x8aa	; 0x8aa <__fixsfsi>
      c2:	9b 01       	movw	r18, r22
      c4:	ac 01       	movw	r20, r24
      c6:	20 50       	subi	r18, 0x00	; 0
      c8:	30 40       	sbci	r19, 0x00	; 0
      ca:	40 40       	sbci	r20, 0x00	; 0
      cc:	50 48       	sbci	r21, 0x80	; 128
      ce:	06 c0       	rjmp	.+12     	; 0xdc <__fixunssfsi+0x4a>
      d0:	c8 01       	movw	r24, r16
      d2:	b7 01       	movw	r22, r14
      d4:	0e 94 55 04 	call	0x8aa	; 0x8aa <__fixsfsi>
      d8:	9b 01       	movw	r18, r22
      da:	ac 01       	movw	r20, r24
      dc:	b9 01       	movw	r22, r18
      de:	ca 01       	movw	r24, r20
      e0:	1f 91       	pop	r17
      e2:	0f 91       	pop	r16
      e4:	ff 90       	pop	r15
      e6:	ef 90       	pop	r14
      e8:	08 95       	ret

000000ea <_fpadd_parts>:
      ea:	a0 e0       	ldi	r26, 0x00	; 0
      ec:	b0 e0       	ldi	r27, 0x00	; 0
      ee:	eb e7       	ldi	r30, 0x7B	; 123
      f0:	f0 e0       	ldi	r31, 0x00	; 0
      f2:	0c 94 fb 2f 	jmp	0x5ff6	; 0x5ff6 <__prologue_saves__>
      f6:	dc 01       	movw	r26, r24
      f8:	2b 01       	movw	r4, r22
      fa:	fa 01       	movw	r30, r20
      fc:	9c 91       	ld	r25, X
      fe:	92 30       	cpi	r25, 0x02	; 2
     100:	08 f4       	brcc	.+2      	; 0x104 <_fpadd_parts+0x1a>
     102:	39 c1       	rjmp	.+626    	; 0x376 <_fpadd_parts+0x28c>
     104:	eb 01       	movw	r28, r22
     106:	88 81       	ld	r24, Y
     108:	82 30       	cpi	r24, 0x02	; 2
     10a:	08 f4       	brcc	.+2      	; 0x10e <_fpadd_parts+0x24>
     10c:	33 c1       	rjmp	.+614    	; 0x374 <_fpadd_parts+0x28a>
     10e:	94 30       	cpi	r25, 0x04	; 4
     110:	69 f4       	brne	.+26     	; 0x12c <_fpadd_parts+0x42>
     112:	84 30       	cpi	r24, 0x04	; 4
     114:	09 f0       	breq	.+2      	; 0x118 <_fpadd_parts+0x2e>
     116:	2f c1       	rjmp	.+606    	; 0x376 <_fpadd_parts+0x28c>
     118:	11 96       	adiw	r26, 0x01	; 1
     11a:	9c 91       	ld	r25, X
     11c:	11 97       	sbiw	r26, 0x01	; 1
     11e:	89 81       	ldd	r24, Y+1	; 0x01
     120:	98 17       	cp	r25, r24
     122:	09 f4       	brne	.+2      	; 0x126 <_fpadd_parts+0x3c>
     124:	28 c1       	rjmp	.+592    	; 0x376 <_fpadd_parts+0x28c>
     126:	a5 e0       	ldi	r26, 0x05	; 5
     128:	b1 e0       	ldi	r27, 0x01	; 1
     12a:	25 c1       	rjmp	.+586    	; 0x376 <_fpadd_parts+0x28c>
     12c:	84 30       	cpi	r24, 0x04	; 4
     12e:	09 f4       	brne	.+2      	; 0x132 <_fpadd_parts+0x48>
     130:	21 c1       	rjmp	.+578    	; 0x374 <_fpadd_parts+0x28a>
     132:	82 30       	cpi	r24, 0x02	; 2
     134:	a9 f4       	brne	.+42     	; 0x160 <_fpadd_parts+0x76>
     136:	92 30       	cpi	r25, 0x02	; 2
     138:	09 f0       	breq	.+2      	; 0x13c <_fpadd_parts+0x52>
     13a:	1d c1       	rjmp	.+570    	; 0x376 <_fpadd_parts+0x28c>
     13c:	9a 01       	movw	r18, r20
     13e:	ad 01       	movw	r20, r26
     140:	88 e0       	ldi	r24, 0x08	; 8
     142:	ea 01       	movw	r28, r20
     144:	09 90       	ld	r0, Y+
     146:	ae 01       	movw	r20, r28
     148:	e9 01       	movw	r28, r18
     14a:	09 92       	st	Y+, r0
     14c:	9e 01       	movw	r18, r28
     14e:	81 50       	subi	r24, 0x01	; 1
     150:	c1 f7       	brne	.-16     	; 0x142 <_fpadd_parts+0x58>
     152:	e2 01       	movw	r28, r4
     154:	89 81       	ldd	r24, Y+1	; 0x01
     156:	11 96       	adiw	r26, 0x01	; 1
     158:	9c 91       	ld	r25, X
     15a:	89 23       	and	r24, r25
     15c:	81 83       	std	Z+1, r24	; 0x01
     15e:	08 c1       	rjmp	.+528    	; 0x370 <_fpadd_parts+0x286>
     160:	92 30       	cpi	r25, 0x02	; 2
     162:	09 f4       	brne	.+2      	; 0x166 <_fpadd_parts+0x7c>
     164:	07 c1       	rjmp	.+526    	; 0x374 <_fpadd_parts+0x28a>
     166:	12 96       	adiw	r26, 0x02	; 2
     168:	2d 90       	ld	r2, X+
     16a:	3c 90       	ld	r3, X
     16c:	13 97       	sbiw	r26, 0x03	; 3
     16e:	eb 01       	movw	r28, r22
     170:	8a 81       	ldd	r24, Y+2	; 0x02
     172:	9b 81       	ldd	r25, Y+3	; 0x03
     174:	14 96       	adiw	r26, 0x04	; 4
     176:	ad 90       	ld	r10, X+
     178:	bd 90       	ld	r11, X+
     17a:	cd 90       	ld	r12, X+
     17c:	dc 90       	ld	r13, X
     17e:	17 97       	sbiw	r26, 0x07	; 7
     180:	ec 80       	ldd	r14, Y+4	; 0x04
     182:	fd 80       	ldd	r15, Y+5	; 0x05
     184:	0e 81       	ldd	r16, Y+6	; 0x06
     186:	1f 81       	ldd	r17, Y+7	; 0x07
     188:	91 01       	movw	r18, r2
     18a:	28 1b       	sub	r18, r24
     18c:	39 0b       	sbc	r19, r25
     18e:	b9 01       	movw	r22, r18
     190:	37 ff       	sbrs	r19, 7
     192:	04 c0       	rjmp	.+8      	; 0x19c <_fpadd_parts+0xb2>
     194:	66 27       	eor	r22, r22
     196:	77 27       	eor	r23, r23
     198:	62 1b       	sub	r22, r18
     19a:	73 0b       	sbc	r23, r19
     19c:	60 32       	cpi	r22, 0x20	; 32
     19e:	71 05       	cpc	r23, r1
     1a0:	0c f0       	brlt	.+2      	; 0x1a4 <_fpadd_parts+0xba>
     1a2:	61 c0       	rjmp	.+194    	; 0x266 <_fpadd_parts+0x17c>
     1a4:	12 16       	cp	r1, r18
     1a6:	13 06       	cpc	r1, r19
     1a8:	6c f5       	brge	.+90     	; 0x204 <_fpadd_parts+0x11a>
     1aa:	37 01       	movw	r6, r14
     1ac:	48 01       	movw	r8, r16
     1ae:	06 2e       	mov	r0, r22
     1b0:	04 c0       	rjmp	.+8      	; 0x1ba <_fpadd_parts+0xd0>
     1b2:	96 94       	lsr	r9
     1b4:	87 94       	ror	r8
     1b6:	77 94       	ror	r7
     1b8:	67 94       	ror	r6
     1ba:	0a 94       	dec	r0
     1bc:	d2 f7       	brpl	.-12     	; 0x1b2 <_fpadd_parts+0xc8>
     1be:	21 e0       	ldi	r18, 0x01	; 1
     1c0:	30 e0       	ldi	r19, 0x00	; 0
     1c2:	40 e0       	ldi	r20, 0x00	; 0
     1c4:	50 e0       	ldi	r21, 0x00	; 0
     1c6:	04 c0       	rjmp	.+8      	; 0x1d0 <_fpadd_parts+0xe6>
     1c8:	22 0f       	add	r18, r18
     1ca:	33 1f       	adc	r19, r19
     1cc:	44 1f       	adc	r20, r20
     1ce:	55 1f       	adc	r21, r21
     1d0:	6a 95       	dec	r22
     1d2:	d2 f7       	brpl	.-12     	; 0x1c8 <_fpadd_parts+0xde>
     1d4:	21 50       	subi	r18, 0x01	; 1
     1d6:	30 40       	sbci	r19, 0x00	; 0
     1d8:	40 40       	sbci	r20, 0x00	; 0
     1da:	50 40       	sbci	r21, 0x00	; 0
     1dc:	2e 21       	and	r18, r14
     1de:	3f 21       	and	r19, r15
     1e0:	40 23       	and	r20, r16
     1e2:	51 23       	and	r21, r17
     1e4:	21 15       	cp	r18, r1
     1e6:	31 05       	cpc	r19, r1
     1e8:	41 05       	cpc	r20, r1
     1ea:	51 05       	cpc	r21, r1
     1ec:	21 f0       	breq	.+8      	; 0x1f6 <_fpadd_parts+0x10c>
     1ee:	21 e0       	ldi	r18, 0x01	; 1
     1f0:	30 e0       	ldi	r19, 0x00	; 0
     1f2:	40 e0       	ldi	r20, 0x00	; 0
     1f4:	50 e0       	ldi	r21, 0x00	; 0
     1f6:	79 01       	movw	r14, r18
     1f8:	8a 01       	movw	r16, r20
     1fa:	e6 28       	or	r14, r6
     1fc:	f7 28       	or	r15, r7
     1fe:	08 29       	or	r16, r8
     200:	19 29       	or	r17, r9
     202:	3c c0       	rjmp	.+120    	; 0x27c <_fpadd_parts+0x192>
     204:	23 2b       	or	r18, r19
     206:	d1 f1       	breq	.+116    	; 0x27c <_fpadd_parts+0x192>
     208:	26 0e       	add	r2, r22
     20a:	37 1e       	adc	r3, r23
     20c:	35 01       	movw	r6, r10
     20e:	46 01       	movw	r8, r12
     210:	06 2e       	mov	r0, r22
     212:	04 c0       	rjmp	.+8      	; 0x21c <_fpadd_parts+0x132>
     214:	96 94       	lsr	r9
     216:	87 94       	ror	r8
     218:	77 94       	ror	r7
     21a:	67 94       	ror	r6
     21c:	0a 94       	dec	r0
     21e:	d2 f7       	brpl	.-12     	; 0x214 <_fpadd_parts+0x12a>
     220:	21 e0       	ldi	r18, 0x01	; 1
     222:	30 e0       	ldi	r19, 0x00	; 0
     224:	40 e0       	ldi	r20, 0x00	; 0
     226:	50 e0       	ldi	r21, 0x00	; 0
     228:	04 c0       	rjmp	.+8      	; 0x232 <_fpadd_parts+0x148>
     22a:	22 0f       	add	r18, r18
     22c:	33 1f       	adc	r19, r19
     22e:	44 1f       	adc	r20, r20
     230:	55 1f       	adc	r21, r21
     232:	6a 95       	dec	r22
     234:	d2 f7       	brpl	.-12     	; 0x22a <_fpadd_parts+0x140>
     236:	21 50       	subi	r18, 0x01	; 1
     238:	30 40       	sbci	r19, 0x00	; 0
     23a:	40 40       	sbci	r20, 0x00	; 0
     23c:	50 40       	sbci	r21, 0x00	; 0
     23e:	2a 21       	and	r18, r10
     240:	3b 21       	and	r19, r11
     242:	4c 21       	and	r20, r12
     244:	5d 21       	and	r21, r13
     246:	21 15       	cp	r18, r1
     248:	31 05       	cpc	r19, r1
     24a:	41 05       	cpc	r20, r1
     24c:	51 05       	cpc	r21, r1
     24e:	21 f0       	breq	.+8      	; 0x258 <_fpadd_parts+0x16e>
     250:	21 e0       	ldi	r18, 0x01	; 1
     252:	30 e0       	ldi	r19, 0x00	; 0
     254:	40 e0       	ldi	r20, 0x00	; 0
     256:	50 e0       	ldi	r21, 0x00	; 0
     258:	59 01       	movw	r10, r18
     25a:	6a 01       	movw	r12, r20
     25c:	a6 28       	or	r10, r6
     25e:	b7 28       	or	r11, r7
     260:	c8 28       	or	r12, r8
     262:	d9 28       	or	r13, r9
     264:	0b c0       	rjmp	.+22     	; 0x27c <_fpadd_parts+0x192>
     266:	82 15       	cp	r24, r2
     268:	93 05       	cpc	r25, r3
     26a:	2c f0       	brlt	.+10     	; 0x276 <_fpadd_parts+0x18c>
     26c:	1c 01       	movw	r2, r24
     26e:	aa 24       	eor	r10, r10
     270:	bb 24       	eor	r11, r11
     272:	65 01       	movw	r12, r10
     274:	03 c0       	rjmp	.+6      	; 0x27c <_fpadd_parts+0x192>
     276:	ee 24       	eor	r14, r14
     278:	ff 24       	eor	r15, r15
     27a:	87 01       	movw	r16, r14
     27c:	11 96       	adiw	r26, 0x01	; 1
     27e:	9c 91       	ld	r25, X
     280:	d2 01       	movw	r26, r4
     282:	11 96       	adiw	r26, 0x01	; 1
     284:	8c 91       	ld	r24, X
     286:	98 17       	cp	r25, r24
     288:	09 f4       	brne	.+2      	; 0x28c <_fpadd_parts+0x1a2>
     28a:	45 c0       	rjmp	.+138    	; 0x316 <_fpadd_parts+0x22c>
     28c:	99 23       	and	r25, r25
     28e:	39 f0       	breq	.+14     	; 0x29e <_fpadd_parts+0x1b4>
     290:	a8 01       	movw	r20, r16
     292:	97 01       	movw	r18, r14
     294:	2a 19       	sub	r18, r10
     296:	3b 09       	sbc	r19, r11
     298:	4c 09       	sbc	r20, r12
     29a:	5d 09       	sbc	r21, r13
     29c:	06 c0       	rjmp	.+12     	; 0x2aa <_fpadd_parts+0x1c0>
     29e:	a6 01       	movw	r20, r12
     2a0:	95 01       	movw	r18, r10
     2a2:	2e 19       	sub	r18, r14
     2a4:	3f 09       	sbc	r19, r15
     2a6:	40 0b       	sbc	r20, r16
     2a8:	51 0b       	sbc	r21, r17
     2aa:	57 fd       	sbrc	r21, 7
     2ac:	08 c0       	rjmp	.+16     	; 0x2be <_fpadd_parts+0x1d4>
     2ae:	11 82       	std	Z+1, r1	; 0x01
     2b0:	33 82       	std	Z+3, r3	; 0x03
     2b2:	22 82       	std	Z+2, r2	; 0x02
     2b4:	24 83       	std	Z+4, r18	; 0x04
     2b6:	35 83       	std	Z+5, r19	; 0x05
     2b8:	46 83       	std	Z+6, r20	; 0x06
     2ba:	57 83       	std	Z+7, r21	; 0x07
     2bc:	1d c0       	rjmp	.+58     	; 0x2f8 <_fpadd_parts+0x20e>
     2be:	81 e0       	ldi	r24, 0x01	; 1
     2c0:	81 83       	std	Z+1, r24	; 0x01
     2c2:	33 82       	std	Z+3, r3	; 0x03
     2c4:	22 82       	std	Z+2, r2	; 0x02
     2c6:	88 27       	eor	r24, r24
     2c8:	99 27       	eor	r25, r25
     2ca:	dc 01       	movw	r26, r24
     2cc:	82 1b       	sub	r24, r18
     2ce:	93 0b       	sbc	r25, r19
     2d0:	a4 0b       	sbc	r26, r20
     2d2:	b5 0b       	sbc	r27, r21
     2d4:	84 83       	std	Z+4, r24	; 0x04
     2d6:	95 83       	std	Z+5, r25	; 0x05
     2d8:	a6 83       	std	Z+6, r26	; 0x06
     2da:	b7 83       	std	Z+7, r27	; 0x07
     2dc:	0d c0       	rjmp	.+26     	; 0x2f8 <_fpadd_parts+0x20e>
     2de:	22 0f       	add	r18, r18
     2e0:	33 1f       	adc	r19, r19
     2e2:	44 1f       	adc	r20, r20
     2e4:	55 1f       	adc	r21, r21
     2e6:	24 83       	std	Z+4, r18	; 0x04
     2e8:	35 83       	std	Z+5, r19	; 0x05
     2ea:	46 83       	std	Z+6, r20	; 0x06
     2ec:	57 83       	std	Z+7, r21	; 0x07
     2ee:	82 81       	ldd	r24, Z+2	; 0x02
     2f0:	93 81       	ldd	r25, Z+3	; 0x03
     2f2:	01 97       	sbiw	r24, 0x01	; 1
     2f4:	93 83       	std	Z+3, r25	; 0x03
     2f6:	82 83       	std	Z+2, r24	; 0x02
     2f8:	24 81       	ldd	r18, Z+4	; 0x04
     2fa:	35 81       	ldd	r19, Z+5	; 0x05
     2fc:	46 81       	ldd	r20, Z+6	; 0x06
     2fe:	57 81       	ldd	r21, Z+7	; 0x07
     300:	da 01       	movw	r26, r20
     302:	c9 01       	movw	r24, r18
     304:	01 97       	sbiw	r24, 0x01	; 1
     306:	a1 09       	sbc	r26, r1
     308:	b1 09       	sbc	r27, r1
     30a:	8f 5f       	subi	r24, 0xFF	; 255
     30c:	9f 4f       	sbci	r25, 0xFF	; 255
     30e:	af 4f       	sbci	r26, 0xFF	; 255
     310:	bf 43       	sbci	r27, 0x3F	; 63
     312:	28 f3       	brcs	.-54     	; 0x2de <_fpadd_parts+0x1f4>
     314:	0b c0       	rjmp	.+22     	; 0x32c <_fpadd_parts+0x242>
     316:	91 83       	std	Z+1, r25	; 0x01
     318:	33 82       	std	Z+3, r3	; 0x03
     31a:	22 82       	std	Z+2, r2	; 0x02
     31c:	ea 0c       	add	r14, r10
     31e:	fb 1c       	adc	r15, r11
     320:	0c 1d       	adc	r16, r12
     322:	1d 1d       	adc	r17, r13
     324:	e4 82       	std	Z+4, r14	; 0x04
     326:	f5 82       	std	Z+5, r15	; 0x05
     328:	06 83       	std	Z+6, r16	; 0x06
     32a:	17 83       	std	Z+7, r17	; 0x07
     32c:	83 e0       	ldi	r24, 0x03	; 3
     32e:	80 83       	st	Z, r24
     330:	24 81       	ldd	r18, Z+4	; 0x04
     332:	35 81       	ldd	r19, Z+5	; 0x05
     334:	46 81       	ldd	r20, Z+6	; 0x06
     336:	57 81       	ldd	r21, Z+7	; 0x07
     338:	57 ff       	sbrs	r21, 7
     33a:	1a c0       	rjmp	.+52     	; 0x370 <_fpadd_parts+0x286>
     33c:	c9 01       	movw	r24, r18
     33e:	aa 27       	eor	r26, r26
     340:	97 fd       	sbrc	r25, 7
     342:	a0 95       	com	r26
     344:	ba 2f       	mov	r27, r26
     346:	81 70       	andi	r24, 0x01	; 1
     348:	90 70       	andi	r25, 0x00	; 0
     34a:	a0 70       	andi	r26, 0x00	; 0
     34c:	b0 70       	andi	r27, 0x00	; 0
     34e:	56 95       	lsr	r21
     350:	47 95       	ror	r20
     352:	37 95       	ror	r19
     354:	27 95       	ror	r18
     356:	82 2b       	or	r24, r18
     358:	93 2b       	or	r25, r19
     35a:	a4 2b       	or	r26, r20
     35c:	b5 2b       	or	r27, r21
     35e:	84 83       	std	Z+4, r24	; 0x04
     360:	95 83       	std	Z+5, r25	; 0x05
     362:	a6 83       	std	Z+6, r26	; 0x06
     364:	b7 83       	std	Z+7, r27	; 0x07
     366:	82 81       	ldd	r24, Z+2	; 0x02
     368:	93 81       	ldd	r25, Z+3	; 0x03
     36a:	01 96       	adiw	r24, 0x01	; 1
     36c:	93 83       	std	Z+3, r25	; 0x03
     36e:	82 83       	std	Z+2, r24	; 0x02
     370:	df 01       	movw	r26, r30
     372:	01 c0       	rjmp	.+2      	; 0x376 <_fpadd_parts+0x28c>
     374:	d2 01       	movw	r26, r4
     376:	cd 01       	movw	r24, r26
     378:	cd b7       	in	r28, 0x3d	; 61
     37a:	de b7       	in	r29, 0x3e	; 62
     37c:	e2 e1       	ldi	r30, 0x12	; 18
     37e:	0c 94 17 30 	jmp	0x602e	; 0x602e <__epilogue_restores__>

00000382 <__subsf3>:
     382:	a0 e2       	ldi	r26, 0x20	; 32
     384:	b0 e0       	ldi	r27, 0x00	; 0
     386:	e7 ec       	ldi	r30, 0xC7	; 199
     388:	f1 e0       	ldi	r31, 0x01	; 1
     38a:	0c 94 07 30 	jmp	0x600e	; 0x600e <__prologue_saves__+0x18>
     38e:	69 83       	std	Y+1, r22	; 0x01
     390:	7a 83       	std	Y+2, r23	; 0x02
     392:	8b 83       	std	Y+3, r24	; 0x03
     394:	9c 83       	std	Y+4, r25	; 0x04
     396:	2d 83       	std	Y+5, r18	; 0x05
     398:	3e 83       	std	Y+6, r19	; 0x06
     39a:	4f 83       	std	Y+7, r20	; 0x07
     39c:	58 87       	std	Y+8, r21	; 0x08
     39e:	e9 e0       	ldi	r30, 0x09	; 9
     3a0:	ee 2e       	mov	r14, r30
     3a2:	f1 2c       	mov	r15, r1
     3a4:	ec 0e       	add	r14, r28
     3a6:	fd 1e       	adc	r15, r29
     3a8:	ce 01       	movw	r24, r28
     3aa:	01 96       	adiw	r24, 0x01	; 1
     3ac:	b7 01       	movw	r22, r14
     3ae:	0e 94 46 06 	call	0xc8c	; 0xc8c <__unpack_f>
     3b2:	8e 01       	movw	r16, r28
     3b4:	0f 5e       	subi	r16, 0xEF	; 239
     3b6:	1f 4f       	sbci	r17, 0xFF	; 255
     3b8:	ce 01       	movw	r24, r28
     3ba:	05 96       	adiw	r24, 0x05	; 5
     3bc:	b8 01       	movw	r22, r16
     3be:	0e 94 46 06 	call	0xc8c	; 0xc8c <__unpack_f>
     3c2:	8a 89       	ldd	r24, Y+18	; 0x12
     3c4:	91 e0       	ldi	r25, 0x01	; 1
     3c6:	89 27       	eor	r24, r25
     3c8:	8a 8b       	std	Y+18, r24	; 0x12
     3ca:	c7 01       	movw	r24, r14
     3cc:	b8 01       	movw	r22, r16
     3ce:	ae 01       	movw	r20, r28
     3d0:	47 5e       	subi	r20, 0xE7	; 231
     3d2:	5f 4f       	sbci	r21, 0xFF	; 255
     3d4:	0e 94 75 00 	call	0xea	; 0xea <_fpadd_parts>
     3d8:	0e 94 71 05 	call	0xae2	; 0xae2 <__pack_f>
     3dc:	a0 96       	adiw	r28, 0x20	; 32
     3de:	e6 e0       	ldi	r30, 0x06	; 6
     3e0:	0c 94 23 30 	jmp	0x6046	; 0x6046 <__epilogue_restores__+0x18>

000003e4 <__addsf3>:
     3e4:	a0 e2       	ldi	r26, 0x20	; 32
     3e6:	b0 e0       	ldi	r27, 0x00	; 0
     3e8:	e8 ef       	ldi	r30, 0xF8	; 248
     3ea:	f1 e0       	ldi	r31, 0x01	; 1
     3ec:	0c 94 07 30 	jmp	0x600e	; 0x600e <__prologue_saves__+0x18>
     3f0:	69 83       	std	Y+1, r22	; 0x01
     3f2:	7a 83       	std	Y+2, r23	; 0x02
     3f4:	8b 83       	std	Y+3, r24	; 0x03
     3f6:	9c 83       	std	Y+4, r25	; 0x04
     3f8:	2d 83       	std	Y+5, r18	; 0x05
     3fa:	3e 83       	std	Y+6, r19	; 0x06
     3fc:	4f 83       	std	Y+7, r20	; 0x07
     3fe:	58 87       	std	Y+8, r21	; 0x08
     400:	f9 e0       	ldi	r31, 0x09	; 9
     402:	ef 2e       	mov	r14, r31
     404:	f1 2c       	mov	r15, r1
     406:	ec 0e       	add	r14, r28
     408:	fd 1e       	adc	r15, r29
     40a:	ce 01       	movw	r24, r28
     40c:	01 96       	adiw	r24, 0x01	; 1
     40e:	b7 01       	movw	r22, r14
     410:	0e 94 46 06 	call	0xc8c	; 0xc8c <__unpack_f>
     414:	8e 01       	movw	r16, r28
     416:	0f 5e       	subi	r16, 0xEF	; 239
     418:	1f 4f       	sbci	r17, 0xFF	; 255
     41a:	ce 01       	movw	r24, r28
     41c:	05 96       	adiw	r24, 0x05	; 5
     41e:	b8 01       	movw	r22, r16
     420:	0e 94 46 06 	call	0xc8c	; 0xc8c <__unpack_f>
     424:	c7 01       	movw	r24, r14
     426:	b8 01       	movw	r22, r16
     428:	ae 01       	movw	r20, r28
     42a:	47 5e       	subi	r20, 0xE7	; 231
     42c:	5f 4f       	sbci	r21, 0xFF	; 255
     42e:	0e 94 75 00 	call	0xea	; 0xea <_fpadd_parts>
     432:	0e 94 71 05 	call	0xae2	; 0xae2 <__pack_f>
     436:	a0 96       	adiw	r28, 0x20	; 32
     438:	e6 e0       	ldi	r30, 0x06	; 6
     43a:	0c 94 23 30 	jmp	0x6046	; 0x6046 <__epilogue_restores__+0x18>

0000043e <__mulsf3>:
     43e:	a0 e2       	ldi	r26, 0x20	; 32
     440:	b0 e0       	ldi	r27, 0x00	; 0
     442:	e5 e2       	ldi	r30, 0x25	; 37
     444:	f2 e0       	ldi	r31, 0x02	; 2
     446:	0c 94 fb 2f 	jmp	0x5ff6	; 0x5ff6 <__prologue_saves__>
     44a:	69 83       	std	Y+1, r22	; 0x01
     44c:	7a 83       	std	Y+2, r23	; 0x02
     44e:	8b 83       	std	Y+3, r24	; 0x03
     450:	9c 83       	std	Y+4, r25	; 0x04
     452:	2d 83       	std	Y+5, r18	; 0x05
     454:	3e 83       	std	Y+6, r19	; 0x06
     456:	4f 83       	std	Y+7, r20	; 0x07
     458:	58 87       	std	Y+8, r21	; 0x08
     45a:	ce 01       	movw	r24, r28
     45c:	01 96       	adiw	r24, 0x01	; 1
     45e:	be 01       	movw	r22, r28
     460:	67 5f       	subi	r22, 0xF7	; 247
     462:	7f 4f       	sbci	r23, 0xFF	; 255
     464:	0e 94 46 06 	call	0xc8c	; 0xc8c <__unpack_f>
     468:	ce 01       	movw	r24, r28
     46a:	05 96       	adiw	r24, 0x05	; 5
     46c:	be 01       	movw	r22, r28
     46e:	6f 5e       	subi	r22, 0xEF	; 239
     470:	7f 4f       	sbci	r23, 0xFF	; 255
     472:	0e 94 46 06 	call	0xc8c	; 0xc8c <__unpack_f>
     476:	99 85       	ldd	r25, Y+9	; 0x09
     478:	92 30       	cpi	r25, 0x02	; 2
     47a:	88 f0       	brcs	.+34     	; 0x49e <__mulsf3+0x60>
     47c:	89 89       	ldd	r24, Y+17	; 0x11
     47e:	82 30       	cpi	r24, 0x02	; 2
     480:	c8 f0       	brcs	.+50     	; 0x4b4 <__mulsf3+0x76>
     482:	94 30       	cpi	r25, 0x04	; 4
     484:	19 f4       	brne	.+6      	; 0x48c <__mulsf3+0x4e>
     486:	82 30       	cpi	r24, 0x02	; 2
     488:	51 f4       	brne	.+20     	; 0x49e <__mulsf3+0x60>
     48a:	04 c0       	rjmp	.+8      	; 0x494 <__mulsf3+0x56>
     48c:	84 30       	cpi	r24, 0x04	; 4
     48e:	29 f4       	brne	.+10     	; 0x49a <__mulsf3+0x5c>
     490:	92 30       	cpi	r25, 0x02	; 2
     492:	81 f4       	brne	.+32     	; 0x4b4 <__mulsf3+0x76>
     494:	85 e0       	ldi	r24, 0x05	; 5
     496:	91 e0       	ldi	r25, 0x01	; 1
     498:	c6 c0       	rjmp	.+396    	; 0x626 <__mulsf3+0x1e8>
     49a:	92 30       	cpi	r25, 0x02	; 2
     49c:	49 f4       	brne	.+18     	; 0x4b0 <__mulsf3+0x72>
     49e:	20 e0       	ldi	r18, 0x00	; 0
     4a0:	9a 85       	ldd	r25, Y+10	; 0x0a
     4a2:	8a 89       	ldd	r24, Y+18	; 0x12
     4a4:	98 13       	cpse	r25, r24
     4a6:	21 e0       	ldi	r18, 0x01	; 1
     4a8:	2a 87       	std	Y+10, r18	; 0x0a
     4aa:	ce 01       	movw	r24, r28
     4ac:	09 96       	adiw	r24, 0x09	; 9
     4ae:	bb c0       	rjmp	.+374    	; 0x626 <__mulsf3+0x1e8>
     4b0:	82 30       	cpi	r24, 0x02	; 2
     4b2:	49 f4       	brne	.+18     	; 0x4c6 <__mulsf3+0x88>
     4b4:	20 e0       	ldi	r18, 0x00	; 0
     4b6:	9a 85       	ldd	r25, Y+10	; 0x0a
     4b8:	8a 89       	ldd	r24, Y+18	; 0x12
     4ba:	98 13       	cpse	r25, r24
     4bc:	21 e0       	ldi	r18, 0x01	; 1
     4be:	2a 8b       	std	Y+18, r18	; 0x12
     4c0:	ce 01       	movw	r24, r28
     4c2:	41 96       	adiw	r24, 0x11	; 17
     4c4:	b0 c0       	rjmp	.+352    	; 0x626 <__mulsf3+0x1e8>
     4c6:	2d 84       	ldd	r2, Y+13	; 0x0d
     4c8:	3e 84       	ldd	r3, Y+14	; 0x0e
     4ca:	4f 84       	ldd	r4, Y+15	; 0x0f
     4cc:	58 88       	ldd	r5, Y+16	; 0x10
     4ce:	6d 88       	ldd	r6, Y+21	; 0x15
     4d0:	7e 88       	ldd	r7, Y+22	; 0x16
     4d2:	8f 88       	ldd	r8, Y+23	; 0x17
     4d4:	98 8c       	ldd	r9, Y+24	; 0x18
     4d6:	ee 24       	eor	r14, r14
     4d8:	ff 24       	eor	r15, r15
     4da:	87 01       	movw	r16, r14
     4dc:	aa 24       	eor	r10, r10
     4de:	bb 24       	eor	r11, r11
     4e0:	65 01       	movw	r12, r10
     4e2:	40 e0       	ldi	r20, 0x00	; 0
     4e4:	50 e0       	ldi	r21, 0x00	; 0
     4e6:	60 e0       	ldi	r22, 0x00	; 0
     4e8:	70 e0       	ldi	r23, 0x00	; 0
     4ea:	e0 e0       	ldi	r30, 0x00	; 0
     4ec:	f0 e0       	ldi	r31, 0x00	; 0
     4ee:	c1 01       	movw	r24, r2
     4f0:	81 70       	andi	r24, 0x01	; 1
     4f2:	90 70       	andi	r25, 0x00	; 0
     4f4:	89 2b       	or	r24, r25
     4f6:	e9 f0       	breq	.+58     	; 0x532 <__mulsf3+0xf4>
     4f8:	e6 0c       	add	r14, r6
     4fa:	f7 1c       	adc	r15, r7
     4fc:	08 1d       	adc	r16, r8
     4fe:	19 1d       	adc	r17, r9
     500:	9a 01       	movw	r18, r20
     502:	ab 01       	movw	r20, r22
     504:	2a 0d       	add	r18, r10
     506:	3b 1d       	adc	r19, r11
     508:	4c 1d       	adc	r20, r12
     50a:	5d 1d       	adc	r21, r13
     50c:	80 e0       	ldi	r24, 0x00	; 0
     50e:	90 e0       	ldi	r25, 0x00	; 0
     510:	a0 e0       	ldi	r26, 0x00	; 0
     512:	b0 e0       	ldi	r27, 0x00	; 0
     514:	e6 14       	cp	r14, r6
     516:	f7 04       	cpc	r15, r7
     518:	08 05       	cpc	r16, r8
     51a:	19 05       	cpc	r17, r9
     51c:	20 f4       	brcc	.+8      	; 0x526 <__mulsf3+0xe8>
     51e:	81 e0       	ldi	r24, 0x01	; 1
     520:	90 e0       	ldi	r25, 0x00	; 0
     522:	a0 e0       	ldi	r26, 0x00	; 0
     524:	b0 e0       	ldi	r27, 0x00	; 0
     526:	ba 01       	movw	r22, r20
     528:	a9 01       	movw	r20, r18
     52a:	48 0f       	add	r20, r24
     52c:	59 1f       	adc	r21, r25
     52e:	6a 1f       	adc	r22, r26
     530:	7b 1f       	adc	r23, r27
     532:	aa 0c       	add	r10, r10
     534:	bb 1c       	adc	r11, r11
     536:	cc 1c       	adc	r12, r12
     538:	dd 1c       	adc	r13, r13
     53a:	97 fe       	sbrs	r9, 7
     53c:	08 c0       	rjmp	.+16     	; 0x54e <__mulsf3+0x110>
     53e:	81 e0       	ldi	r24, 0x01	; 1
     540:	90 e0       	ldi	r25, 0x00	; 0
     542:	a0 e0       	ldi	r26, 0x00	; 0
     544:	b0 e0       	ldi	r27, 0x00	; 0
     546:	a8 2a       	or	r10, r24
     548:	b9 2a       	or	r11, r25
     54a:	ca 2a       	or	r12, r26
     54c:	db 2a       	or	r13, r27
     54e:	31 96       	adiw	r30, 0x01	; 1
     550:	e0 32       	cpi	r30, 0x20	; 32
     552:	f1 05       	cpc	r31, r1
     554:	49 f0       	breq	.+18     	; 0x568 <__mulsf3+0x12a>
     556:	66 0c       	add	r6, r6
     558:	77 1c       	adc	r7, r7
     55a:	88 1c       	adc	r8, r8
     55c:	99 1c       	adc	r9, r9
     55e:	56 94       	lsr	r5
     560:	47 94       	ror	r4
     562:	37 94       	ror	r3
     564:	27 94       	ror	r2
     566:	c3 cf       	rjmp	.-122    	; 0x4ee <__mulsf3+0xb0>
     568:	fa 85       	ldd	r31, Y+10	; 0x0a
     56a:	ea 89       	ldd	r30, Y+18	; 0x12
     56c:	2b 89       	ldd	r18, Y+19	; 0x13
     56e:	3c 89       	ldd	r19, Y+20	; 0x14
     570:	8b 85       	ldd	r24, Y+11	; 0x0b
     572:	9c 85       	ldd	r25, Y+12	; 0x0c
     574:	28 0f       	add	r18, r24
     576:	39 1f       	adc	r19, r25
     578:	2e 5f       	subi	r18, 0xFE	; 254
     57a:	3f 4f       	sbci	r19, 0xFF	; 255
     57c:	17 c0       	rjmp	.+46     	; 0x5ac <__mulsf3+0x16e>
     57e:	ca 01       	movw	r24, r20
     580:	81 70       	andi	r24, 0x01	; 1
     582:	90 70       	andi	r25, 0x00	; 0
     584:	89 2b       	or	r24, r25
     586:	61 f0       	breq	.+24     	; 0x5a0 <__mulsf3+0x162>
     588:	16 95       	lsr	r17
     58a:	07 95       	ror	r16
     58c:	f7 94       	ror	r15
     58e:	e7 94       	ror	r14
     590:	80 e0       	ldi	r24, 0x00	; 0
     592:	90 e0       	ldi	r25, 0x00	; 0
     594:	a0 e0       	ldi	r26, 0x00	; 0
     596:	b0 e8       	ldi	r27, 0x80	; 128
     598:	e8 2a       	or	r14, r24
     59a:	f9 2a       	or	r15, r25
     59c:	0a 2b       	or	r16, r26
     59e:	1b 2b       	or	r17, r27
     5a0:	76 95       	lsr	r23
     5a2:	67 95       	ror	r22
     5a4:	57 95       	ror	r21
     5a6:	47 95       	ror	r20
     5a8:	2f 5f       	subi	r18, 0xFF	; 255
     5aa:	3f 4f       	sbci	r19, 0xFF	; 255
     5ac:	77 fd       	sbrc	r23, 7
     5ae:	e7 cf       	rjmp	.-50     	; 0x57e <__mulsf3+0x140>
     5b0:	0c c0       	rjmp	.+24     	; 0x5ca <__mulsf3+0x18c>
     5b2:	44 0f       	add	r20, r20
     5b4:	55 1f       	adc	r21, r21
     5b6:	66 1f       	adc	r22, r22
     5b8:	77 1f       	adc	r23, r23
     5ba:	17 fd       	sbrc	r17, 7
     5bc:	41 60       	ori	r20, 0x01	; 1
     5be:	ee 0c       	add	r14, r14
     5c0:	ff 1c       	adc	r15, r15
     5c2:	00 1f       	adc	r16, r16
     5c4:	11 1f       	adc	r17, r17
     5c6:	21 50       	subi	r18, 0x01	; 1
     5c8:	30 40       	sbci	r19, 0x00	; 0
     5ca:	40 30       	cpi	r20, 0x00	; 0
     5cc:	90 e0       	ldi	r25, 0x00	; 0
     5ce:	59 07       	cpc	r21, r25
     5d0:	90 e0       	ldi	r25, 0x00	; 0
     5d2:	69 07       	cpc	r22, r25
     5d4:	90 e4       	ldi	r25, 0x40	; 64
     5d6:	79 07       	cpc	r23, r25
     5d8:	60 f3       	brcs	.-40     	; 0x5b2 <__mulsf3+0x174>
     5da:	2b 8f       	std	Y+27, r18	; 0x1b
     5dc:	3c 8f       	std	Y+28, r19	; 0x1c
     5de:	db 01       	movw	r26, r22
     5e0:	ca 01       	movw	r24, r20
     5e2:	8f 77       	andi	r24, 0x7F	; 127
     5e4:	90 70       	andi	r25, 0x00	; 0
     5e6:	a0 70       	andi	r26, 0x00	; 0
     5e8:	b0 70       	andi	r27, 0x00	; 0
     5ea:	80 34       	cpi	r24, 0x40	; 64
     5ec:	91 05       	cpc	r25, r1
     5ee:	a1 05       	cpc	r26, r1
     5f0:	b1 05       	cpc	r27, r1
     5f2:	61 f4       	brne	.+24     	; 0x60c <__mulsf3+0x1ce>
     5f4:	47 fd       	sbrc	r20, 7
     5f6:	0a c0       	rjmp	.+20     	; 0x60c <__mulsf3+0x1ce>
     5f8:	e1 14       	cp	r14, r1
     5fa:	f1 04       	cpc	r15, r1
     5fc:	01 05       	cpc	r16, r1
     5fe:	11 05       	cpc	r17, r1
     600:	29 f0       	breq	.+10     	; 0x60c <__mulsf3+0x1ce>
     602:	40 5c       	subi	r20, 0xC0	; 192
     604:	5f 4f       	sbci	r21, 0xFF	; 255
     606:	6f 4f       	sbci	r22, 0xFF	; 255
     608:	7f 4f       	sbci	r23, 0xFF	; 255
     60a:	40 78       	andi	r20, 0x80	; 128
     60c:	1a 8e       	std	Y+26, r1	; 0x1a
     60e:	fe 17       	cp	r31, r30
     610:	11 f0       	breq	.+4      	; 0x616 <__mulsf3+0x1d8>
     612:	81 e0       	ldi	r24, 0x01	; 1
     614:	8a 8f       	std	Y+26, r24	; 0x1a
     616:	4d 8f       	std	Y+29, r20	; 0x1d
     618:	5e 8f       	std	Y+30, r21	; 0x1e
     61a:	6f 8f       	std	Y+31, r22	; 0x1f
     61c:	78 a3       	std	Y+32, r23	; 0x20
     61e:	83 e0       	ldi	r24, 0x03	; 3
     620:	89 8f       	std	Y+25, r24	; 0x19
     622:	ce 01       	movw	r24, r28
     624:	49 96       	adiw	r24, 0x19	; 25
     626:	0e 94 71 05 	call	0xae2	; 0xae2 <__pack_f>
     62a:	a0 96       	adiw	r28, 0x20	; 32
     62c:	e2 e1       	ldi	r30, 0x12	; 18
     62e:	0c 94 17 30 	jmp	0x602e	; 0x602e <__epilogue_restores__>

00000632 <__divsf3>:
     632:	a8 e1       	ldi	r26, 0x18	; 24
     634:	b0 e0       	ldi	r27, 0x00	; 0
     636:	ef e1       	ldi	r30, 0x1F	; 31
     638:	f3 e0       	ldi	r31, 0x03	; 3
     63a:	0c 94 03 30 	jmp	0x6006	; 0x6006 <__prologue_saves__+0x10>
     63e:	69 83       	std	Y+1, r22	; 0x01
     640:	7a 83       	std	Y+2, r23	; 0x02
     642:	8b 83       	std	Y+3, r24	; 0x03
     644:	9c 83       	std	Y+4, r25	; 0x04
     646:	2d 83       	std	Y+5, r18	; 0x05
     648:	3e 83       	std	Y+6, r19	; 0x06
     64a:	4f 83       	std	Y+7, r20	; 0x07
     64c:	58 87       	std	Y+8, r21	; 0x08
     64e:	b9 e0       	ldi	r27, 0x09	; 9
     650:	eb 2e       	mov	r14, r27
     652:	f1 2c       	mov	r15, r1
     654:	ec 0e       	add	r14, r28
     656:	fd 1e       	adc	r15, r29
     658:	ce 01       	movw	r24, r28
     65a:	01 96       	adiw	r24, 0x01	; 1
     65c:	b7 01       	movw	r22, r14
     65e:	0e 94 46 06 	call	0xc8c	; 0xc8c <__unpack_f>
     662:	8e 01       	movw	r16, r28
     664:	0f 5e       	subi	r16, 0xEF	; 239
     666:	1f 4f       	sbci	r17, 0xFF	; 255
     668:	ce 01       	movw	r24, r28
     66a:	05 96       	adiw	r24, 0x05	; 5
     66c:	b8 01       	movw	r22, r16
     66e:	0e 94 46 06 	call	0xc8c	; 0xc8c <__unpack_f>
     672:	29 85       	ldd	r18, Y+9	; 0x09
     674:	22 30       	cpi	r18, 0x02	; 2
     676:	08 f4       	brcc	.+2      	; 0x67a <__divsf3+0x48>
     678:	7e c0       	rjmp	.+252    	; 0x776 <__divsf3+0x144>
     67a:	39 89       	ldd	r19, Y+17	; 0x11
     67c:	32 30       	cpi	r19, 0x02	; 2
     67e:	10 f4       	brcc	.+4      	; 0x684 <__divsf3+0x52>
     680:	b8 01       	movw	r22, r16
     682:	7c c0       	rjmp	.+248    	; 0x77c <__divsf3+0x14a>
     684:	8a 85       	ldd	r24, Y+10	; 0x0a
     686:	9a 89       	ldd	r25, Y+18	; 0x12
     688:	89 27       	eor	r24, r25
     68a:	8a 87       	std	Y+10, r24	; 0x0a
     68c:	24 30       	cpi	r18, 0x04	; 4
     68e:	11 f0       	breq	.+4      	; 0x694 <__divsf3+0x62>
     690:	22 30       	cpi	r18, 0x02	; 2
     692:	31 f4       	brne	.+12     	; 0x6a0 <__divsf3+0x6e>
     694:	23 17       	cp	r18, r19
     696:	09 f0       	breq	.+2      	; 0x69a <__divsf3+0x68>
     698:	6e c0       	rjmp	.+220    	; 0x776 <__divsf3+0x144>
     69a:	65 e0       	ldi	r22, 0x05	; 5
     69c:	71 e0       	ldi	r23, 0x01	; 1
     69e:	6e c0       	rjmp	.+220    	; 0x77c <__divsf3+0x14a>
     6a0:	34 30       	cpi	r19, 0x04	; 4
     6a2:	39 f4       	brne	.+14     	; 0x6b2 <__divsf3+0x80>
     6a4:	1d 86       	std	Y+13, r1	; 0x0d
     6a6:	1e 86       	std	Y+14, r1	; 0x0e
     6a8:	1f 86       	std	Y+15, r1	; 0x0f
     6aa:	18 8a       	std	Y+16, r1	; 0x10
     6ac:	1c 86       	std	Y+12, r1	; 0x0c
     6ae:	1b 86       	std	Y+11, r1	; 0x0b
     6b0:	04 c0       	rjmp	.+8      	; 0x6ba <__divsf3+0x88>
     6b2:	32 30       	cpi	r19, 0x02	; 2
     6b4:	21 f4       	brne	.+8      	; 0x6be <__divsf3+0x8c>
     6b6:	84 e0       	ldi	r24, 0x04	; 4
     6b8:	89 87       	std	Y+9, r24	; 0x09
     6ba:	b7 01       	movw	r22, r14
     6bc:	5f c0       	rjmp	.+190    	; 0x77c <__divsf3+0x14a>
     6be:	2b 85       	ldd	r18, Y+11	; 0x0b
     6c0:	3c 85       	ldd	r19, Y+12	; 0x0c
     6c2:	8b 89       	ldd	r24, Y+19	; 0x13
     6c4:	9c 89       	ldd	r25, Y+20	; 0x14
     6c6:	28 1b       	sub	r18, r24
     6c8:	39 0b       	sbc	r19, r25
     6ca:	3c 87       	std	Y+12, r19	; 0x0c
     6cc:	2b 87       	std	Y+11, r18	; 0x0b
     6ce:	ed 84       	ldd	r14, Y+13	; 0x0d
     6d0:	fe 84       	ldd	r15, Y+14	; 0x0e
     6d2:	0f 85       	ldd	r16, Y+15	; 0x0f
     6d4:	18 89       	ldd	r17, Y+16	; 0x10
     6d6:	ad 88       	ldd	r10, Y+21	; 0x15
     6d8:	be 88       	ldd	r11, Y+22	; 0x16
     6da:	cf 88       	ldd	r12, Y+23	; 0x17
     6dc:	d8 8c       	ldd	r13, Y+24	; 0x18
     6de:	ea 14       	cp	r14, r10
     6e0:	fb 04       	cpc	r15, r11
     6e2:	0c 05       	cpc	r16, r12
     6e4:	1d 05       	cpc	r17, r13
     6e6:	40 f4       	brcc	.+16     	; 0x6f8 <__divsf3+0xc6>
     6e8:	ee 0c       	add	r14, r14
     6ea:	ff 1c       	adc	r15, r15
     6ec:	00 1f       	adc	r16, r16
     6ee:	11 1f       	adc	r17, r17
     6f0:	21 50       	subi	r18, 0x01	; 1
     6f2:	30 40       	sbci	r19, 0x00	; 0
     6f4:	3c 87       	std	Y+12, r19	; 0x0c
     6f6:	2b 87       	std	Y+11, r18	; 0x0b
     6f8:	20 e0       	ldi	r18, 0x00	; 0
     6fa:	30 e0       	ldi	r19, 0x00	; 0
     6fc:	40 e0       	ldi	r20, 0x00	; 0
     6fe:	50 e0       	ldi	r21, 0x00	; 0
     700:	80 e0       	ldi	r24, 0x00	; 0
     702:	90 e0       	ldi	r25, 0x00	; 0
     704:	a0 e0       	ldi	r26, 0x00	; 0
     706:	b0 e4       	ldi	r27, 0x40	; 64
     708:	60 e0       	ldi	r22, 0x00	; 0
     70a:	70 e0       	ldi	r23, 0x00	; 0
     70c:	ea 14       	cp	r14, r10
     70e:	fb 04       	cpc	r15, r11
     710:	0c 05       	cpc	r16, r12
     712:	1d 05       	cpc	r17, r13
     714:	40 f0       	brcs	.+16     	; 0x726 <__divsf3+0xf4>
     716:	28 2b       	or	r18, r24
     718:	39 2b       	or	r19, r25
     71a:	4a 2b       	or	r20, r26
     71c:	5b 2b       	or	r21, r27
     71e:	ea 18       	sub	r14, r10
     720:	fb 08       	sbc	r15, r11
     722:	0c 09       	sbc	r16, r12
     724:	1d 09       	sbc	r17, r13
     726:	b6 95       	lsr	r27
     728:	a7 95       	ror	r26
     72a:	97 95       	ror	r25
     72c:	87 95       	ror	r24
     72e:	ee 0c       	add	r14, r14
     730:	ff 1c       	adc	r15, r15
     732:	00 1f       	adc	r16, r16
     734:	11 1f       	adc	r17, r17
     736:	6f 5f       	subi	r22, 0xFF	; 255
     738:	7f 4f       	sbci	r23, 0xFF	; 255
     73a:	6f 31       	cpi	r22, 0x1F	; 31
     73c:	71 05       	cpc	r23, r1
     73e:	31 f7       	brne	.-52     	; 0x70c <__divsf3+0xda>
     740:	da 01       	movw	r26, r20
     742:	c9 01       	movw	r24, r18
     744:	8f 77       	andi	r24, 0x7F	; 127
     746:	90 70       	andi	r25, 0x00	; 0
     748:	a0 70       	andi	r26, 0x00	; 0
     74a:	b0 70       	andi	r27, 0x00	; 0
     74c:	80 34       	cpi	r24, 0x40	; 64
     74e:	91 05       	cpc	r25, r1
     750:	a1 05       	cpc	r26, r1
     752:	b1 05       	cpc	r27, r1
     754:	61 f4       	brne	.+24     	; 0x76e <__divsf3+0x13c>
     756:	27 fd       	sbrc	r18, 7
     758:	0a c0       	rjmp	.+20     	; 0x76e <__divsf3+0x13c>
     75a:	e1 14       	cp	r14, r1
     75c:	f1 04       	cpc	r15, r1
     75e:	01 05       	cpc	r16, r1
     760:	11 05       	cpc	r17, r1
     762:	29 f0       	breq	.+10     	; 0x76e <__divsf3+0x13c>
     764:	20 5c       	subi	r18, 0xC0	; 192
     766:	3f 4f       	sbci	r19, 0xFF	; 255
     768:	4f 4f       	sbci	r20, 0xFF	; 255
     76a:	5f 4f       	sbci	r21, 0xFF	; 255
     76c:	20 78       	andi	r18, 0x80	; 128
     76e:	2d 87       	std	Y+13, r18	; 0x0d
     770:	3e 87       	std	Y+14, r19	; 0x0e
     772:	4f 87       	std	Y+15, r20	; 0x0f
     774:	58 8b       	std	Y+16, r21	; 0x10
     776:	be 01       	movw	r22, r28
     778:	67 5f       	subi	r22, 0xF7	; 247
     77a:	7f 4f       	sbci	r23, 0xFF	; 255
     77c:	cb 01       	movw	r24, r22
     77e:	0e 94 71 05 	call	0xae2	; 0xae2 <__pack_f>
     782:	68 96       	adiw	r28, 0x18	; 24
     784:	ea e0       	ldi	r30, 0x0A	; 10
     786:	0c 94 1f 30 	jmp	0x603e	; 0x603e <__epilogue_restores__+0x10>

0000078a <__gtsf2>:
     78a:	a8 e1       	ldi	r26, 0x18	; 24
     78c:	b0 e0       	ldi	r27, 0x00	; 0
     78e:	eb ec       	ldi	r30, 0xCB	; 203
     790:	f3 e0       	ldi	r31, 0x03	; 3
     792:	0c 94 07 30 	jmp	0x600e	; 0x600e <__prologue_saves__+0x18>
     796:	69 83       	std	Y+1, r22	; 0x01
     798:	7a 83       	std	Y+2, r23	; 0x02
     79a:	8b 83       	std	Y+3, r24	; 0x03
     79c:	9c 83       	std	Y+4, r25	; 0x04
     79e:	2d 83       	std	Y+5, r18	; 0x05
     7a0:	3e 83       	std	Y+6, r19	; 0x06
     7a2:	4f 83       	std	Y+7, r20	; 0x07
     7a4:	58 87       	std	Y+8, r21	; 0x08
     7a6:	89 e0       	ldi	r24, 0x09	; 9
     7a8:	e8 2e       	mov	r14, r24
     7aa:	f1 2c       	mov	r15, r1
     7ac:	ec 0e       	add	r14, r28
     7ae:	fd 1e       	adc	r15, r29
     7b0:	ce 01       	movw	r24, r28
     7b2:	01 96       	adiw	r24, 0x01	; 1
     7b4:	b7 01       	movw	r22, r14
     7b6:	0e 94 46 06 	call	0xc8c	; 0xc8c <__unpack_f>
     7ba:	8e 01       	movw	r16, r28
     7bc:	0f 5e       	subi	r16, 0xEF	; 239
     7be:	1f 4f       	sbci	r17, 0xFF	; 255
     7c0:	ce 01       	movw	r24, r28
     7c2:	05 96       	adiw	r24, 0x05	; 5
     7c4:	b8 01       	movw	r22, r16
     7c6:	0e 94 46 06 	call	0xc8c	; 0xc8c <__unpack_f>
     7ca:	89 85       	ldd	r24, Y+9	; 0x09
     7cc:	82 30       	cpi	r24, 0x02	; 2
     7ce:	40 f0       	brcs	.+16     	; 0x7e0 <__gtsf2+0x56>
     7d0:	89 89       	ldd	r24, Y+17	; 0x11
     7d2:	82 30       	cpi	r24, 0x02	; 2
     7d4:	28 f0       	brcs	.+10     	; 0x7e0 <__gtsf2+0x56>
     7d6:	c7 01       	movw	r24, r14
     7d8:	b8 01       	movw	r22, r16
     7da:	0e 94 be 06 	call	0xd7c	; 0xd7c <__fpcmp_parts_f>
     7de:	01 c0       	rjmp	.+2      	; 0x7e2 <__gtsf2+0x58>
     7e0:	8f ef       	ldi	r24, 0xFF	; 255
     7e2:	68 96       	adiw	r28, 0x18	; 24
     7e4:	e6 e0       	ldi	r30, 0x06	; 6
     7e6:	0c 94 23 30 	jmp	0x6046	; 0x6046 <__epilogue_restores__+0x18>

000007ea <__gesf2>:
     7ea:	a8 e1       	ldi	r26, 0x18	; 24
     7ec:	b0 e0       	ldi	r27, 0x00	; 0
     7ee:	eb ef       	ldi	r30, 0xFB	; 251
     7f0:	f3 e0       	ldi	r31, 0x03	; 3
     7f2:	0c 94 07 30 	jmp	0x600e	; 0x600e <__prologue_saves__+0x18>
     7f6:	69 83       	std	Y+1, r22	; 0x01
     7f8:	7a 83       	std	Y+2, r23	; 0x02
     7fa:	8b 83       	std	Y+3, r24	; 0x03
     7fc:	9c 83       	std	Y+4, r25	; 0x04
     7fe:	2d 83       	std	Y+5, r18	; 0x05
     800:	3e 83       	std	Y+6, r19	; 0x06
     802:	4f 83       	std	Y+7, r20	; 0x07
     804:	58 87       	std	Y+8, r21	; 0x08
     806:	89 e0       	ldi	r24, 0x09	; 9
     808:	e8 2e       	mov	r14, r24
     80a:	f1 2c       	mov	r15, r1
     80c:	ec 0e       	add	r14, r28
     80e:	fd 1e       	adc	r15, r29
     810:	ce 01       	movw	r24, r28
     812:	01 96       	adiw	r24, 0x01	; 1
     814:	b7 01       	movw	r22, r14
     816:	0e 94 46 06 	call	0xc8c	; 0xc8c <__unpack_f>
     81a:	8e 01       	movw	r16, r28
     81c:	0f 5e       	subi	r16, 0xEF	; 239
     81e:	1f 4f       	sbci	r17, 0xFF	; 255
     820:	ce 01       	movw	r24, r28
     822:	05 96       	adiw	r24, 0x05	; 5
     824:	b8 01       	movw	r22, r16
     826:	0e 94 46 06 	call	0xc8c	; 0xc8c <__unpack_f>
     82a:	89 85       	ldd	r24, Y+9	; 0x09
     82c:	82 30       	cpi	r24, 0x02	; 2
     82e:	40 f0       	brcs	.+16     	; 0x840 <__gesf2+0x56>
     830:	89 89       	ldd	r24, Y+17	; 0x11
     832:	82 30       	cpi	r24, 0x02	; 2
     834:	28 f0       	brcs	.+10     	; 0x840 <__gesf2+0x56>
     836:	c7 01       	movw	r24, r14
     838:	b8 01       	movw	r22, r16
     83a:	0e 94 be 06 	call	0xd7c	; 0xd7c <__fpcmp_parts_f>
     83e:	01 c0       	rjmp	.+2      	; 0x842 <__gesf2+0x58>
     840:	8f ef       	ldi	r24, 0xFF	; 255
     842:	68 96       	adiw	r28, 0x18	; 24
     844:	e6 e0       	ldi	r30, 0x06	; 6
     846:	0c 94 23 30 	jmp	0x6046	; 0x6046 <__epilogue_restores__+0x18>

0000084a <__ltsf2>:
     84a:	a8 e1       	ldi	r26, 0x18	; 24
     84c:	b0 e0       	ldi	r27, 0x00	; 0
     84e:	eb e2       	ldi	r30, 0x2B	; 43
     850:	f4 e0       	ldi	r31, 0x04	; 4
     852:	0c 94 07 30 	jmp	0x600e	; 0x600e <__prologue_saves__+0x18>
     856:	69 83       	std	Y+1, r22	; 0x01
     858:	7a 83       	std	Y+2, r23	; 0x02
     85a:	8b 83       	std	Y+3, r24	; 0x03
     85c:	9c 83       	std	Y+4, r25	; 0x04
     85e:	2d 83       	std	Y+5, r18	; 0x05
     860:	3e 83       	std	Y+6, r19	; 0x06
     862:	4f 83       	std	Y+7, r20	; 0x07
     864:	58 87       	std	Y+8, r21	; 0x08
     866:	89 e0       	ldi	r24, 0x09	; 9
     868:	e8 2e       	mov	r14, r24
     86a:	f1 2c       	mov	r15, r1
     86c:	ec 0e       	add	r14, r28
     86e:	fd 1e       	adc	r15, r29
     870:	ce 01       	movw	r24, r28
     872:	01 96       	adiw	r24, 0x01	; 1
     874:	b7 01       	movw	r22, r14
     876:	0e 94 46 06 	call	0xc8c	; 0xc8c <__unpack_f>
     87a:	8e 01       	movw	r16, r28
     87c:	0f 5e       	subi	r16, 0xEF	; 239
     87e:	1f 4f       	sbci	r17, 0xFF	; 255
     880:	ce 01       	movw	r24, r28
     882:	05 96       	adiw	r24, 0x05	; 5
     884:	b8 01       	movw	r22, r16
     886:	0e 94 46 06 	call	0xc8c	; 0xc8c <__unpack_f>
     88a:	89 85       	ldd	r24, Y+9	; 0x09
     88c:	82 30       	cpi	r24, 0x02	; 2
     88e:	40 f0       	brcs	.+16     	; 0x8a0 <__stack+0x41>
     890:	89 89       	ldd	r24, Y+17	; 0x11
     892:	82 30       	cpi	r24, 0x02	; 2
     894:	28 f0       	brcs	.+10     	; 0x8a0 <__stack+0x41>
     896:	c7 01       	movw	r24, r14
     898:	b8 01       	movw	r22, r16
     89a:	0e 94 be 06 	call	0xd7c	; 0xd7c <__fpcmp_parts_f>
     89e:	01 c0       	rjmp	.+2      	; 0x8a2 <__stack+0x43>
     8a0:	81 e0       	ldi	r24, 0x01	; 1
     8a2:	68 96       	adiw	r28, 0x18	; 24
     8a4:	e6 e0       	ldi	r30, 0x06	; 6
     8a6:	0c 94 23 30 	jmp	0x6046	; 0x6046 <__epilogue_restores__+0x18>

000008aa <__fixsfsi>:
     8aa:	ac e0       	ldi	r26, 0x0C	; 12
     8ac:	b0 e0       	ldi	r27, 0x00	; 0
     8ae:	eb e5       	ldi	r30, 0x5B	; 91
     8b0:	f4 e0       	ldi	r31, 0x04	; 4
     8b2:	0c 94 0b 30 	jmp	0x6016	; 0x6016 <__prologue_saves__+0x20>
     8b6:	69 83       	std	Y+1, r22	; 0x01
     8b8:	7a 83       	std	Y+2, r23	; 0x02
     8ba:	8b 83       	std	Y+3, r24	; 0x03
     8bc:	9c 83       	std	Y+4, r25	; 0x04
     8be:	ce 01       	movw	r24, r28
     8c0:	01 96       	adiw	r24, 0x01	; 1
     8c2:	be 01       	movw	r22, r28
     8c4:	6b 5f       	subi	r22, 0xFB	; 251
     8c6:	7f 4f       	sbci	r23, 0xFF	; 255
     8c8:	0e 94 46 06 	call	0xc8c	; 0xc8c <__unpack_f>
     8cc:	8d 81       	ldd	r24, Y+5	; 0x05
     8ce:	82 30       	cpi	r24, 0x02	; 2
     8d0:	61 f1       	breq	.+88     	; 0x92a <__fixsfsi+0x80>
     8d2:	82 30       	cpi	r24, 0x02	; 2
     8d4:	50 f1       	brcs	.+84     	; 0x92a <__fixsfsi+0x80>
     8d6:	84 30       	cpi	r24, 0x04	; 4
     8d8:	21 f4       	brne	.+8      	; 0x8e2 <__fixsfsi+0x38>
     8da:	8e 81       	ldd	r24, Y+6	; 0x06
     8dc:	88 23       	and	r24, r24
     8de:	51 f1       	breq	.+84     	; 0x934 <__fixsfsi+0x8a>
     8e0:	2e c0       	rjmp	.+92     	; 0x93e <__fixsfsi+0x94>
     8e2:	2f 81       	ldd	r18, Y+7	; 0x07
     8e4:	38 85       	ldd	r19, Y+8	; 0x08
     8e6:	37 fd       	sbrc	r19, 7
     8e8:	20 c0       	rjmp	.+64     	; 0x92a <__fixsfsi+0x80>
     8ea:	6e 81       	ldd	r22, Y+6	; 0x06
     8ec:	2f 31       	cpi	r18, 0x1F	; 31
     8ee:	31 05       	cpc	r19, r1
     8f0:	1c f0       	brlt	.+6      	; 0x8f8 <__fixsfsi+0x4e>
     8f2:	66 23       	and	r22, r22
     8f4:	f9 f0       	breq	.+62     	; 0x934 <__fixsfsi+0x8a>
     8f6:	23 c0       	rjmp	.+70     	; 0x93e <__fixsfsi+0x94>
     8f8:	8e e1       	ldi	r24, 0x1E	; 30
     8fa:	90 e0       	ldi	r25, 0x00	; 0
     8fc:	82 1b       	sub	r24, r18
     8fe:	93 0b       	sbc	r25, r19
     900:	29 85       	ldd	r18, Y+9	; 0x09
     902:	3a 85       	ldd	r19, Y+10	; 0x0a
     904:	4b 85       	ldd	r20, Y+11	; 0x0b
     906:	5c 85       	ldd	r21, Y+12	; 0x0c
     908:	04 c0       	rjmp	.+8      	; 0x912 <__fixsfsi+0x68>
     90a:	56 95       	lsr	r21
     90c:	47 95       	ror	r20
     90e:	37 95       	ror	r19
     910:	27 95       	ror	r18
     912:	8a 95       	dec	r24
     914:	d2 f7       	brpl	.-12     	; 0x90a <__fixsfsi+0x60>
     916:	66 23       	and	r22, r22
     918:	b1 f0       	breq	.+44     	; 0x946 <__fixsfsi+0x9c>
     91a:	50 95       	com	r21
     91c:	40 95       	com	r20
     91e:	30 95       	com	r19
     920:	21 95       	neg	r18
     922:	3f 4f       	sbci	r19, 0xFF	; 255
     924:	4f 4f       	sbci	r20, 0xFF	; 255
     926:	5f 4f       	sbci	r21, 0xFF	; 255
     928:	0e c0       	rjmp	.+28     	; 0x946 <__fixsfsi+0x9c>
     92a:	20 e0       	ldi	r18, 0x00	; 0
     92c:	30 e0       	ldi	r19, 0x00	; 0
     92e:	40 e0       	ldi	r20, 0x00	; 0
     930:	50 e0       	ldi	r21, 0x00	; 0
     932:	09 c0       	rjmp	.+18     	; 0x946 <__fixsfsi+0x9c>
     934:	2f ef       	ldi	r18, 0xFF	; 255
     936:	3f ef       	ldi	r19, 0xFF	; 255
     938:	4f ef       	ldi	r20, 0xFF	; 255
     93a:	5f e7       	ldi	r21, 0x7F	; 127
     93c:	04 c0       	rjmp	.+8      	; 0x946 <__fixsfsi+0x9c>
     93e:	20 e0       	ldi	r18, 0x00	; 0
     940:	30 e0       	ldi	r19, 0x00	; 0
     942:	40 e0       	ldi	r20, 0x00	; 0
     944:	50 e8       	ldi	r21, 0x80	; 128
     946:	b9 01       	movw	r22, r18
     948:	ca 01       	movw	r24, r20
     94a:	2c 96       	adiw	r28, 0x0c	; 12
     94c:	e2 e0       	ldi	r30, 0x02	; 2
     94e:	0c 94 27 30 	jmp	0x604e	; 0x604e <__epilogue_restores__+0x20>

00000952 <__floatunsisf>:
     952:	a8 e0       	ldi	r26, 0x08	; 8
     954:	b0 e0       	ldi	r27, 0x00	; 0
     956:	ef ea       	ldi	r30, 0xAF	; 175
     958:	f4 e0       	ldi	r31, 0x04	; 4
     95a:	0c 94 03 30 	jmp	0x6006	; 0x6006 <__prologue_saves__+0x10>
     95e:	7b 01       	movw	r14, r22
     960:	8c 01       	movw	r16, r24
     962:	61 15       	cp	r22, r1
     964:	71 05       	cpc	r23, r1
     966:	81 05       	cpc	r24, r1
     968:	91 05       	cpc	r25, r1
     96a:	19 f4       	brne	.+6      	; 0x972 <__floatunsisf+0x20>
     96c:	82 e0       	ldi	r24, 0x02	; 2
     96e:	89 83       	std	Y+1, r24	; 0x01
     970:	60 c0       	rjmp	.+192    	; 0xa32 <__floatunsisf+0xe0>
     972:	83 e0       	ldi	r24, 0x03	; 3
     974:	89 83       	std	Y+1, r24	; 0x01
     976:	8e e1       	ldi	r24, 0x1E	; 30
     978:	c8 2e       	mov	r12, r24
     97a:	d1 2c       	mov	r13, r1
     97c:	dc 82       	std	Y+4, r13	; 0x04
     97e:	cb 82       	std	Y+3, r12	; 0x03
     980:	ed 82       	std	Y+5, r14	; 0x05
     982:	fe 82       	std	Y+6, r15	; 0x06
     984:	0f 83       	std	Y+7, r16	; 0x07
     986:	18 87       	std	Y+8, r17	; 0x08
     988:	c8 01       	movw	r24, r16
     98a:	b7 01       	movw	r22, r14
     98c:	0e 94 22 05 	call	0xa44	; 0xa44 <__clzsi2>
     990:	fc 01       	movw	r30, r24
     992:	31 97       	sbiw	r30, 0x01	; 1
     994:	f7 ff       	sbrs	r31, 7
     996:	3b c0       	rjmp	.+118    	; 0xa0e <__floatunsisf+0xbc>
     998:	22 27       	eor	r18, r18
     99a:	33 27       	eor	r19, r19
     99c:	2e 1b       	sub	r18, r30
     99e:	3f 0b       	sbc	r19, r31
     9a0:	57 01       	movw	r10, r14
     9a2:	68 01       	movw	r12, r16
     9a4:	02 2e       	mov	r0, r18
     9a6:	04 c0       	rjmp	.+8      	; 0x9b0 <__floatunsisf+0x5e>
     9a8:	d6 94       	lsr	r13
     9aa:	c7 94       	ror	r12
     9ac:	b7 94       	ror	r11
     9ae:	a7 94       	ror	r10
     9b0:	0a 94       	dec	r0
     9b2:	d2 f7       	brpl	.-12     	; 0x9a8 <__floatunsisf+0x56>
     9b4:	40 e0       	ldi	r20, 0x00	; 0
     9b6:	50 e0       	ldi	r21, 0x00	; 0
     9b8:	60 e0       	ldi	r22, 0x00	; 0
     9ba:	70 e0       	ldi	r23, 0x00	; 0
     9bc:	81 e0       	ldi	r24, 0x01	; 1
     9be:	90 e0       	ldi	r25, 0x00	; 0
     9c0:	a0 e0       	ldi	r26, 0x00	; 0
     9c2:	b0 e0       	ldi	r27, 0x00	; 0
     9c4:	04 c0       	rjmp	.+8      	; 0x9ce <__floatunsisf+0x7c>
     9c6:	88 0f       	add	r24, r24
     9c8:	99 1f       	adc	r25, r25
     9ca:	aa 1f       	adc	r26, r26
     9cc:	bb 1f       	adc	r27, r27
     9ce:	2a 95       	dec	r18
     9d0:	d2 f7       	brpl	.-12     	; 0x9c6 <__floatunsisf+0x74>
     9d2:	01 97       	sbiw	r24, 0x01	; 1
     9d4:	a1 09       	sbc	r26, r1
     9d6:	b1 09       	sbc	r27, r1
     9d8:	8e 21       	and	r24, r14
     9da:	9f 21       	and	r25, r15
     9dc:	a0 23       	and	r26, r16
     9de:	b1 23       	and	r27, r17
     9e0:	00 97       	sbiw	r24, 0x00	; 0
     9e2:	a1 05       	cpc	r26, r1
     9e4:	b1 05       	cpc	r27, r1
     9e6:	21 f0       	breq	.+8      	; 0x9f0 <__floatunsisf+0x9e>
     9e8:	41 e0       	ldi	r20, 0x01	; 1
     9ea:	50 e0       	ldi	r21, 0x00	; 0
     9ec:	60 e0       	ldi	r22, 0x00	; 0
     9ee:	70 e0       	ldi	r23, 0x00	; 0
     9f0:	4a 29       	or	r20, r10
     9f2:	5b 29       	or	r21, r11
     9f4:	6c 29       	or	r22, r12
     9f6:	7d 29       	or	r23, r13
     9f8:	4d 83       	std	Y+5, r20	; 0x05
     9fa:	5e 83       	std	Y+6, r21	; 0x06
     9fc:	6f 83       	std	Y+7, r22	; 0x07
     9fe:	78 87       	std	Y+8, r23	; 0x08
     a00:	8e e1       	ldi	r24, 0x1E	; 30
     a02:	90 e0       	ldi	r25, 0x00	; 0
     a04:	8e 1b       	sub	r24, r30
     a06:	9f 0b       	sbc	r25, r31
     a08:	9c 83       	std	Y+4, r25	; 0x04
     a0a:	8b 83       	std	Y+3, r24	; 0x03
     a0c:	12 c0       	rjmp	.+36     	; 0xa32 <__floatunsisf+0xe0>
     a0e:	30 97       	sbiw	r30, 0x00	; 0
     a10:	81 f0       	breq	.+32     	; 0xa32 <__floatunsisf+0xe0>
     a12:	0e 2e       	mov	r0, r30
     a14:	04 c0       	rjmp	.+8      	; 0xa1e <__floatunsisf+0xcc>
     a16:	ee 0c       	add	r14, r14
     a18:	ff 1c       	adc	r15, r15
     a1a:	00 1f       	adc	r16, r16
     a1c:	11 1f       	adc	r17, r17
     a1e:	0a 94       	dec	r0
     a20:	d2 f7       	brpl	.-12     	; 0xa16 <__floatunsisf+0xc4>
     a22:	ed 82       	std	Y+5, r14	; 0x05
     a24:	fe 82       	std	Y+6, r15	; 0x06
     a26:	0f 83       	std	Y+7, r16	; 0x07
     a28:	18 87       	std	Y+8, r17	; 0x08
     a2a:	ce 1a       	sub	r12, r30
     a2c:	df 0a       	sbc	r13, r31
     a2e:	dc 82       	std	Y+4, r13	; 0x04
     a30:	cb 82       	std	Y+3, r12	; 0x03
     a32:	1a 82       	std	Y+2, r1	; 0x02
     a34:	ce 01       	movw	r24, r28
     a36:	01 96       	adiw	r24, 0x01	; 1
     a38:	0e 94 71 05 	call	0xae2	; 0xae2 <__pack_f>
     a3c:	28 96       	adiw	r28, 0x08	; 8
     a3e:	ea e0       	ldi	r30, 0x0A	; 10
     a40:	0c 94 1f 30 	jmp	0x603e	; 0x603e <__epilogue_restores__+0x10>

00000a44 <__clzsi2>:
     a44:	ef 92       	push	r14
     a46:	ff 92       	push	r15
     a48:	0f 93       	push	r16
     a4a:	1f 93       	push	r17
     a4c:	7b 01       	movw	r14, r22
     a4e:	8c 01       	movw	r16, r24
     a50:	80 e0       	ldi	r24, 0x00	; 0
     a52:	e8 16       	cp	r14, r24
     a54:	80 e0       	ldi	r24, 0x00	; 0
     a56:	f8 06       	cpc	r15, r24
     a58:	81 e0       	ldi	r24, 0x01	; 1
     a5a:	08 07       	cpc	r16, r24
     a5c:	80 e0       	ldi	r24, 0x00	; 0
     a5e:	18 07       	cpc	r17, r24
     a60:	88 f4       	brcc	.+34     	; 0xa84 <__clzsi2+0x40>
     a62:	8f ef       	ldi	r24, 0xFF	; 255
     a64:	e8 16       	cp	r14, r24
     a66:	f1 04       	cpc	r15, r1
     a68:	01 05       	cpc	r16, r1
     a6a:	11 05       	cpc	r17, r1
     a6c:	31 f0       	breq	.+12     	; 0xa7a <__clzsi2+0x36>
     a6e:	28 f0       	brcs	.+10     	; 0xa7a <__clzsi2+0x36>
     a70:	88 e0       	ldi	r24, 0x08	; 8
     a72:	90 e0       	ldi	r25, 0x00	; 0
     a74:	a0 e0       	ldi	r26, 0x00	; 0
     a76:	b0 e0       	ldi	r27, 0x00	; 0
     a78:	17 c0       	rjmp	.+46     	; 0xaa8 <__clzsi2+0x64>
     a7a:	80 e0       	ldi	r24, 0x00	; 0
     a7c:	90 e0       	ldi	r25, 0x00	; 0
     a7e:	a0 e0       	ldi	r26, 0x00	; 0
     a80:	b0 e0       	ldi	r27, 0x00	; 0
     a82:	12 c0       	rjmp	.+36     	; 0xaa8 <__clzsi2+0x64>
     a84:	80 e0       	ldi	r24, 0x00	; 0
     a86:	e8 16       	cp	r14, r24
     a88:	80 e0       	ldi	r24, 0x00	; 0
     a8a:	f8 06       	cpc	r15, r24
     a8c:	80 e0       	ldi	r24, 0x00	; 0
     a8e:	08 07       	cpc	r16, r24
     a90:	81 e0       	ldi	r24, 0x01	; 1
     a92:	18 07       	cpc	r17, r24
     a94:	28 f0       	brcs	.+10     	; 0xaa0 <__clzsi2+0x5c>
     a96:	88 e1       	ldi	r24, 0x18	; 24
     a98:	90 e0       	ldi	r25, 0x00	; 0
     a9a:	a0 e0       	ldi	r26, 0x00	; 0
     a9c:	b0 e0       	ldi	r27, 0x00	; 0
     a9e:	04 c0       	rjmp	.+8      	; 0xaa8 <__clzsi2+0x64>
     aa0:	80 e1       	ldi	r24, 0x10	; 16
     aa2:	90 e0       	ldi	r25, 0x00	; 0
     aa4:	a0 e0       	ldi	r26, 0x00	; 0
     aa6:	b0 e0       	ldi	r27, 0x00	; 0
     aa8:	20 e2       	ldi	r18, 0x20	; 32
     aaa:	30 e0       	ldi	r19, 0x00	; 0
     aac:	40 e0       	ldi	r20, 0x00	; 0
     aae:	50 e0       	ldi	r21, 0x00	; 0
     ab0:	28 1b       	sub	r18, r24
     ab2:	39 0b       	sbc	r19, r25
     ab4:	4a 0b       	sbc	r20, r26
     ab6:	5b 0b       	sbc	r21, r27
     ab8:	04 c0       	rjmp	.+8      	; 0xac2 <__clzsi2+0x7e>
     aba:	16 95       	lsr	r17
     abc:	07 95       	ror	r16
     abe:	f7 94       	ror	r15
     ac0:	e7 94       	ror	r14
     ac2:	8a 95       	dec	r24
     ac4:	d2 f7       	brpl	.-12     	; 0xaba <__clzsi2+0x76>
     ac6:	f7 01       	movw	r30, r14
     ac8:	e3 5f       	subi	r30, 0xF3	; 243
     aca:	fe 4f       	sbci	r31, 0xFE	; 254
     acc:	80 81       	ld	r24, Z
     ace:	28 1b       	sub	r18, r24
     ad0:	31 09       	sbc	r19, r1
     ad2:	41 09       	sbc	r20, r1
     ad4:	51 09       	sbc	r21, r1
     ad6:	c9 01       	movw	r24, r18
     ad8:	1f 91       	pop	r17
     ada:	0f 91       	pop	r16
     adc:	ff 90       	pop	r15
     ade:	ef 90       	pop	r14
     ae0:	08 95       	ret

00000ae2 <__pack_f>:
     ae2:	df 92       	push	r13
     ae4:	ef 92       	push	r14
     ae6:	ff 92       	push	r15
     ae8:	0f 93       	push	r16
     aea:	1f 93       	push	r17
     aec:	fc 01       	movw	r30, r24
     aee:	e4 80       	ldd	r14, Z+4	; 0x04
     af0:	f5 80       	ldd	r15, Z+5	; 0x05
     af2:	06 81       	ldd	r16, Z+6	; 0x06
     af4:	17 81       	ldd	r17, Z+7	; 0x07
     af6:	d1 80       	ldd	r13, Z+1	; 0x01
     af8:	80 81       	ld	r24, Z
     afa:	82 30       	cpi	r24, 0x02	; 2
     afc:	48 f4       	brcc	.+18     	; 0xb10 <__pack_f+0x2e>
     afe:	80 e0       	ldi	r24, 0x00	; 0
     b00:	90 e0       	ldi	r25, 0x00	; 0
     b02:	a0 e1       	ldi	r26, 0x10	; 16
     b04:	b0 e0       	ldi	r27, 0x00	; 0
     b06:	e8 2a       	or	r14, r24
     b08:	f9 2a       	or	r15, r25
     b0a:	0a 2b       	or	r16, r26
     b0c:	1b 2b       	or	r17, r27
     b0e:	a5 c0       	rjmp	.+330    	; 0xc5a <__pack_f+0x178>
     b10:	84 30       	cpi	r24, 0x04	; 4
     b12:	09 f4       	brne	.+2      	; 0xb16 <__pack_f+0x34>
     b14:	9f c0       	rjmp	.+318    	; 0xc54 <__pack_f+0x172>
     b16:	82 30       	cpi	r24, 0x02	; 2
     b18:	21 f4       	brne	.+8      	; 0xb22 <__pack_f+0x40>
     b1a:	ee 24       	eor	r14, r14
     b1c:	ff 24       	eor	r15, r15
     b1e:	87 01       	movw	r16, r14
     b20:	05 c0       	rjmp	.+10     	; 0xb2c <__pack_f+0x4a>
     b22:	e1 14       	cp	r14, r1
     b24:	f1 04       	cpc	r15, r1
     b26:	01 05       	cpc	r16, r1
     b28:	11 05       	cpc	r17, r1
     b2a:	19 f4       	brne	.+6      	; 0xb32 <__pack_f+0x50>
     b2c:	e0 e0       	ldi	r30, 0x00	; 0
     b2e:	f0 e0       	ldi	r31, 0x00	; 0
     b30:	96 c0       	rjmp	.+300    	; 0xc5e <__pack_f+0x17c>
     b32:	62 81       	ldd	r22, Z+2	; 0x02
     b34:	73 81       	ldd	r23, Z+3	; 0x03
     b36:	9f ef       	ldi	r25, 0xFF	; 255
     b38:	62 38       	cpi	r22, 0x82	; 130
     b3a:	79 07       	cpc	r23, r25
     b3c:	0c f0       	brlt	.+2      	; 0xb40 <__pack_f+0x5e>
     b3e:	5b c0       	rjmp	.+182    	; 0xbf6 <__pack_f+0x114>
     b40:	22 e8       	ldi	r18, 0x82	; 130
     b42:	3f ef       	ldi	r19, 0xFF	; 255
     b44:	26 1b       	sub	r18, r22
     b46:	37 0b       	sbc	r19, r23
     b48:	2a 31       	cpi	r18, 0x1A	; 26
     b4a:	31 05       	cpc	r19, r1
     b4c:	2c f0       	brlt	.+10     	; 0xb58 <__pack_f+0x76>
     b4e:	20 e0       	ldi	r18, 0x00	; 0
     b50:	30 e0       	ldi	r19, 0x00	; 0
     b52:	40 e0       	ldi	r20, 0x00	; 0
     b54:	50 e0       	ldi	r21, 0x00	; 0
     b56:	2a c0       	rjmp	.+84     	; 0xbac <__pack_f+0xca>
     b58:	b8 01       	movw	r22, r16
     b5a:	a7 01       	movw	r20, r14
     b5c:	02 2e       	mov	r0, r18
     b5e:	04 c0       	rjmp	.+8      	; 0xb68 <__pack_f+0x86>
     b60:	76 95       	lsr	r23
     b62:	67 95       	ror	r22
     b64:	57 95       	ror	r21
     b66:	47 95       	ror	r20
     b68:	0a 94       	dec	r0
     b6a:	d2 f7       	brpl	.-12     	; 0xb60 <__pack_f+0x7e>
     b6c:	81 e0       	ldi	r24, 0x01	; 1
     b6e:	90 e0       	ldi	r25, 0x00	; 0
     b70:	a0 e0       	ldi	r26, 0x00	; 0
     b72:	b0 e0       	ldi	r27, 0x00	; 0
     b74:	04 c0       	rjmp	.+8      	; 0xb7e <__pack_f+0x9c>
     b76:	88 0f       	add	r24, r24
     b78:	99 1f       	adc	r25, r25
     b7a:	aa 1f       	adc	r26, r26
     b7c:	bb 1f       	adc	r27, r27
     b7e:	2a 95       	dec	r18
     b80:	d2 f7       	brpl	.-12     	; 0xb76 <__pack_f+0x94>
     b82:	01 97       	sbiw	r24, 0x01	; 1
     b84:	a1 09       	sbc	r26, r1
     b86:	b1 09       	sbc	r27, r1
     b88:	8e 21       	and	r24, r14
     b8a:	9f 21       	and	r25, r15
     b8c:	a0 23       	and	r26, r16
     b8e:	b1 23       	and	r27, r17
     b90:	00 97       	sbiw	r24, 0x00	; 0
     b92:	a1 05       	cpc	r26, r1
     b94:	b1 05       	cpc	r27, r1
     b96:	21 f0       	breq	.+8      	; 0xba0 <__pack_f+0xbe>
     b98:	81 e0       	ldi	r24, 0x01	; 1
     b9a:	90 e0       	ldi	r25, 0x00	; 0
     b9c:	a0 e0       	ldi	r26, 0x00	; 0
     b9e:	b0 e0       	ldi	r27, 0x00	; 0
     ba0:	9a 01       	movw	r18, r20
     ba2:	ab 01       	movw	r20, r22
     ba4:	28 2b       	or	r18, r24
     ba6:	39 2b       	or	r19, r25
     ba8:	4a 2b       	or	r20, r26
     baa:	5b 2b       	or	r21, r27
     bac:	da 01       	movw	r26, r20
     bae:	c9 01       	movw	r24, r18
     bb0:	8f 77       	andi	r24, 0x7F	; 127
     bb2:	90 70       	andi	r25, 0x00	; 0
     bb4:	a0 70       	andi	r26, 0x00	; 0
     bb6:	b0 70       	andi	r27, 0x00	; 0
     bb8:	80 34       	cpi	r24, 0x40	; 64
     bba:	91 05       	cpc	r25, r1
     bbc:	a1 05       	cpc	r26, r1
     bbe:	b1 05       	cpc	r27, r1
     bc0:	39 f4       	brne	.+14     	; 0xbd0 <__pack_f+0xee>
     bc2:	27 ff       	sbrs	r18, 7
     bc4:	09 c0       	rjmp	.+18     	; 0xbd8 <__pack_f+0xf6>
     bc6:	20 5c       	subi	r18, 0xC0	; 192
     bc8:	3f 4f       	sbci	r19, 0xFF	; 255
     bca:	4f 4f       	sbci	r20, 0xFF	; 255
     bcc:	5f 4f       	sbci	r21, 0xFF	; 255
     bce:	04 c0       	rjmp	.+8      	; 0xbd8 <__pack_f+0xf6>
     bd0:	21 5c       	subi	r18, 0xC1	; 193
     bd2:	3f 4f       	sbci	r19, 0xFF	; 255
     bd4:	4f 4f       	sbci	r20, 0xFF	; 255
     bd6:	5f 4f       	sbci	r21, 0xFF	; 255
     bd8:	e0 e0       	ldi	r30, 0x00	; 0
     bda:	f0 e0       	ldi	r31, 0x00	; 0
     bdc:	20 30       	cpi	r18, 0x00	; 0
     bde:	a0 e0       	ldi	r26, 0x00	; 0
     be0:	3a 07       	cpc	r19, r26
     be2:	a0 e0       	ldi	r26, 0x00	; 0
     be4:	4a 07       	cpc	r20, r26
     be6:	a0 e4       	ldi	r26, 0x40	; 64
     be8:	5a 07       	cpc	r21, r26
     bea:	10 f0       	brcs	.+4      	; 0xbf0 <__pack_f+0x10e>
     bec:	e1 e0       	ldi	r30, 0x01	; 1
     bee:	f0 e0       	ldi	r31, 0x00	; 0
     bf0:	79 01       	movw	r14, r18
     bf2:	8a 01       	movw	r16, r20
     bf4:	27 c0       	rjmp	.+78     	; 0xc44 <__pack_f+0x162>
     bf6:	60 38       	cpi	r22, 0x80	; 128
     bf8:	71 05       	cpc	r23, r1
     bfa:	64 f5       	brge	.+88     	; 0xc54 <__pack_f+0x172>
     bfc:	fb 01       	movw	r30, r22
     bfe:	e1 58       	subi	r30, 0x81	; 129
     c00:	ff 4f       	sbci	r31, 0xFF	; 255
     c02:	d8 01       	movw	r26, r16
     c04:	c7 01       	movw	r24, r14
     c06:	8f 77       	andi	r24, 0x7F	; 127
     c08:	90 70       	andi	r25, 0x00	; 0
     c0a:	a0 70       	andi	r26, 0x00	; 0
     c0c:	b0 70       	andi	r27, 0x00	; 0
     c0e:	80 34       	cpi	r24, 0x40	; 64
     c10:	91 05       	cpc	r25, r1
     c12:	a1 05       	cpc	r26, r1
     c14:	b1 05       	cpc	r27, r1
     c16:	39 f4       	brne	.+14     	; 0xc26 <__pack_f+0x144>
     c18:	e7 fe       	sbrs	r14, 7
     c1a:	0d c0       	rjmp	.+26     	; 0xc36 <__pack_f+0x154>
     c1c:	80 e4       	ldi	r24, 0x40	; 64
     c1e:	90 e0       	ldi	r25, 0x00	; 0
     c20:	a0 e0       	ldi	r26, 0x00	; 0
     c22:	b0 e0       	ldi	r27, 0x00	; 0
     c24:	04 c0       	rjmp	.+8      	; 0xc2e <__pack_f+0x14c>
     c26:	8f e3       	ldi	r24, 0x3F	; 63
     c28:	90 e0       	ldi	r25, 0x00	; 0
     c2a:	a0 e0       	ldi	r26, 0x00	; 0
     c2c:	b0 e0       	ldi	r27, 0x00	; 0
     c2e:	e8 0e       	add	r14, r24
     c30:	f9 1e       	adc	r15, r25
     c32:	0a 1f       	adc	r16, r26
     c34:	1b 1f       	adc	r17, r27
     c36:	17 ff       	sbrs	r17, 7
     c38:	05 c0       	rjmp	.+10     	; 0xc44 <__pack_f+0x162>
     c3a:	16 95       	lsr	r17
     c3c:	07 95       	ror	r16
     c3e:	f7 94       	ror	r15
     c40:	e7 94       	ror	r14
     c42:	31 96       	adiw	r30, 0x01	; 1
     c44:	87 e0       	ldi	r24, 0x07	; 7
     c46:	16 95       	lsr	r17
     c48:	07 95       	ror	r16
     c4a:	f7 94       	ror	r15
     c4c:	e7 94       	ror	r14
     c4e:	8a 95       	dec	r24
     c50:	d1 f7       	brne	.-12     	; 0xc46 <__pack_f+0x164>
     c52:	05 c0       	rjmp	.+10     	; 0xc5e <__pack_f+0x17c>
     c54:	ee 24       	eor	r14, r14
     c56:	ff 24       	eor	r15, r15
     c58:	87 01       	movw	r16, r14
     c5a:	ef ef       	ldi	r30, 0xFF	; 255
     c5c:	f0 e0       	ldi	r31, 0x00	; 0
     c5e:	6e 2f       	mov	r22, r30
     c60:	67 95       	ror	r22
     c62:	66 27       	eor	r22, r22
     c64:	67 95       	ror	r22
     c66:	90 2f       	mov	r25, r16
     c68:	9f 77       	andi	r25, 0x7F	; 127
     c6a:	d7 94       	ror	r13
     c6c:	dd 24       	eor	r13, r13
     c6e:	d7 94       	ror	r13
     c70:	8e 2f       	mov	r24, r30
     c72:	86 95       	lsr	r24
     c74:	49 2f       	mov	r20, r25
     c76:	46 2b       	or	r20, r22
     c78:	58 2f       	mov	r21, r24
     c7a:	5d 29       	or	r21, r13
     c7c:	b7 01       	movw	r22, r14
     c7e:	ca 01       	movw	r24, r20
     c80:	1f 91       	pop	r17
     c82:	0f 91       	pop	r16
     c84:	ff 90       	pop	r15
     c86:	ef 90       	pop	r14
     c88:	df 90       	pop	r13
     c8a:	08 95       	ret

00000c8c <__unpack_f>:
     c8c:	fc 01       	movw	r30, r24
     c8e:	db 01       	movw	r26, r22
     c90:	40 81       	ld	r20, Z
     c92:	51 81       	ldd	r21, Z+1	; 0x01
     c94:	22 81       	ldd	r18, Z+2	; 0x02
     c96:	62 2f       	mov	r22, r18
     c98:	6f 77       	andi	r22, 0x7F	; 127
     c9a:	70 e0       	ldi	r23, 0x00	; 0
     c9c:	22 1f       	adc	r18, r18
     c9e:	22 27       	eor	r18, r18
     ca0:	22 1f       	adc	r18, r18
     ca2:	93 81       	ldd	r25, Z+3	; 0x03
     ca4:	89 2f       	mov	r24, r25
     ca6:	88 0f       	add	r24, r24
     ca8:	82 2b       	or	r24, r18
     caa:	28 2f       	mov	r18, r24
     cac:	30 e0       	ldi	r19, 0x00	; 0
     cae:	99 1f       	adc	r25, r25
     cb0:	99 27       	eor	r25, r25
     cb2:	99 1f       	adc	r25, r25
     cb4:	11 96       	adiw	r26, 0x01	; 1
     cb6:	9c 93       	st	X, r25
     cb8:	11 97       	sbiw	r26, 0x01	; 1
     cba:	21 15       	cp	r18, r1
     cbc:	31 05       	cpc	r19, r1
     cbe:	a9 f5       	brne	.+106    	; 0xd2a <__unpack_f+0x9e>
     cc0:	41 15       	cp	r20, r1
     cc2:	51 05       	cpc	r21, r1
     cc4:	61 05       	cpc	r22, r1
     cc6:	71 05       	cpc	r23, r1
     cc8:	11 f4       	brne	.+4      	; 0xcce <__unpack_f+0x42>
     cca:	82 e0       	ldi	r24, 0x02	; 2
     ccc:	37 c0       	rjmp	.+110    	; 0xd3c <__unpack_f+0xb0>
     cce:	82 e8       	ldi	r24, 0x82	; 130
     cd0:	9f ef       	ldi	r25, 0xFF	; 255
     cd2:	13 96       	adiw	r26, 0x03	; 3
     cd4:	9c 93       	st	X, r25
     cd6:	8e 93       	st	-X, r24
     cd8:	12 97       	sbiw	r26, 0x02	; 2
     cda:	9a 01       	movw	r18, r20
     cdc:	ab 01       	movw	r20, r22
     cde:	67 e0       	ldi	r22, 0x07	; 7
     ce0:	22 0f       	add	r18, r18
     ce2:	33 1f       	adc	r19, r19
     ce4:	44 1f       	adc	r20, r20
     ce6:	55 1f       	adc	r21, r21
     ce8:	6a 95       	dec	r22
     cea:	d1 f7       	brne	.-12     	; 0xce0 <__unpack_f+0x54>
     cec:	83 e0       	ldi	r24, 0x03	; 3
     cee:	8c 93       	st	X, r24
     cf0:	0d c0       	rjmp	.+26     	; 0xd0c <__unpack_f+0x80>
     cf2:	22 0f       	add	r18, r18
     cf4:	33 1f       	adc	r19, r19
     cf6:	44 1f       	adc	r20, r20
     cf8:	55 1f       	adc	r21, r21
     cfa:	12 96       	adiw	r26, 0x02	; 2
     cfc:	8d 91       	ld	r24, X+
     cfe:	9c 91       	ld	r25, X
     d00:	13 97       	sbiw	r26, 0x03	; 3
     d02:	01 97       	sbiw	r24, 0x01	; 1
     d04:	13 96       	adiw	r26, 0x03	; 3
     d06:	9c 93       	st	X, r25
     d08:	8e 93       	st	-X, r24
     d0a:	12 97       	sbiw	r26, 0x02	; 2
     d0c:	20 30       	cpi	r18, 0x00	; 0
     d0e:	80 e0       	ldi	r24, 0x00	; 0
     d10:	38 07       	cpc	r19, r24
     d12:	80 e0       	ldi	r24, 0x00	; 0
     d14:	48 07       	cpc	r20, r24
     d16:	80 e4       	ldi	r24, 0x40	; 64
     d18:	58 07       	cpc	r21, r24
     d1a:	58 f3       	brcs	.-42     	; 0xcf2 <__unpack_f+0x66>
     d1c:	14 96       	adiw	r26, 0x04	; 4
     d1e:	2d 93       	st	X+, r18
     d20:	3d 93       	st	X+, r19
     d22:	4d 93       	st	X+, r20
     d24:	5c 93       	st	X, r21
     d26:	17 97       	sbiw	r26, 0x07	; 7
     d28:	08 95       	ret
     d2a:	2f 3f       	cpi	r18, 0xFF	; 255
     d2c:	31 05       	cpc	r19, r1
     d2e:	79 f4       	brne	.+30     	; 0xd4e <__unpack_f+0xc2>
     d30:	41 15       	cp	r20, r1
     d32:	51 05       	cpc	r21, r1
     d34:	61 05       	cpc	r22, r1
     d36:	71 05       	cpc	r23, r1
     d38:	19 f4       	brne	.+6      	; 0xd40 <__unpack_f+0xb4>
     d3a:	84 e0       	ldi	r24, 0x04	; 4
     d3c:	8c 93       	st	X, r24
     d3e:	08 95       	ret
     d40:	64 ff       	sbrs	r22, 4
     d42:	03 c0       	rjmp	.+6      	; 0xd4a <__unpack_f+0xbe>
     d44:	81 e0       	ldi	r24, 0x01	; 1
     d46:	8c 93       	st	X, r24
     d48:	12 c0       	rjmp	.+36     	; 0xd6e <__unpack_f+0xe2>
     d4a:	1c 92       	st	X, r1
     d4c:	10 c0       	rjmp	.+32     	; 0xd6e <__unpack_f+0xe2>
     d4e:	2f 57       	subi	r18, 0x7F	; 127
     d50:	30 40       	sbci	r19, 0x00	; 0
     d52:	13 96       	adiw	r26, 0x03	; 3
     d54:	3c 93       	st	X, r19
     d56:	2e 93       	st	-X, r18
     d58:	12 97       	sbiw	r26, 0x02	; 2
     d5a:	83 e0       	ldi	r24, 0x03	; 3
     d5c:	8c 93       	st	X, r24
     d5e:	87 e0       	ldi	r24, 0x07	; 7
     d60:	44 0f       	add	r20, r20
     d62:	55 1f       	adc	r21, r21
     d64:	66 1f       	adc	r22, r22
     d66:	77 1f       	adc	r23, r23
     d68:	8a 95       	dec	r24
     d6a:	d1 f7       	brne	.-12     	; 0xd60 <__unpack_f+0xd4>
     d6c:	70 64       	ori	r23, 0x40	; 64
     d6e:	14 96       	adiw	r26, 0x04	; 4
     d70:	4d 93       	st	X+, r20
     d72:	5d 93       	st	X+, r21
     d74:	6d 93       	st	X+, r22
     d76:	7c 93       	st	X, r23
     d78:	17 97       	sbiw	r26, 0x07	; 7
     d7a:	08 95       	ret

00000d7c <__fpcmp_parts_f>:
     d7c:	1f 93       	push	r17
     d7e:	dc 01       	movw	r26, r24
     d80:	fb 01       	movw	r30, r22
     d82:	9c 91       	ld	r25, X
     d84:	92 30       	cpi	r25, 0x02	; 2
     d86:	08 f4       	brcc	.+2      	; 0xd8a <__fpcmp_parts_f+0xe>
     d88:	47 c0       	rjmp	.+142    	; 0xe18 <__fpcmp_parts_f+0x9c>
     d8a:	80 81       	ld	r24, Z
     d8c:	82 30       	cpi	r24, 0x02	; 2
     d8e:	08 f4       	brcc	.+2      	; 0xd92 <__fpcmp_parts_f+0x16>
     d90:	43 c0       	rjmp	.+134    	; 0xe18 <__fpcmp_parts_f+0x9c>
     d92:	94 30       	cpi	r25, 0x04	; 4
     d94:	51 f4       	brne	.+20     	; 0xdaa <__fpcmp_parts_f+0x2e>
     d96:	11 96       	adiw	r26, 0x01	; 1
     d98:	1c 91       	ld	r17, X
     d9a:	84 30       	cpi	r24, 0x04	; 4
     d9c:	99 f5       	brne	.+102    	; 0xe04 <__fpcmp_parts_f+0x88>
     d9e:	81 81       	ldd	r24, Z+1	; 0x01
     da0:	68 2f       	mov	r22, r24
     da2:	70 e0       	ldi	r23, 0x00	; 0
     da4:	61 1b       	sub	r22, r17
     da6:	71 09       	sbc	r23, r1
     da8:	3f c0       	rjmp	.+126    	; 0xe28 <__fpcmp_parts_f+0xac>
     daa:	84 30       	cpi	r24, 0x04	; 4
     dac:	21 f0       	breq	.+8      	; 0xdb6 <__fpcmp_parts_f+0x3a>
     dae:	92 30       	cpi	r25, 0x02	; 2
     db0:	31 f4       	brne	.+12     	; 0xdbe <__fpcmp_parts_f+0x42>
     db2:	82 30       	cpi	r24, 0x02	; 2
     db4:	b9 f1       	breq	.+110    	; 0xe24 <__fpcmp_parts_f+0xa8>
     db6:	81 81       	ldd	r24, Z+1	; 0x01
     db8:	88 23       	and	r24, r24
     dba:	89 f1       	breq	.+98     	; 0xe1e <__fpcmp_parts_f+0xa2>
     dbc:	2d c0       	rjmp	.+90     	; 0xe18 <__fpcmp_parts_f+0x9c>
     dbe:	11 96       	adiw	r26, 0x01	; 1
     dc0:	1c 91       	ld	r17, X
     dc2:	11 97       	sbiw	r26, 0x01	; 1
     dc4:	82 30       	cpi	r24, 0x02	; 2
     dc6:	f1 f0       	breq	.+60     	; 0xe04 <__fpcmp_parts_f+0x88>
     dc8:	81 81       	ldd	r24, Z+1	; 0x01
     dca:	18 17       	cp	r17, r24
     dcc:	d9 f4       	brne	.+54     	; 0xe04 <__fpcmp_parts_f+0x88>
     dce:	12 96       	adiw	r26, 0x02	; 2
     dd0:	2d 91       	ld	r18, X+
     dd2:	3c 91       	ld	r19, X
     dd4:	13 97       	sbiw	r26, 0x03	; 3
     dd6:	82 81       	ldd	r24, Z+2	; 0x02
     dd8:	93 81       	ldd	r25, Z+3	; 0x03
     dda:	82 17       	cp	r24, r18
     ddc:	93 07       	cpc	r25, r19
     dde:	94 f0       	brlt	.+36     	; 0xe04 <__fpcmp_parts_f+0x88>
     de0:	28 17       	cp	r18, r24
     de2:	39 07       	cpc	r19, r25
     de4:	bc f0       	brlt	.+46     	; 0xe14 <__fpcmp_parts_f+0x98>
     de6:	14 96       	adiw	r26, 0x04	; 4
     de8:	8d 91       	ld	r24, X+
     dea:	9d 91       	ld	r25, X+
     dec:	0d 90       	ld	r0, X+
     dee:	bc 91       	ld	r27, X
     df0:	a0 2d       	mov	r26, r0
     df2:	24 81       	ldd	r18, Z+4	; 0x04
     df4:	35 81       	ldd	r19, Z+5	; 0x05
     df6:	46 81       	ldd	r20, Z+6	; 0x06
     df8:	57 81       	ldd	r21, Z+7	; 0x07
     dfa:	28 17       	cp	r18, r24
     dfc:	39 07       	cpc	r19, r25
     dfe:	4a 07       	cpc	r20, r26
     e00:	5b 07       	cpc	r21, r27
     e02:	18 f4       	brcc	.+6      	; 0xe0a <__fpcmp_parts_f+0x8e>
     e04:	11 23       	and	r17, r17
     e06:	41 f0       	breq	.+16     	; 0xe18 <__fpcmp_parts_f+0x9c>
     e08:	0a c0       	rjmp	.+20     	; 0xe1e <__fpcmp_parts_f+0xa2>
     e0a:	82 17       	cp	r24, r18
     e0c:	93 07       	cpc	r25, r19
     e0e:	a4 07       	cpc	r26, r20
     e10:	b5 07       	cpc	r27, r21
     e12:	40 f4       	brcc	.+16     	; 0xe24 <__fpcmp_parts_f+0xa8>
     e14:	11 23       	and	r17, r17
     e16:	19 f0       	breq	.+6      	; 0xe1e <__fpcmp_parts_f+0xa2>
     e18:	61 e0       	ldi	r22, 0x01	; 1
     e1a:	70 e0       	ldi	r23, 0x00	; 0
     e1c:	05 c0       	rjmp	.+10     	; 0xe28 <__fpcmp_parts_f+0xac>
     e1e:	6f ef       	ldi	r22, 0xFF	; 255
     e20:	7f ef       	ldi	r23, 0xFF	; 255
     e22:	02 c0       	rjmp	.+4      	; 0xe28 <__fpcmp_parts_f+0xac>
     e24:	60 e0       	ldi	r22, 0x00	; 0
     e26:	70 e0       	ldi	r23, 0x00	; 0
     e28:	cb 01       	movw	r24, r22
     e2a:	1f 91       	pop	r17
     e2c:	08 95       	ret

00000e2e <Timer1_enuInit>:
 * Function Description : Initialize Timer1 to Fast PWM Mode
 * Arguments			: copy_enTmerMode  {TIMER1_OVF_MODE,TIMER1_FAST_PWM_MODE,..... }
 * Return 				: enu_timer1Status_t {TIMER1_OK or TIMER1_NOK}
 */
enu_timer1Status_t Timer1_enuInit (enu_timer1Mode_t copy_enTmerMode)
{
     e2e:	df 93       	push	r29
     e30:	cf 93       	push	r28
     e32:	00 d0       	rcall	.+0      	; 0xe34 <Timer1_enuInit+0x6>
     e34:	00 d0       	rcall	.+0      	; 0xe36 <Timer1_enuInit+0x8>
     e36:	cd b7       	in	r28, 0x3d	; 61
     e38:	de b7       	in	r29, 0x3e	; 62
     e3a:	8a 83       	std	Y+2, r24	; 0x02
	enu_timer1Status_t errorStatus = TIMER1_OK;
     e3c:	19 82       	std	Y+1, r1	; 0x01

	if(copy_enTmerMode < TIMER1_MODE_INVALID)
     e3e:	8a 81       	ldd	r24, Y+2	; 0x02
     e40:	8f 30       	cpi	r24, 0x0F	; 15
     e42:	08 f0       	brcs	.+2      	; 0xe46 <Timer1_enuInit+0x18>
     e44:	27 c2       	rjmp	.+1102   	; 0x1294 <Timer1_enuInit+0x466>
	{
		switch (copy_enTmerMode)
     e46:	8a 81       	ldd	r24, Y+2	; 0x02
     e48:	28 2f       	mov	r18, r24
     e4a:	30 e0       	ldi	r19, 0x00	; 0
     e4c:	3c 83       	std	Y+4, r19	; 0x04
     e4e:	2b 83       	std	Y+3, r18	; 0x03
     e50:	8b 81       	ldd	r24, Y+3	; 0x03
     e52:	9c 81       	ldd	r25, Y+4	; 0x04
     e54:	87 30       	cpi	r24, 0x07	; 7
     e56:	91 05       	cpc	r25, r1
     e58:	09 f4       	brne	.+2      	; 0xe5c <Timer1_enuInit+0x2e>
     e5a:	2a c1       	rjmp	.+596    	; 0x10b0 <Timer1_enuInit+0x282>
     e5c:	2b 81       	ldd	r18, Y+3	; 0x03
     e5e:	3c 81       	ldd	r19, Y+4	; 0x04
     e60:	28 30       	cpi	r18, 0x08	; 8
     e62:	31 05       	cpc	r19, r1
     e64:	4c f5       	brge	.+82     	; 0xeb8 <Timer1_enuInit+0x8a>
     e66:	8b 81       	ldd	r24, Y+3	; 0x03
     e68:	9c 81       	ldd	r25, Y+4	; 0x04
     e6a:	83 30       	cpi	r24, 0x03	; 3
     e6c:	91 05       	cpc	r25, r1
     e6e:	09 f4       	brne	.+2      	; 0xe72 <Timer1_enuInit+0x44>
     e70:	a5 c0       	rjmp	.+330    	; 0xfbc <Timer1_enuInit+0x18e>
     e72:	2b 81       	ldd	r18, Y+3	; 0x03
     e74:	3c 81       	ldd	r19, Y+4	; 0x04
     e76:	24 30       	cpi	r18, 0x04	; 4
     e78:	31 05       	cpc	r19, r1
     e7a:	8c f4       	brge	.+34     	; 0xe9e <Timer1_enuInit+0x70>
     e7c:	8b 81       	ldd	r24, Y+3	; 0x03
     e7e:	9c 81       	ldd	r25, Y+4	; 0x04
     e80:	81 30       	cpi	r24, 0x01	; 1
     e82:	91 05       	cpc	r25, r1
     e84:	09 f4       	brne	.+2      	; 0xe88 <Timer1_enuInit+0x5a>
     e86:	60 c0       	rjmp	.+192    	; 0xf48 <Timer1_enuInit+0x11a>
     e88:	2b 81       	ldd	r18, Y+3	; 0x03
     e8a:	3c 81       	ldd	r19, Y+4	; 0x04
     e8c:	22 30       	cpi	r18, 0x02	; 2
     e8e:	31 05       	cpc	r19, r1
     e90:	0c f0       	brlt	.+2      	; 0xe94 <Timer1_enuInit+0x66>
     e92:	77 c0       	rjmp	.+238    	; 0xf82 <Timer1_enuInit+0x154>
     e94:	8b 81       	ldd	r24, Y+3	; 0x03
     e96:	9c 81       	ldd	r25, Y+4	; 0x04
     e98:	00 97       	sbiw	r24, 0x00	; 0
     e9a:	c9 f1       	breq	.+114    	; 0xf0e <Timer1_enuInit+0xe0>
     e9c:	f6 c1       	rjmp	.+1004   	; 0x128a <Timer1_enuInit+0x45c>
     e9e:	2b 81       	ldd	r18, Y+3	; 0x03
     ea0:	3c 81       	ldd	r19, Y+4	; 0x04
     ea2:	25 30       	cpi	r18, 0x05	; 5
     ea4:	31 05       	cpc	r19, r1
     ea6:	09 f4       	brne	.+2      	; 0xeaa <Timer1_enuInit+0x7c>
     ea8:	c3 c0       	rjmp	.+390    	; 0x1030 <Timer1_enuInit+0x202>
     eaa:	8b 81       	ldd	r24, Y+3	; 0x03
     eac:	9c 81       	ldd	r25, Y+4	; 0x04
     eae:	86 30       	cpi	r24, 0x06	; 6
     eb0:	91 05       	cpc	r25, r1
     eb2:	0c f0       	brlt	.+2      	; 0xeb6 <Timer1_enuInit+0x88>
     eb4:	dd c0       	rjmp	.+442    	; 0x1070 <Timer1_enuInit+0x242>
     eb6:	9f c0       	rjmp	.+318    	; 0xff6 <Timer1_enuInit+0x1c8>
     eb8:	2b 81       	ldd	r18, Y+3	; 0x03
     eba:	3c 81       	ldd	r19, Y+4	; 0x04
     ebc:	2b 30       	cpi	r18, 0x0B	; 11
     ebe:	31 05       	cpc	r19, r1
     ec0:	09 f4       	brne	.+2      	; 0xec4 <Timer1_enuInit+0x96>
     ec2:	6d c1       	rjmp	.+730    	; 0x119e <Timer1_enuInit+0x370>
     ec4:	8b 81       	ldd	r24, Y+3	; 0x03
     ec6:	9c 81       	ldd	r25, Y+4	; 0x04
     ec8:	8c 30       	cpi	r24, 0x0C	; 12
     eca:	91 05       	cpc	r25, r1
     ecc:	6c f4       	brge	.+26     	; 0xee8 <Timer1_enuInit+0xba>
     ece:	2b 81       	ldd	r18, Y+3	; 0x03
     ed0:	3c 81       	ldd	r19, Y+4	; 0x04
     ed2:	29 30       	cpi	r18, 0x09	; 9
     ed4:	31 05       	cpc	r19, r1
     ed6:	09 f4       	brne	.+2      	; 0xeda <Timer1_enuInit+0xac>
     ed8:	28 c1       	rjmp	.+592    	; 0x112a <Timer1_enuInit+0x2fc>
     eda:	8b 81       	ldd	r24, Y+3	; 0x03
     edc:	9c 81       	ldd	r25, Y+4	; 0x04
     ede:	8a 30       	cpi	r24, 0x0A	; 10
     ee0:	91 05       	cpc	r25, r1
     ee2:	0c f0       	brlt	.+2      	; 0xee6 <Timer1_enuInit+0xb8>
     ee4:	3f c1       	rjmp	.+638    	; 0x1164 <Timer1_enuInit+0x336>
     ee6:	04 c1       	rjmp	.+520    	; 0x10f0 <Timer1_enuInit+0x2c2>
     ee8:	2b 81       	ldd	r18, Y+3	; 0x03
     eea:	3c 81       	ldd	r19, Y+4	; 0x04
     eec:	2d 30       	cpi	r18, 0x0D	; 13
     eee:	31 05       	cpc	r19, r1
     ef0:	09 f4       	brne	.+2      	; 0xef4 <Timer1_enuInit+0xc6>
     ef2:	8f c1       	rjmp	.+798    	; 0x1212 <Timer1_enuInit+0x3e4>
     ef4:	8b 81       	ldd	r24, Y+3	; 0x03
     ef6:	9c 81       	ldd	r25, Y+4	; 0x04
     ef8:	8d 30       	cpi	r24, 0x0D	; 13
     efa:	91 05       	cpc	r25, r1
     efc:	0c f4       	brge	.+2      	; 0xf00 <Timer1_enuInit+0xd2>
     efe:	6c c1       	rjmp	.+728    	; 0x11d8 <Timer1_enuInit+0x3aa>
     f00:	2b 81       	ldd	r18, Y+3	; 0x03
     f02:	3c 81       	ldd	r19, Y+4	; 0x04
     f04:	2e 30       	cpi	r18, 0x0E	; 14
     f06:	31 05       	cpc	r19, r1
     f08:	09 f4       	brne	.+2      	; 0xf0c <Timer1_enuInit+0xde>
     f0a:	a3 c1       	rjmp	.+838    	; 0x1252 <Timer1_enuInit+0x424>
     f0c:	be c1       	rjmp	.+892    	; 0x128a <Timer1_enuInit+0x45c>
		{
			case TIMER1_NORMAL_0xFFFF				: ClrBit(TCCR1B_REG, WGM13); ClrBit(TCCR1B_REG, WGM12); ClrBit(TCCR1A_REG, WGM11); ClrBit(TCCR1A_REG, WGM10); break;
     f0e:	ae e4       	ldi	r26, 0x4E	; 78
     f10:	b0 e0       	ldi	r27, 0x00	; 0
     f12:	ee e4       	ldi	r30, 0x4E	; 78
     f14:	f0 e0       	ldi	r31, 0x00	; 0
     f16:	80 81       	ld	r24, Z
     f18:	8f 7e       	andi	r24, 0xEF	; 239
     f1a:	8c 93       	st	X, r24
     f1c:	ae e4       	ldi	r26, 0x4E	; 78
     f1e:	b0 e0       	ldi	r27, 0x00	; 0
     f20:	ee e4       	ldi	r30, 0x4E	; 78
     f22:	f0 e0       	ldi	r31, 0x00	; 0
     f24:	80 81       	ld	r24, Z
     f26:	87 7f       	andi	r24, 0xF7	; 247
     f28:	8c 93       	st	X, r24
     f2a:	af e4       	ldi	r26, 0x4F	; 79
     f2c:	b0 e0       	ldi	r27, 0x00	; 0
     f2e:	ef e4       	ldi	r30, 0x4F	; 79
     f30:	f0 e0       	ldi	r31, 0x00	; 0
     f32:	80 81       	ld	r24, Z
     f34:	8d 7f       	andi	r24, 0xFD	; 253
     f36:	8c 93       	st	X, r24
     f38:	af e4       	ldi	r26, 0x4F	; 79
     f3a:	b0 e0       	ldi	r27, 0x00	; 0
     f3c:	ef e4       	ldi	r30, 0x4F	; 79
     f3e:	f0 e0       	ldi	r31, 0x00	; 0
     f40:	80 81       	ld	r24, Z
     f42:	8e 7f       	andi	r24, 0xFE	; 254
     f44:	8c 93       	st	X, r24
     f46:	a1 c1       	rjmp	.+834    	; 0x128a <Timer1_enuInit+0x45c>
			case TIMER1_PWM_PHASE_CORRECT_8_0x00FF	: ClrBit(TCCR1B_REG, WGM13); ClrBit(TCCR1B_REG, WGM12); ClrBit(TCCR1A_REG, WGM11); SetBit(TCCR1A_REG, WGM10); break;
     f48:	ae e4       	ldi	r26, 0x4E	; 78
     f4a:	b0 e0       	ldi	r27, 0x00	; 0
     f4c:	ee e4       	ldi	r30, 0x4E	; 78
     f4e:	f0 e0       	ldi	r31, 0x00	; 0
     f50:	80 81       	ld	r24, Z
     f52:	8f 7e       	andi	r24, 0xEF	; 239
     f54:	8c 93       	st	X, r24
     f56:	ae e4       	ldi	r26, 0x4E	; 78
     f58:	b0 e0       	ldi	r27, 0x00	; 0
     f5a:	ee e4       	ldi	r30, 0x4E	; 78
     f5c:	f0 e0       	ldi	r31, 0x00	; 0
     f5e:	80 81       	ld	r24, Z
     f60:	87 7f       	andi	r24, 0xF7	; 247
     f62:	8c 93       	st	X, r24
     f64:	af e4       	ldi	r26, 0x4F	; 79
     f66:	b0 e0       	ldi	r27, 0x00	; 0
     f68:	ef e4       	ldi	r30, 0x4F	; 79
     f6a:	f0 e0       	ldi	r31, 0x00	; 0
     f6c:	80 81       	ld	r24, Z
     f6e:	8d 7f       	andi	r24, 0xFD	; 253
     f70:	8c 93       	st	X, r24
     f72:	af e4       	ldi	r26, 0x4F	; 79
     f74:	b0 e0       	ldi	r27, 0x00	; 0
     f76:	ef e4       	ldi	r30, 0x4F	; 79
     f78:	f0 e0       	ldi	r31, 0x00	; 0
     f7a:	80 81       	ld	r24, Z
     f7c:	81 60       	ori	r24, 0x01	; 1
     f7e:	8c 93       	st	X, r24
     f80:	84 c1       	rjmp	.+776    	; 0x128a <Timer1_enuInit+0x45c>
			case TIMER1_PWM_PHASE_CORRECT_9_0x01FF	: ClrBit(TCCR1B_REG, WGM13); ClrBit(TCCR1B_REG, WGM12); SetBit(TCCR1A_REG, WGM11); ClrBit(TCCR1A_REG, WGM10); break;
     f82:	ae e4       	ldi	r26, 0x4E	; 78
     f84:	b0 e0       	ldi	r27, 0x00	; 0
     f86:	ee e4       	ldi	r30, 0x4E	; 78
     f88:	f0 e0       	ldi	r31, 0x00	; 0
     f8a:	80 81       	ld	r24, Z
     f8c:	8f 7e       	andi	r24, 0xEF	; 239
     f8e:	8c 93       	st	X, r24
     f90:	ae e4       	ldi	r26, 0x4E	; 78
     f92:	b0 e0       	ldi	r27, 0x00	; 0
     f94:	ee e4       	ldi	r30, 0x4E	; 78
     f96:	f0 e0       	ldi	r31, 0x00	; 0
     f98:	80 81       	ld	r24, Z
     f9a:	87 7f       	andi	r24, 0xF7	; 247
     f9c:	8c 93       	st	X, r24
     f9e:	af e4       	ldi	r26, 0x4F	; 79
     fa0:	b0 e0       	ldi	r27, 0x00	; 0
     fa2:	ef e4       	ldi	r30, 0x4F	; 79
     fa4:	f0 e0       	ldi	r31, 0x00	; 0
     fa6:	80 81       	ld	r24, Z
     fa8:	82 60       	ori	r24, 0x02	; 2
     faa:	8c 93       	st	X, r24
     fac:	af e4       	ldi	r26, 0x4F	; 79
     fae:	b0 e0       	ldi	r27, 0x00	; 0
     fb0:	ef e4       	ldi	r30, 0x4F	; 79
     fb2:	f0 e0       	ldi	r31, 0x00	; 0
     fb4:	80 81       	ld	r24, Z
     fb6:	8e 7f       	andi	r24, 0xFE	; 254
     fb8:	8c 93       	st	X, r24
     fba:	67 c1       	rjmp	.+718    	; 0x128a <Timer1_enuInit+0x45c>
			case TIMER1_PWM_PHASE_CORRECT_10_0x03FF	: ClrBit(TCCR1B_REG, WGM13); ClrBit(TCCR1B_REG, WGM12); SetBit(TCCR1A_REG, WGM11); SetBit(TCCR1A_REG, WGM10); break;
     fbc:	ae e4       	ldi	r26, 0x4E	; 78
     fbe:	b0 e0       	ldi	r27, 0x00	; 0
     fc0:	ee e4       	ldi	r30, 0x4E	; 78
     fc2:	f0 e0       	ldi	r31, 0x00	; 0
     fc4:	80 81       	ld	r24, Z
     fc6:	8f 7e       	andi	r24, 0xEF	; 239
     fc8:	8c 93       	st	X, r24
     fca:	ae e4       	ldi	r26, 0x4E	; 78
     fcc:	b0 e0       	ldi	r27, 0x00	; 0
     fce:	ee e4       	ldi	r30, 0x4E	; 78
     fd0:	f0 e0       	ldi	r31, 0x00	; 0
     fd2:	80 81       	ld	r24, Z
     fd4:	87 7f       	andi	r24, 0xF7	; 247
     fd6:	8c 93       	st	X, r24
     fd8:	af e4       	ldi	r26, 0x4F	; 79
     fda:	b0 e0       	ldi	r27, 0x00	; 0
     fdc:	ef e4       	ldi	r30, 0x4F	; 79
     fde:	f0 e0       	ldi	r31, 0x00	; 0
     fe0:	80 81       	ld	r24, Z
     fe2:	82 60       	ori	r24, 0x02	; 2
     fe4:	8c 93       	st	X, r24
     fe6:	af e4       	ldi	r26, 0x4F	; 79
     fe8:	b0 e0       	ldi	r27, 0x00	; 0
     fea:	ef e4       	ldi	r30, 0x4F	; 79
     fec:	f0 e0       	ldi	r31, 0x00	; 0
     fee:	80 81       	ld	r24, Z
     ff0:	81 60       	ori	r24, 0x01	; 1
     ff2:	8c 93       	st	X, r24
     ff4:	4a c1       	rjmp	.+660    	; 0x128a <Timer1_enuInit+0x45c>
			case TIMER1_CTC_OCR1A					: ClrBit(TCCR1B_REG, WGM13); SetBit(TCCR1B_REG, WGM12); ClrBit(TCCR1A_REG, WGM11); ClrBit(TCCR1A_REG, WGM10); break;
     ff6:	ae e4       	ldi	r26, 0x4E	; 78
     ff8:	b0 e0       	ldi	r27, 0x00	; 0
     ffa:	ee e4       	ldi	r30, 0x4E	; 78
     ffc:	f0 e0       	ldi	r31, 0x00	; 0
     ffe:	80 81       	ld	r24, Z
    1000:	8f 7e       	andi	r24, 0xEF	; 239
    1002:	8c 93       	st	X, r24
    1004:	ae e4       	ldi	r26, 0x4E	; 78
    1006:	b0 e0       	ldi	r27, 0x00	; 0
    1008:	ee e4       	ldi	r30, 0x4E	; 78
    100a:	f0 e0       	ldi	r31, 0x00	; 0
    100c:	80 81       	ld	r24, Z
    100e:	88 60       	ori	r24, 0x08	; 8
    1010:	8c 93       	st	X, r24
    1012:	af e4       	ldi	r26, 0x4F	; 79
    1014:	b0 e0       	ldi	r27, 0x00	; 0
    1016:	ef e4       	ldi	r30, 0x4F	; 79
    1018:	f0 e0       	ldi	r31, 0x00	; 0
    101a:	80 81       	ld	r24, Z
    101c:	8d 7f       	andi	r24, 0xFD	; 253
    101e:	8c 93       	st	X, r24
    1020:	af e4       	ldi	r26, 0x4F	; 79
    1022:	b0 e0       	ldi	r27, 0x00	; 0
    1024:	ef e4       	ldi	r30, 0x4F	; 79
    1026:	f0 e0       	ldi	r31, 0x00	; 0
    1028:	80 81       	ld	r24, Z
    102a:	8e 7f       	andi	r24, 0xFE	; 254
    102c:	8c 93       	st	X, r24
    102e:	2d c1       	rjmp	.+602    	; 0x128a <Timer1_enuInit+0x45c>
			case TIMER1_FAST_PWM_8_0x00FF			: ClrBit(TCCR1B_REG, WGM13); SetBit(TCCR1B_REG, WGM12); ClrBit(TCCR1A_REG, WGM11); SetBit(TCCR1A_REG, WGM10); gen_PwmMode =TIMER1_FAST_PWM_8_0x00FF;  break;
    1030:	ae e4       	ldi	r26, 0x4E	; 78
    1032:	b0 e0       	ldi	r27, 0x00	; 0
    1034:	ee e4       	ldi	r30, 0x4E	; 78
    1036:	f0 e0       	ldi	r31, 0x00	; 0
    1038:	80 81       	ld	r24, Z
    103a:	8f 7e       	andi	r24, 0xEF	; 239
    103c:	8c 93       	st	X, r24
    103e:	ae e4       	ldi	r26, 0x4E	; 78
    1040:	b0 e0       	ldi	r27, 0x00	; 0
    1042:	ee e4       	ldi	r30, 0x4E	; 78
    1044:	f0 e0       	ldi	r31, 0x00	; 0
    1046:	80 81       	ld	r24, Z
    1048:	88 60       	ori	r24, 0x08	; 8
    104a:	8c 93       	st	X, r24
    104c:	af e4       	ldi	r26, 0x4F	; 79
    104e:	b0 e0       	ldi	r27, 0x00	; 0
    1050:	ef e4       	ldi	r30, 0x4F	; 79
    1052:	f0 e0       	ldi	r31, 0x00	; 0
    1054:	80 81       	ld	r24, Z
    1056:	8d 7f       	andi	r24, 0xFD	; 253
    1058:	8c 93       	st	X, r24
    105a:	af e4       	ldi	r26, 0x4F	; 79
    105c:	b0 e0       	ldi	r27, 0x00	; 0
    105e:	ef e4       	ldi	r30, 0x4F	; 79
    1060:	f0 e0       	ldi	r31, 0x00	; 0
    1062:	80 81       	ld	r24, Z
    1064:	81 60       	ori	r24, 0x01	; 1
    1066:	8c 93       	st	X, r24
    1068:	85 e0       	ldi	r24, 0x05	; 5
    106a:	80 93 f8 03 	sts	0x03F8, r24
    106e:	0d c1       	rjmp	.+538    	; 0x128a <Timer1_enuInit+0x45c>
			case TIMER1_FAST_PWM_9_0x01FF			: ClrBit(TCCR1B_REG, WGM13); SetBit(TCCR1B_REG, WGM12); SetBit(TCCR1A_REG, WGM11); ClrBit(TCCR1A_REG, WGM10); gen_PwmMode =TIMER1_FAST_PWM_9_0x01FF;  break;
    1070:	ae e4       	ldi	r26, 0x4E	; 78
    1072:	b0 e0       	ldi	r27, 0x00	; 0
    1074:	ee e4       	ldi	r30, 0x4E	; 78
    1076:	f0 e0       	ldi	r31, 0x00	; 0
    1078:	80 81       	ld	r24, Z
    107a:	8f 7e       	andi	r24, 0xEF	; 239
    107c:	8c 93       	st	X, r24
    107e:	ae e4       	ldi	r26, 0x4E	; 78
    1080:	b0 e0       	ldi	r27, 0x00	; 0
    1082:	ee e4       	ldi	r30, 0x4E	; 78
    1084:	f0 e0       	ldi	r31, 0x00	; 0
    1086:	80 81       	ld	r24, Z
    1088:	88 60       	ori	r24, 0x08	; 8
    108a:	8c 93       	st	X, r24
    108c:	af e4       	ldi	r26, 0x4F	; 79
    108e:	b0 e0       	ldi	r27, 0x00	; 0
    1090:	ef e4       	ldi	r30, 0x4F	; 79
    1092:	f0 e0       	ldi	r31, 0x00	; 0
    1094:	80 81       	ld	r24, Z
    1096:	82 60       	ori	r24, 0x02	; 2
    1098:	8c 93       	st	X, r24
    109a:	af e4       	ldi	r26, 0x4F	; 79
    109c:	b0 e0       	ldi	r27, 0x00	; 0
    109e:	ef e4       	ldi	r30, 0x4F	; 79
    10a0:	f0 e0       	ldi	r31, 0x00	; 0
    10a2:	80 81       	ld	r24, Z
    10a4:	8e 7f       	andi	r24, 0xFE	; 254
    10a6:	8c 93       	st	X, r24
    10a8:	86 e0       	ldi	r24, 0x06	; 6
    10aa:	80 93 f8 03 	sts	0x03F8, r24
    10ae:	ed c0       	rjmp	.+474    	; 0x128a <Timer1_enuInit+0x45c>
			case TIMER1_FAST_PWM_10_0x03FF			: ClrBit(TCCR1B_REG, WGM13); SetBit(TCCR1B_REG, WGM12); SetBit(TCCR1A_REG, WGM11); SetBit(TCCR1A_REG, WGM10); gen_PwmMode =TIMER1_FAST_PWM_10_0x03FF; break;
    10b0:	ae e4       	ldi	r26, 0x4E	; 78
    10b2:	b0 e0       	ldi	r27, 0x00	; 0
    10b4:	ee e4       	ldi	r30, 0x4E	; 78
    10b6:	f0 e0       	ldi	r31, 0x00	; 0
    10b8:	80 81       	ld	r24, Z
    10ba:	8f 7e       	andi	r24, 0xEF	; 239
    10bc:	8c 93       	st	X, r24
    10be:	ae e4       	ldi	r26, 0x4E	; 78
    10c0:	b0 e0       	ldi	r27, 0x00	; 0
    10c2:	ee e4       	ldi	r30, 0x4E	; 78
    10c4:	f0 e0       	ldi	r31, 0x00	; 0
    10c6:	80 81       	ld	r24, Z
    10c8:	88 60       	ori	r24, 0x08	; 8
    10ca:	8c 93       	st	X, r24
    10cc:	af e4       	ldi	r26, 0x4F	; 79
    10ce:	b0 e0       	ldi	r27, 0x00	; 0
    10d0:	ef e4       	ldi	r30, 0x4F	; 79
    10d2:	f0 e0       	ldi	r31, 0x00	; 0
    10d4:	80 81       	ld	r24, Z
    10d6:	82 60       	ori	r24, 0x02	; 2
    10d8:	8c 93       	st	X, r24
    10da:	af e4       	ldi	r26, 0x4F	; 79
    10dc:	b0 e0       	ldi	r27, 0x00	; 0
    10de:	ef e4       	ldi	r30, 0x4F	; 79
    10e0:	f0 e0       	ldi	r31, 0x00	; 0
    10e2:	80 81       	ld	r24, Z
    10e4:	81 60       	ori	r24, 0x01	; 1
    10e6:	8c 93       	st	X, r24
    10e8:	87 e0       	ldi	r24, 0x07	; 7
    10ea:	80 93 f8 03 	sts	0x03F8, r24
    10ee:	cd c0       	rjmp	.+410    	; 0x128a <Timer1_enuInit+0x45c>
			case TIMER1_PWM_PHASE_FREQ_CORRECT_ICR1	: SetBit(TCCR1B_REG, WGM13); ClrBit(TCCR1B_REG, WGM12); ClrBit(TCCR1A_REG, WGM11); ClrBit(TCCR1A_REG, WGM10); break;
    10f0:	ae e4       	ldi	r26, 0x4E	; 78
    10f2:	b0 e0       	ldi	r27, 0x00	; 0
    10f4:	ee e4       	ldi	r30, 0x4E	; 78
    10f6:	f0 e0       	ldi	r31, 0x00	; 0
    10f8:	80 81       	ld	r24, Z
    10fa:	80 61       	ori	r24, 0x10	; 16
    10fc:	8c 93       	st	X, r24
    10fe:	ae e4       	ldi	r26, 0x4E	; 78
    1100:	b0 e0       	ldi	r27, 0x00	; 0
    1102:	ee e4       	ldi	r30, 0x4E	; 78
    1104:	f0 e0       	ldi	r31, 0x00	; 0
    1106:	80 81       	ld	r24, Z
    1108:	87 7f       	andi	r24, 0xF7	; 247
    110a:	8c 93       	st	X, r24
    110c:	af e4       	ldi	r26, 0x4F	; 79
    110e:	b0 e0       	ldi	r27, 0x00	; 0
    1110:	ef e4       	ldi	r30, 0x4F	; 79
    1112:	f0 e0       	ldi	r31, 0x00	; 0
    1114:	80 81       	ld	r24, Z
    1116:	8d 7f       	andi	r24, 0xFD	; 253
    1118:	8c 93       	st	X, r24
    111a:	af e4       	ldi	r26, 0x4F	; 79
    111c:	b0 e0       	ldi	r27, 0x00	; 0
    111e:	ef e4       	ldi	r30, 0x4F	; 79
    1120:	f0 e0       	ldi	r31, 0x00	; 0
    1122:	80 81       	ld	r24, Z
    1124:	8e 7f       	andi	r24, 0xFE	; 254
    1126:	8c 93       	st	X, r24
    1128:	b0 c0       	rjmp	.+352    	; 0x128a <Timer1_enuInit+0x45c>
			case TIMER1_PWM_PHASE_FREQ_CORRECT_OCR1A: SetBit(TCCR1B_REG, WGM13); ClrBit(TCCR1B_REG, WGM12); ClrBit(TCCR1A_REG, WGM11); SetBit(TCCR1A_REG, WGM10); break;
    112a:	ae e4       	ldi	r26, 0x4E	; 78
    112c:	b0 e0       	ldi	r27, 0x00	; 0
    112e:	ee e4       	ldi	r30, 0x4E	; 78
    1130:	f0 e0       	ldi	r31, 0x00	; 0
    1132:	80 81       	ld	r24, Z
    1134:	80 61       	ori	r24, 0x10	; 16
    1136:	8c 93       	st	X, r24
    1138:	ae e4       	ldi	r26, 0x4E	; 78
    113a:	b0 e0       	ldi	r27, 0x00	; 0
    113c:	ee e4       	ldi	r30, 0x4E	; 78
    113e:	f0 e0       	ldi	r31, 0x00	; 0
    1140:	80 81       	ld	r24, Z
    1142:	87 7f       	andi	r24, 0xF7	; 247
    1144:	8c 93       	st	X, r24
    1146:	af e4       	ldi	r26, 0x4F	; 79
    1148:	b0 e0       	ldi	r27, 0x00	; 0
    114a:	ef e4       	ldi	r30, 0x4F	; 79
    114c:	f0 e0       	ldi	r31, 0x00	; 0
    114e:	80 81       	ld	r24, Z
    1150:	8d 7f       	andi	r24, 0xFD	; 253
    1152:	8c 93       	st	X, r24
    1154:	af e4       	ldi	r26, 0x4F	; 79
    1156:	b0 e0       	ldi	r27, 0x00	; 0
    1158:	ef e4       	ldi	r30, 0x4F	; 79
    115a:	f0 e0       	ldi	r31, 0x00	; 0
    115c:	80 81       	ld	r24, Z
    115e:	81 60       	ori	r24, 0x01	; 1
    1160:	8c 93       	st	X, r24
    1162:	93 c0       	rjmp	.+294    	; 0x128a <Timer1_enuInit+0x45c>
			case TIMER1_PWM_PHASE_CORRECT_ICR1		: SetBit(TCCR1B_REG, WGM13); ClrBit(TCCR1B_REG, WGM12); SetBit(TCCR1A_REG, WGM11); ClrBit(TCCR1A_REG, WGM10); break;
    1164:	ae e4       	ldi	r26, 0x4E	; 78
    1166:	b0 e0       	ldi	r27, 0x00	; 0
    1168:	ee e4       	ldi	r30, 0x4E	; 78
    116a:	f0 e0       	ldi	r31, 0x00	; 0
    116c:	80 81       	ld	r24, Z
    116e:	80 61       	ori	r24, 0x10	; 16
    1170:	8c 93       	st	X, r24
    1172:	ae e4       	ldi	r26, 0x4E	; 78
    1174:	b0 e0       	ldi	r27, 0x00	; 0
    1176:	ee e4       	ldi	r30, 0x4E	; 78
    1178:	f0 e0       	ldi	r31, 0x00	; 0
    117a:	80 81       	ld	r24, Z
    117c:	87 7f       	andi	r24, 0xF7	; 247
    117e:	8c 93       	st	X, r24
    1180:	af e4       	ldi	r26, 0x4F	; 79
    1182:	b0 e0       	ldi	r27, 0x00	; 0
    1184:	ef e4       	ldi	r30, 0x4F	; 79
    1186:	f0 e0       	ldi	r31, 0x00	; 0
    1188:	80 81       	ld	r24, Z
    118a:	82 60       	ori	r24, 0x02	; 2
    118c:	8c 93       	st	X, r24
    118e:	af e4       	ldi	r26, 0x4F	; 79
    1190:	b0 e0       	ldi	r27, 0x00	; 0
    1192:	ef e4       	ldi	r30, 0x4F	; 79
    1194:	f0 e0       	ldi	r31, 0x00	; 0
    1196:	80 81       	ld	r24, Z
    1198:	8e 7f       	andi	r24, 0xFE	; 254
    119a:	8c 93       	st	X, r24
    119c:	76 c0       	rjmp	.+236    	; 0x128a <Timer1_enuInit+0x45c>
			case TIMER1_PWM_PHASE_CORRECT_OCR1A		: SetBit(TCCR1B_REG, WGM13); ClrBit(TCCR1B_REG, WGM12); SetBit(TCCR1A_REG, WGM11); SetBit(TCCR1A_REG, WGM10); break;
    119e:	ae e4       	ldi	r26, 0x4E	; 78
    11a0:	b0 e0       	ldi	r27, 0x00	; 0
    11a2:	ee e4       	ldi	r30, 0x4E	; 78
    11a4:	f0 e0       	ldi	r31, 0x00	; 0
    11a6:	80 81       	ld	r24, Z
    11a8:	80 61       	ori	r24, 0x10	; 16
    11aa:	8c 93       	st	X, r24
    11ac:	ae e4       	ldi	r26, 0x4E	; 78
    11ae:	b0 e0       	ldi	r27, 0x00	; 0
    11b0:	ee e4       	ldi	r30, 0x4E	; 78
    11b2:	f0 e0       	ldi	r31, 0x00	; 0
    11b4:	80 81       	ld	r24, Z
    11b6:	87 7f       	andi	r24, 0xF7	; 247
    11b8:	8c 93       	st	X, r24
    11ba:	af e4       	ldi	r26, 0x4F	; 79
    11bc:	b0 e0       	ldi	r27, 0x00	; 0
    11be:	ef e4       	ldi	r30, 0x4F	; 79
    11c0:	f0 e0       	ldi	r31, 0x00	; 0
    11c2:	80 81       	ld	r24, Z
    11c4:	82 60       	ori	r24, 0x02	; 2
    11c6:	8c 93       	st	X, r24
    11c8:	af e4       	ldi	r26, 0x4F	; 79
    11ca:	b0 e0       	ldi	r27, 0x00	; 0
    11cc:	ef e4       	ldi	r30, 0x4F	; 79
    11ce:	f0 e0       	ldi	r31, 0x00	; 0
    11d0:	80 81       	ld	r24, Z
    11d2:	81 60       	ori	r24, 0x01	; 1
    11d4:	8c 93       	st	X, r24
    11d6:	59 c0       	rjmp	.+178    	; 0x128a <Timer1_enuInit+0x45c>
			case TIMER1_CTC_ICR1					: SetBit(TCCR1B_REG, WGM13); SetBit(TCCR1B_REG, WGM12); ClrBit(TCCR1A_REG, WGM11); ClrBit(TCCR1A_REG, WGM10); break;
    11d8:	ae e4       	ldi	r26, 0x4E	; 78
    11da:	b0 e0       	ldi	r27, 0x00	; 0
    11dc:	ee e4       	ldi	r30, 0x4E	; 78
    11de:	f0 e0       	ldi	r31, 0x00	; 0
    11e0:	80 81       	ld	r24, Z
    11e2:	80 61       	ori	r24, 0x10	; 16
    11e4:	8c 93       	st	X, r24
    11e6:	ae e4       	ldi	r26, 0x4E	; 78
    11e8:	b0 e0       	ldi	r27, 0x00	; 0
    11ea:	ee e4       	ldi	r30, 0x4E	; 78
    11ec:	f0 e0       	ldi	r31, 0x00	; 0
    11ee:	80 81       	ld	r24, Z
    11f0:	88 60       	ori	r24, 0x08	; 8
    11f2:	8c 93       	st	X, r24
    11f4:	af e4       	ldi	r26, 0x4F	; 79
    11f6:	b0 e0       	ldi	r27, 0x00	; 0
    11f8:	ef e4       	ldi	r30, 0x4F	; 79
    11fa:	f0 e0       	ldi	r31, 0x00	; 0
    11fc:	80 81       	ld	r24, Z
    11fe:	8d 7f       	andi	r24, 0xFD	; 253
    1200:	8c 93       	st	X, r24
    1202:	af e4       	ldi	r26, 0x4F	; 79
    1204:	b0 e0       	ldi	r27, 0x00	; 0
    1206:	ef e4       	ldi	r30, 0x4F	; 79
    1208:	f0 e0       	ldi	r31, 0x00	; 0
    120a:	80 81       	ld	r24, Z
    120c:	8e 7f       	andi	r24, 0xFE	; 254
    120e:	8c 93       	st	X, r24
    1210:	3c c0       	rjmp	.+120    	; 0x128a <Timer1_enuInit+0x45c>
			case TIMER1_FAST_PWM_ICR1				: SetBit(TCCR1B_REG, WGM13); SetBit(TCCR1B_REG, WGM12); SetBit(TCCR1A_REG, WGM11); ClrBit(TCCR1A_REG, WGM10); gen_PwmMode =TIMER1_FAST_PWM_ICR1;  break;
    1212:	ae e4       	ldi	r26, 0x4E	; 78
    1214:	b0 e0       	ldi	r27, 0x00	; 0
    1216:	ee e4       	ldi	r30, 0x4E	; 78
    1218:	f0 e0       	ldi	r31, 0x00	; 0
    121a:	80 81       	ld	r24, Z
    121c:	80 61       	ori	r24, 0x10	; 16
    121e:	8c 93       	st	X, r24
    1220:	ae e4       	ldi	r26, 0x4E	; 78
    1222:	b0 e0       	ldi	r27, 0x00	; 0
    1224:	ee e4       	ldi	r30, 0x4E	; 78
    1226:	f0 e0       	ldi	r31, 0x00	; 0
    1228:	80 81       	ld	r24, Z
    122a:	88 60       	ori	r24, 0x08	; 8
    122c:	8c 93       	st	X, r24
    122e:	af e4       	ldi	r26, 0x4F	; 79
    1230:	b0 e0       	ldi	r27, 0x00	; 0
    1232:	ef e4       	ldi	r30, 0x4F	; 79
    1234:	f0 e0       	ldi	r31, 0x00	; 0
    1236:	80 81       	ld	r24, Z
    1238:	82 60       	ori	r24, 0x02	; 2
    123a:	8c 93       	st	X, r24
    123c:	af e4       	ldi	r26, 0x4F	; 79
    123e:	b0 e0       	ldi	r27, 0x00	; 0
    1240:	ef e4       	ldi	r30, 0x4F	; 79
    1242:	f0 e0       	ldi	r31, 0x00	; 0
    1244:	80 81       	ld	r24, Z
    1246:	8e 7f       	andi	r24, 0xFE	; 254
    1248:	8c 93       	st	X, r24
    124a:	8d e0       	ldi	r24, 0x0D	; 13
    124c:	80 93 f8 03 	sts	0x03F8, r24
    1250:	1c c0       	rjmp	.+56     	; 0x128a <Timer1_enuInit+0x45c>
			case TIMER1_FAST_PWM_OCR1A				: SetBit(TCCR1B_REG, WGM13); SetBit(TCCR1B_REG, WGM12); SetBit(TCCR1A_REG, WGM11); SetBit(TCCR1A_REG, WGM10); break;
    1252:	ae e4       	ldi	r26, 0x4E	; 78
    1254:	b0 e0       	ldi	r27, 0x00	; 0
    1256:	ee e4       	ldi	r30, 0x4E	; 78
    1258:	f0 e0       	ldi	r31, 0x00	; 0
    125a:	80 81       	ld	r24, Z
    125c:	80 61       	ori	r24, 0x10	; 16
    125e:	8c 93       	st	X, r24
    1260:	ae e4       	ldi	r26, 0x4E	; 78
    1262:	b0 e0       	ldi	r27, 0x00	; 0
    1264:	ee e4       	ldi	r30, 0x4E	; 78
    1266:	f0 e0       	ldi	r31, 0x00	; 0
    1268:	80 81       	ld	r24, Z
    126a:	88 60       	ori	r24, 0x08	; 8
    126c:	8c 93       	st	X, r24
    126e:	af e4       	ldi	r26, 0x4F	; 79
    1270:	b0 e0       	ldi	r27, 0x00	; 0
    1272:	ef e4       	ldi	r30, 0x4F	; 79
    1274:	f0 e0       	ldi	r31, 0x00	; 0
    1276:	80 81       	ld	r24, Z
    1278:	82 60       	ori	r24, 0x02	; 2
    127a:	8c 93       	st	X, r24
    127c:	af e4       	ldi	r26, 0x4F	; 79
    127e:	b0 e0       	ldi	r27, 0x00	; 0
    1280:	ef e4       	ldi	r30, 0x4F	; 79
    1282:	f0 e0       	ldi	r31, 0x00	; 0
    1284:	80 81       	ld	r24, Z
    1286:	81 60       	ori	r24, 0x01	; 1
    1288:	8c 93       	st	X, r24
			default: break;
		}

		TCNT1_REG = (Uint16_t)0;
    128a:	ec e4       	ldi	r30, 0x4C	; 76
    128c:	f0 e0       	ldi	r31, 0x00	; 0
    128e:	11 82       	std	Z+1, r1	; 0x01
    1290:	10 82       	st	Z, r1
    1292:	02 c0       	rjmp	.+4      	; 0x1298 <Timer1_enuInit+0x46a>
	}else
	{
		errorStatus = TIMER1_NOK;
    1294:	81 e0       	ldi	r24, 0x01	; 1
    1296:	89 83       	std	Y+1, r24	; 0x01
	}

	return errorStatus;
    1298:	89 81       	ldd	r24, Y+1	; 0x01
}
    129a:	0f 90       	pop	r0
    129c:	0f 90       	pop	r0
    129e:	0f 90       	pop	r0
    12a0:	0f 90       	pop	r0
    12a2:	cf 91       	pop	r28
    12a4:	df 91       	pop	r29
    12a6:	08 95       	ret

000012a8 <Timer1_enuSetPrescallar>:
 * Function Description : Set Prescaller
 * Arguments			: Timer1_enuSetPrescallar  {TIMER1_PRE_1,TIMER1_PRE_64,TIMER1_PRE_256,..... }
 * Return 				: enu_timer1Status_t {TIMER1_OK or TIMER1_NOK}
 */
enu_timer1Status_t Timer1_enuSetPrescallar(enu_timer1Prescalar_t copy_enTimerPrescaller)
{
    12a8:	df 93       	push	r29
    12aa:	cf 93       	push	r28
    12ac:	00 d0       	rcall	.+0      	; 0x12ae <Timer1_enuSetPrescallar+0x6>
    12ae:	0f 92       	push	r0
    12b0:	cd b7       	in	r28, 0x3d	; 61
    12b2:	de b7       	in	r29, 0x3e	; 62
    12b4:	8b 83       	std	Y+3, r24	; 0x03
	enu_timer1Status_t errorStatus = TIMER1_OK;
    12b6:	1a 82       	std	Y+2, r1	; 0x02
	Uint8_t temp_reg;
	if(copy_enTimerPrescaller < TIMER1_PRESCALR_INVALID)
    12b8:	8b 81       	ldd	r24, Y+3	; 0x03
    12ba:	88 30       	cpi	r24, 0x08	; 8
    12bc:	80 f4       	brcc	.+32     	; 0x12de <Timer1_enuSetPrescallar+0x36>
	{
		temp_reg = TCCR1B_REG;
    12be:	ee e4       	ldi	r30, 0x4E	; 78
    12c0:	f0 e0       	ldi	r31, 0x00	; 0
    12c2:	80 81       	ld	r24, Z
    12c4:	89 83       	std	Y+1, r24	; 0x01
		temp_reg &= PRESCALLER_CLR_MSK;
    12c6:	89 81       	ldd	r24, Y+1	; 0x01
    12c8:	88 7f       	andi	r24, 0xF8	; 248
    12ca:	89 83       	std	Y+1, r24	; 0x01
		temp_reg |= copy_enTimerPrescaller << TIMER1_PRESCALLER_OFFSET;
    12cc:	99 81       	ldd	r25, Y+1	; 0x01
    12ce:	8b 81       	ldd	r24, Y+3	; 0x03
    12d0:	89 2b       	or	r24, r25
    12d2:	89 83       	std	Y+1, r24	; 0x01
		TCCR1B_REG = temp_reg;
    12d4:	ee e4       	ldi	r30, 0x4E	; 78
    12d6:	f0 e0       	ldi	r31, 0x00	; 0
    12d8:	89 81       	ldd	r24, Y+1	; 0x01
    12da:	80 83       	st	Z, r24
    12dc:	02 c0       	rjmp	.+4      	; 0x12e2 <Timer1_enuSetPrescallar+0x3a>
	}
	else
	{
		errorStatus = TIMER1_NOK;
    12de:	81 e0       	ldi	r24, 0x01	; 1
    12e0:	8a 83       	std	Y+2, r24	; 0x02
	}
	return errorStatus;
    12e2:	8a 81       	ldd	r24, Y+2	; 0x02
}
    12e4:	0f 90       	pop	r0
    12e6:	0f 90       	pop	r0
    12e8:	0f 90       	pop	r0
    12ea:	cf 91       	pop	r28
    12ec:	df 91       	pop	r29
    12ee:	08 95       	ret

000012f0 <Timer1_enuFastPWMInit>:
 * Function Description : Set PWM Mode
 * Arguments			: copy_enPWMMode  {TIMER1_PWM_NORMAL,TIMER1_PWM_CLR_ON_CMP,TIMER1_PWM_SET_ON_CMP,..... }
 * Return 				: enu_timer1Status_t {TIMER1_OK or TIMER1_NOK}
 */
enu_timer1Status_t Timer1_enuFastPWMInit(enu_pwm1Mode_t copy_enPWMMode)
{
    12f0:	df 93       	push	r29
    12f2:	cf 93       	push	r28
    12f4:	00 d0       	rcall	.+0      	; 0x12f6 <Timer1_enuFastPWMInit+0x6>
    12f6:	0f 92       	push	r0
    12f8:	cd b7       	in	r28, 0x3d	; 61
    12fa:	de b7       	in	r29, 0x3e	; 62
    12fc:	8b 83       	std	Y+3, r24	; 0x03
	enu_timer1Status_t errorStatus = TIMER1_OK;
    12fe:	1a 82       	std	Y+2, r1	; 0x02
	Uint8_t local_u8Temp;

	if(copy_enPWMMode < TIMER1_PWM_INVALID)
    1300:	8b 81       	ldd	r24, Y+3	; 0x03
    1302:	84 30       	cpi	r24, 0x04	; 4
    1304:	e0 f4       	brcc	.+56     	; 0x133e <Timer1_enuFastPWMInit+0x4e>
	{
#if TIMER1_COM1_TYPE == TIMER1_COM1A

		local_u8Temp = TCCR1A_REG;
    1306:	ef e4       	ldi	r30, 0x4F	; 79
    1308:	f0 e0       	ldi	r31, 0x00	; 0
    130a:	80 81       	ld	r24, Z
    130c:	89 83       	std	Y+1, r24	; 0x01
		local_u8Temp &= PWM_MODE_CLR_COM1A_MSK;
    130e:	89 81       	ldd	r24, Y+1	; 0x01
    1310:	8f 73       	andi	r24, 0x3F	; 63
    1312:	89 83       	std	Y+1, r24	; 0x01
		local_u8Temp |= (copy_enPWMMode << TIMER1_PWM_MODE_COM1A_OFFSET);
    1314:	8b 81       	ldd	r24, Y+3	; 0x03
    1316:	88 2f       	mov	r24, r24
    1318:	90 e0       	ldi	r25, 0x00	; 0
    131a:	00 24       	eor	r0, r0
    131c:	96 95       	lsr	r25
    131e:	87 95       	ror	r24
    1320:	07 94       	ror	r0
    1322:	96 95       	lsr	r25
    1324:	87 95       	ror	r24
    1326:	07 94       	ror	r0
    1328:	98 2f       	mov	r25, r24
    132a:	80 2d       	mov	r24, r0
    132c:	98 2f       	mov	r25, r24
    132e:	89 81       	ldd	r24, Y+1	; 0x01
    1330:	89 2b       	or	r24, r25
    1332:	89 83       	std	Y+1, r24	; 0x01
		TCCR1A_REG = local_u8Temp;
    1334:	ef e4       	ldi	r30, 0x4F	; 79
    1336:	f0 e0       	ldi	r31, 0x00	; 0
    1338:	89 81       	ldd	r24, Y+1	; 0x01
    133a:	80 83       	st	Z, r24
    133c:	02 c0       	rjmp	.+4      	; 0x1342 <Timer1_enuFastPWMInit+0x52>
		TCCR1A_REG = local_u8Temp;

#endif
	}else
	{
		errorStatus = TIMER1_NOK;
    133e:	81 e0       	ldi	r24, 0x01	; 1
    1340:	8a 83       	std	Y+2, r24	; 0x02
	}
	return errorStatus;
    1342:	8a 81       	ldd	r24, Y+2	; 0x02

}
    1344:	0f 90       	pop	r0
    1346:	0f 90       	pop	r0
    1348:	0f 90       	pop	r0
    134a:	cf 91       	pop	r28
    134c:	df 91       	pop	r29
    134e:	08 95       	ret

00001350 <Timer1_enuPWMGenerate>:
 * Function Description : Generate PWM
 * Arguments			: copy_u8DutyCycle  {1 ~ 100}
 * Return 				: enu_timer1Status_t {TIMER1_OK or TIMER1_NOK}
 */
enu_timer1Status_t Timer1_enuPWMGenerate(Uint8_t copy_u8DutyCycle)
{
    1350:	df 93       	push	r29
    1352:	cf 93       	push	r28
    1354:	00 d0       	rcall	.+0      	; 0x1356 <Timer1_enuPWMGenerate+0x6>
    1356:	cd b7       	in	r28, 0x3d	; 61
    1358:	de b7       	in	r29, 0x3e	; 62
    135a:	8a 83       	std	Y+2, r24	; 0x02
	enu_timer1Status_t errorStatus = TIMER1_OK;
    135c:	19 82       	std	Y+1, r1	; 0x01

	if( copy_u8DutyCycle > 0 && copy_u8DutyCycle <= 100)
    135e:	8a 81       	ldd	r24, Y+2	; 0x02
    1360:	88 23       	and	r24, r24
    1362:	09 f4       	brne	.+2      	; 0x1366 <Timer1_enuPWMGenerate+0x16>
    1364:	52 c0       	rjmp	.+164    	; 0x140a <Timer1_enuPWMGenerate+0xba>
    1366:	8a 81       	ldd	r24, Y+2	; 0x02
    1368:	85 36       	cpi	r24, 0x65	; 101
    136a:	08 f0       	brcs	.+2      	; 0x136e <Timer1_enuPWMGenerate+0x1e>
    136c:	4e c0       	rjmp	.+156    	; 0x140a <Timer1_enuPWMGenerate+0xba>
	{
#if TIMER1_COM1_TYPE == TIMER1_COM1A

		if(gen_PwmMode == TIMER1_FAST_PWM_8_0x00FF)
    136e:	80 91 f8 03 	lds	r24, 0x03F8
    1372:	85 30       	cpi	r24, 0x05	; 5
    1374:	89 f4       	brne	.+34     	; 0x1398 <Timer1_enuPWMGenerate+0x48>
		{
			OCR1A_REG = ((copy_u8DutyCycle * 256)/100)-1 ;
    1376:	ea e4       	ldi	r30, 0x4A	; 74
    1378:	f0 e0       	ldi	r31, 0x00	; 0
    137a:	8a 81       	ldd	r24, Y+2	; 0x02
    137c:	88 2f       	mov	r24, r24
    137e:	90 e0       	ldi	r25, 0x00	; 0
    1380:	98 2f       	mov	r25, r24
    1382:	88 27       	eor	r24, r24
    1384:	24 e6       	ldi	r18, 0x64	; 100
    1386:	30 e0       	ldi	r19, 0x00	; 0
    1388:	b9 01       	movw	r22, r18
    138a:	0e 94 b2 2f 	call	0x5f64	; 0x5f64 <__divmodhi4>
    138e:	cb 01       	movw	r24, r22
    1390:	01 97       	sbiw	r24, 0x01	; 1
    1392:	91 83       	std	Z+1, r25	; 0x01
    1394:	80 83       	st	Z, r24
    1396:	3b c0       	rjmp	.+118    	; 0x140e <Timer1_enuPWMGenerate+0xbe>
		}
		else if(gen_PwmMode == TIMER1_FAST_PWM_9_0x01FF)
    1398:	80 91 f8 03 	lds	r24, 0x03F8
    139c:	86 30       	cpi	r24, 0x06	; 6
    139e:	91 f4       	brne	.+36     	; 0x13c4 <Timer1_enuPWMGenerate+0x74>
		{
			OCR1A_REG = ((copy_u8DutyCycle * 512)/100)-1 ;
    13a0:	ea e4       	ldi	r30, 0x4A	; 74
    13a2:	f0 e0       	ldi	r31, 0x00	; 0
    13a4:	8a 81       	ldd	r24, Y+2	; 0x02
    13a6:	88 2f       	mov	r24, r24
    13a8:	90 e0       	ldi	r25, 0x00	; 0
    13aa:	98 2f       	mov	r25, r24
    13ac:	88 27       	eor	r24, r24
    13ae:	99 0f       	add	r25, r25
    13b0:	24 e6       	ldi	r18, 0x64	; 100
    13b2:	30 e0       	ldi	r19, 0x00	; 0
    13b4:	b9 01       	movw	r22, r18
    13b6:	0e 94 b2 2f 	call	0x5f64	; 0x5f64 <__divmodhi4>
    13ba:	cb 01       	movw	r24, r22
    13bc:	01 97       	sbiw	r24, 0x01	; 1
    13be:	91 83       	std	Z+1, r25	; 0x01
    13c0:	80 83       	st	Z, r24
    13c2:	25 c0       	rjmp	.+74     	; 0x140e <Timer1_enuPWMGenerate+0xbe>
		}
		else if(gen_PwmMode == TIMER1_FAST_PWM_10_0x03FF)
    13c4:	80 91 f8 03 	lds	r24, 0x03F8
    13c8:	87 30       	cpi	r24, 0x07	; 7
    13ca:	99 f4       	brne	.+38     	; 0x13f2 <Timer1_enuPWMGenerate+0xa2>
		{
			OCR1A_REG = ((copy_u8DutyCycle * 1024)/100)-1 ;
    13cc:	ea e4       	ldi	r30, 0x4A	; 74
    13ce:	f0 e0       	ldi	r31, 0x00	; 0
    13d0:	8a 81       	ldd	r24, Y+2	; 0x02
    13d2:	88 2f       	mov	r24, r24
    13d4:	90 e0       	ldi	r25, 0x00	; 0
    13d6:	98 2f       	mov	r25, r24
    13d8:	88 27       	eor	r24, r24
    13da:	99 0f       	add	r25, r25
    13dc:	99 0f       	add	r25, r25
    13de:	24 e6       	ldi	r18, 0x64	; 100
    13e0:	30 e0       	ldi	r19, 0x00	; 0
    13e2:	b9 01       	movw	r22, r18
    13e4:	0e 94 b2 2f 	call	0x5f64	; 0x5f64 <__divmodhi4>
    13e8:	cb 01       	movw	r24, r22
    13ea:	01 97       	sbiw	r24, 0x01	; 1
    13ec:	91 83       	std	Z+1, r25	; 0x01
    13ee:	80 83       	st	Z, r24
    13f0:	0e c0       	rjmp	.+28     	; 0x140e <Timer1_enuPWMGenerate+0xbe>
		}
		else if (gen_PwmMode == TIMER1_FAST_PWM_ICR1)
    13f2:	80 91 f8 03 	lds	r24, 0x03F8
    13f6:	8d 30       	cpi	r24, 0x0D	; 13
    13f8:	51 f4       	brne	.+20     	; 0x140e <Timer1_enuPWMGenerate+0xbe>
		{
			OCR1A_REG = copy_u8DutyCycle;
    13fa:	ea e4       	ldi	r30, 0x4A	; 74
    13fc:	f0 e0       	ldi	r31, 0x00	; 0
    13fe:	8a 81       	ldd	r24, Y+2	; 0x02
    1400:	88 2f       	mov	r24, r24
    1402:	90 e0       	ldi	r25, 0x00	; 0
    1404:	91 83       	std	Z+1, r25	; 0x01
    1406:	80 83       	st	Z, r24
    1408:	02 c0       	rjmp	.+4      	; 0x140e <Timer1_enuPWMGenerate+0xbe>
		}

#endif
	}else
	{
		errorStatus = TIMER1_NOK;
    140a:	81 e0       	ldi	r24, 0x01	; 1
    140c:	89 83       	std	Y+1, r24	; 0x01
	}



	return errorStatus;
    140e:	89 81       	ldd	r24, Y+1	; 0x01
}
    1410:	0f 90       	pop	r0
    1412:	0f 90       	pop	r0
    1414:	cf 91       	pop	r28
    1416:	df 91       	pop	r29
    1418:	08 95       	ret

0000141a <Timer2_enuInit>:
 * Function Description : Initialize Timer2 to Fast PWM Mode
 * Arguments			: copy_enTmerMode  {TIMER2_OVF_MODE,TIMER2_FAST_PWM_MODE,..... }
 * Return 				: enu_timer2Status_t {TIMER2_OK or TIMER2_NOK}
 */
enu_timer2Status_t Timer2_enuInit (enu_timer2Mode_t copy_enTmerMode)
{
    141a:	df 93       	push	r29
    141c:	cf 93       	push	r28
    141e:	00 d0       	rcall	.+0      	; 0x1420 <Timer2_enuInit+0x6>
    1420:	00 d0       	rcall	.+0      	; 0x1422 <Timer2_enuInit+0x8>
    1422:	cd b7       	in	r28, 0x3d	; 61
    1424:	de b7       	in	r29, 0x3e	; 62
    1426:	8a 83       	std	Y+2, r24	; 0x02
	enu_timer2Status_t errorStatus = TIMER2_OK;
    1428:	19 82       	std	Y+1, r1	; 0x01

	if(copy_enTmerMode < TIMER2_TIMER_MODE_INVALID)
    142a:	8a 81       	ldd	r24, Y+2	; 0x02
    142c:	84 30       	cpi	r24, 0x04	; 4
    142e:	08 f0       	brcs	.+2      	; 0x1432 <Timer2_enuInit+0x18>
    1430:	61 c0       	rjmp	.+194    	; 0x14f4 <Timer2_enuInit+0xda>
	{
		switch (copy_enTmerMode)
    1432:	8a 81       	ldd	r24, Y+2	; 0x02
    1434:	28 2f       	mov	r18, r24
    1436:	30 e0       	ldi	r19, 0x00	; 0
    1438:	3c 83       	std	Y+4, r19	; 0x04
    143a:	2b 83       	std	Y+3, r18	; 0x03
    143c:	8b 81       	ldd	r24, Y+3	; 0x03
    143e:	9c 81       	ldd	r25, Y+4	; 0x04
    1440:	81 30       	cpi	r24, 0x01	; 1
    1442:	91 05       	cpc	r25, r1
    1444:	21 f1       	breq	.+72     	; 0x148e <Timer2_enuInit+0x74>
    1446:	2b 81       	ldd	r18, Y+3	; 0x03
    1448:	3c 81       	ldd	r19, Y+4	; 0x04
    144a:	22 30       	cpi	r18, 0x02	; 2
    144c:	31 05       	cpc	r19, r1
    144e:	2c f4       	brge	.+10     	; 0x145a <Timer2_enuInit+0x40>
    1450:	8b 81       	ldd	r24, Y+3	; 0x03
    1452:	9c 81       	ldd	r25, Y+4	; 0x04
    1454:	00 97       	sbiw	r24, 0x00	; 0
    1456:	61 f0       	breq	.+24     	; 0x1470 <Timer2_enuInit+0x56>
    1458:	47 c0       	rjmp	.+142    	; 0x14e8 <Timer2_enuInit+0xce>
    145a:	2b 81       	ldd	r18, Y+3	; 0x03
    145c:	3c 81       	ldd	r19, Y+4	; 0x04
    145e:	22 30       	cpi	r18, 0x02	; 2
    1460:	31 05       	cpc	r19, r1
    1462:	21 f1       	breq	.+72     	; 0x14ac <Timer2_enuInit+0x92>
    1464:	8b 81       	ldd	r24, Y+3	; 0x03
    1466:	9c 81       	ldd	r25, Y+4	; 0x04
    1468:	83 30       	cpi	r24, 0x03	; 3
    146a:	91 05       	cpc	r25, r1
    146c:	71 f1       	breq	.+92     	; 0x14ca <Timer2_enuInit+0xb0>
    146e:	3c c0       	rjmp	.+120    	; 0x14e8 <Timer2_enuInit+0xce>
		{
		case TIMER2_OVF_MODE 				: ClrBit(TCCR2_REG, WGM21);ClrBit(TCCR2_REG, WGM20); break;
    1470:	a5 e4       	ldi	r26, 0x45	; 69
    1472:	b0 e0       	ldi	r27, 0x00	; 0
    1474:	e5 e4       	ldi	r30, 0x45	; 69
    1476:	f0 e0       	ldi	r31, 0x00	; 0
    1478:	80 81       	ld	r24, Z
    147a:	87 7f       	andi	r24, 0xF7	; 247
    147c:	8c 93       	st	X, r24
    147e:	a5 e4       	ldi	r26, 0x45	; 69
    1480:	b0 e0       	ldi	r27, 0x00	; 0
    1482:	e5 e4       	ldi	r30, 0x45	; 69
    1484:	f0 e0       	ldi	r31, 0x00	; 0
    1486:	80 81       	ld	r24, Z
    1488:	8f 7b       	andi	r24, 0xBF	; 191
    148a:	8c 93       	st	X, r24
    148c:	2f c0       	rjmp	.+94     	; 0x14ec <Timer2_enuInit+0xd2>
		case TIMER2_PHASE_CORRECT_PWM_MODE 	: ClrBit(TCCR2_REG, WGM21);SetBit(TCCR2_REG, WGM20); break;
    148e:	a5 e4       	ldi	r26, 0x45	; 69
    1490:	b0 e0       	ldi	r27, 0x00	; 0
    1492:	e5 e4       	ldi	r30, 0x45	; 69
    1494:	f0 e0       	ldi	r31, 0x00	; 0
    1496:	80 81       	ld	r24, Z
    1498:	87 7f       	andi	r24, 0xF7	; 247
    149a:	8c 93       	st	X, r24
    149c:	a5 e4       	ldi	r26, 0x45	; 69
    149e:	b0 e0       	ldi	r27, 0x00	; 0
    14a0:	e5 e4       	ldi	r30, 0x45	; 69
    14a2:	f0 e0       	ldi	r31, 0x00	; 0
    14a4:	80 81       	ld	r24, Z
    14a6:	80 64       	ori	r24, 0x40	; 64
    14a8:	8c 93       	st	X, r24
    14aa:	20 c0       	rjmp	.+64     	; 0x14ec <Timer2_enuInit+0xd2>
		case TIMER2_CTC_MODE 				: SetBit(TCCR2_REG, WGM21);ClrBit(TCCR2_REG, WGM20); break;
    14ac:	a5 e4       	ldi	r26, 0x45	; 69
    14ae:	b0 e0       	ldi	r27, 0x00	; 0
    14b0:	e5 e4       	ldi	r30, 0x45	; 69
    14b2:	f0 e0       	ldi	r31, 0x00	; 0
    14b4:	80 81       	ld	r24, Z
    14b6:	88 60       	ori	r24, 0x08	; 8
    14b8:	8c 93       	st	X, r24
    14ba:	a5 e4       	ldi	r26, 0x45	; 69
    14bc:	b0 e0       	ldi	r27, 0x00	; 0
    14be:	e5 e4       	ldi	r30, 0x45	; 69
    14c0:	f0 e0       	ldi	r31, 0x00	; 0
    14c2:	80 81       	ld	r24, Z
    14c4:	8f 7b       	andi	r24, 0xBF	; 191
    14c6:	8c 93       	st	X, r24
    14c8:	11 c0       	rjmp	.+34     	; 0x14ec <Timer2_enuInit+0xd2>
		case TIMER2_FAST_PWM_MODE 			: SetBit(TCCR2_REG, WGM21);SetBit(TCCR2_REG, WGM20); break;
    14ca:	a5 e4       	ldi	r26, 0x45	; 69
    14cc:	b0 e0       	ldi	r27, 0x00	; 0
    14ce:	e5 e4       	ldi	r30, 0x45	; 69
    14d0:	f0 e0       	ldi	r31, 0x00	; 0
    14d2:	80 81       	ld	r24, Z
    14d4:	88 60       	ori	r24, 0x08	; 8
    14d6:	8c 93       	st	X, r24
    14d8:	a5 e4       	ldi	r26, 0x45	; 69
    14da:	b0 e0       	ldi	r27, 0x00	; 0
    14dc:	e5 e4       	ldi	r30, 0x45	; 69
    14de:	f0 e0       	ldi	r31, 0x00	; 0
    14e0:	80 81       	ld	r24, Z
    14e2:	80 64       	ori	r24, 0x40	; 64
    14e4:	8c 93       	st	X, r24
    14e6:	02 c0       	rjmp	.+4      	; 0x14ec <Timer2_enuInit+0xd2>
		default 					: errorStatus = TIMER2_NOK; break;
    14e8:	81 e0       	ldi	r24, 0x01	; 1
    14ea:	89 83       	std	Y+1, r24	; 0x01
		}
		TCNT2_REG = (Uint8_t)0;
    14ec:	e4 e4       	ldi	r30, 0x44	; 68
    14ee:	f0 e0       	ldi	r31, 0x00	; 0
    14f0:	10 82       	st	Z, r1
    14f2:	02 c0       	rjmp	.+4      	; 0x14f8 <Timer2_enuInit+0xde>
	}else
	{
		errorStatus = TIMER2_NOK;
    14f4:	81 e0       	ldi	r24, 0x01	; 1
    14f6:	89 83       	std	Y+1, r24	; 0x01
	}


	return errorStatus;
    14f8:	89 81       	ldd	r24, Y+1	; 0x01
}
    14fa:	0f 90       	pop	r0
    14fc:	0f 90       	pop	r0
    14fe:	0f 90       	pop	r0
    1500:	0f 90       	pop	r0
    1502:	cf 91       	pop	r28
    1504:	df 91       	pop	r29
    1506:	08 95       	ret

00001508 <Timer2_enuSetPrescallar>:
 * Function Description : Set Prescaller
 * Arguments			: Timer2_enuSetPrescallar  {TIMER2_PRE_1,TIMER2_PRE_256,TIMER2_PRE_256,..... }
 * Return 				: enu_timer2Status_t {TIMER2_OK or TIMER2_NOK}
 */
enu_timer2Status_t Timer2_enuSetPrescallar(enu_timerPrescalar_t copy_enTimerPrescaller)
{
    1508:	df 93       	push	r29
    150a:	cf 93       	push	r28
    150c:	00 d0       	rcall	.+0      	; 0x150e <Timer2_enuSetPrescallar+0x6>
    150e:	0f 92       	push	r0
    1510:	cd b7       	in	r28, 0x3d	; 61
    1512:	de b7       	in	r29, 0x3e	; 62
    1514:	8b 83       	std	Y+3, r24	; 0x03
	enu_timer2Status_t errorStatus = TIMER2_OK;
    1516:	1a 82       	std	Y+2, r1	; 0x02
	Uint8_t temp_reg;
	if(copy_enTimerPrescaller < TIMER2_PRESCALR_INVALID)
    1518:	8b 81       	ldd	r24, Y+3	; 0x03
    151a:	88 30       	cpi	r24, 0x08	; 8
    151c:	80 f4       	brcc	.+32     	; 0x153e <Timer2_enuSetPrescallar+0x36>
	{
		temp_reg = TCCR2_REG;
    151e:	e5 e4       	ldi	r30, 0x45	; 69
    1520:	f0 e0       	ldi	r31, 0x00	; 0
    1522:	80 81       	ld	r24, Z
    1524:	89 83       	std	Y+1, r24	; 0x01
		temp_reg &= PRESCALLER_CLR_MSK;
    1526:	89 81       	ldd	r24, Y+1	; 0x01
    1528:	88 7f       	andi	r24, 0xF8	; 248
    152a:	89 83       	std	Y+1, r24	; 0x01
		temp_reg |= copy_enTimerPrescaller << TIMER2_PRESCALLER_OFFSET;
    152c:	99 81       	ldd	r25, Y+1	; 0x01
    152e:	8b 81       	ldd	r24, Y+3	; 0x03
    1530:	89 2b       	or	r24, r25
    1532:	89 83       	std	Y+1, r24	; 0x01
		TCCR2_REG = temp_reg;
    1534:	e5 e4       	ldi	r30, 0x45	; 69
    1536:	f0 e0       	ldi	r31, 0x00	; 0
    1538:	89 81       	ldd	r24, Y+1	; 0x01
    153a:	80 83       	st	Z, r24
    153c:	02 c0       	rjmp	.+4      	; 0x1542 <Timer2_enuSetPrescallar+0x3a>
	}
	else
	{
		errorStatus = TIMER2_NOK;
    153e:	81 e0       	ldi	r24, 0x01	; 1
    1540:	8a 83       	std	Y+2, r24	; 0x02
	}


	return errorStatus;
    1542:	8a 81       	ldd	r24, Y+2	; 0x02
}
    1544:	0f 90       	pop	r0
    1546:	0f 90       	pop	r0
    1548:	0f 90       	pop	r0
    154a:	cf 91       	pop	r28
    154c:	df 91       	pop	r29
    154e:	08 95       	ret

00001550 <Timer2_enuFastPWMInit>:
 * Function Description : Set PWM Mode
 * Arguments			: copy_enPWMMode  {TIMER2_PWM_NORMAL,TIMER2_PWM_CLR_ON_CMP,TIMER2_PWM_SET_ON_CMP,..... }
 * Return 				: enu_timer2Status_t {TIMER2_OK or TIMER2_NOK}
 */
enu_timer2Status_t Timer2_enuFastPWMInit(enu_pwmMode_t copy_enPWMMode)
{
    1550:	df 93       	push	r29
    1552:	cf 93       	push	r28
    1554:	00 d0       	rcall	.+0      	; 0x1556 <Timer2_enuFastPWMInit+0x6>
    1556:	0f 92       	push	r0
    1558:	cd b7       	in	r28, 0x3d	; 61
    155a:	de b7       	in	r29, 0x3e	; 62
    155c:	8b 83       	std	Y+3, r24	; 0x03
	enu_timer2Status_t errorStatus = TIMER2_OK;
    155e:	1a 82       	std	Y+2, r1	; 0x02
	Uint8_t local_u8Temp;

	if(copy_enPWMMode < TIMER2_PWM_INVALID)
    1560:	8b 81       	ldd	r24, Y+3	; 0x03
    1562:	84 30       	cpi	r24, 0x04	; 4
    1564:	c8 f4       	brcc	.+50     	; 0x1598 <Timer2_enuFastPWMInit+0x48>
	{
		local_u8Temp = TCCR2_REG;
    1566:	e5 e4       	ldi	r30, 0x45	; 69
    1568:	f0 e0       	ldi	r31, 0x00	; 0
    156a:	80 81       	ld	r24, Z
    156c:	89 83       	std	Y+1, r24	; 0x01
		local_u8Temp &= PWM_MODE_CLR_MSK;
    156e:	89 81       	ldd	r24, Y+1	; 0x01
    1570:	8f 7c       	andi	r24, 0xCF	; 207
    1572:	89 83       	std	Y+1, r24	; 0x01
		local_u8Temp |= (copy_enPWMMode << TIMER2_PWM_MODE_OFFSET);
    1574:	8b 81       	ldd	r24, Y+3	; 0x03
    1576:	88 2f       	mov	r24, r24
    1578:	90 e0       	ldi	r25, 0x00	; 0
    157a:	82 95       	swap	r24
    157c:	92 95       	swap	r25
    157e:	90 7f       	andi	r25, 0xF0	; 240
    1580:	98 27       	eor	r25, r24
    1582:	80 7f       	andi	r24, 0xF0	; 240
    1584:	98 27       	eor	r25, r24
    1586:	98 2f       	mov	r25, r24
    1588:	89 81       	ldd	r24, Y+1	; 0x01
    158a:	89 2b       	or	r24, r25
    158c:	89 83       	std	Y+1, r24	; 0x01
		TCCR2_REG = local_u8Temp;
    158e:	e5 e4       	ldi	r30, 0x45	; 69
    1590:	f0 e0       	ldi	r31, 0x00	; 0
    1592:	89 81       	ldd	r24, Y+1	; 0x01
    1594:	80 83       	st	Z, r24
    1596:	02 c0       	rjmp	.+4      	; 0x159c <Timer2_enuFastPWMInit+0x4c>
	}else
	{
		errorStatus = TIMER2_NOK;
    1598:	81 e0       	ldi	r24, 0x01	; 1
    159a:	8a 83       	std	Y+2, r24	; 0x02
	}
	return errorStatus;
    159c:	8a 81       	ldd	r24, Y+2	; 0x02
}
    159e:	0f 90       	pop	r0
    15a0:	0f 90       	pop	r0
    15a2:	0f 90       	pop	r0
    15a4:	cf 91       	pop	r28
    15a6:	df 91       	pop	r29
    15a8:	08 95       	ret

000015aa <Timer2_enuPWMGenerate>:
 * Function Description : Generate PWM
 * Arguments			: copy_u8DutyCycle  {1 ~ 100}
 * Return 				: enu_timer2Status_t {TIMER2_OK or TIMER2_NOK}
 */
enu_timer2Status_t Timer2_enuPWMGenerate(Uint8_t copy_u8DutyCycle)
{
    15aa:	df 93       	push	r29
    15ac:	cf 93       	push	r28
    15ae:	00 d0       	rcall	.+0      	; 0x15b0 <Timer2_enuPWMGenerate+0x6>
    15b0:	cd b7       	in	r28, 0x3d	; 61
    15b2:	de b7       	in	r29, 0x3e	; 62
    15b4:	8a 83       	std	Y+2, r24	; 0x02
	enu_timer2Status_t errorStatus = TIMER2_OK;
    15b6:	19 82       	std	Y+1, r1	; 0x01

	if( copy_u8DutyCycle > 0 && copy_u8DutyCycle <= 100)
    15b8:	8a 81       	ldd	r24, Y+2	; 0x02
    15ba:	88 23       	and	r24, r24
    15bc:	99 f0       	breq	.+38     	; 0x15e4 <Timer2_enuPWMGenerate+0x3a>
    15be:	8a 81       	ldd	r24, Y+2	; 0x02
    15c0:	85 36       	cpi	r24, 0x65	; 101
    15c2:	80 f4       	brcc	.+32     	; 0x15e4 <Timer2_enuPWMGenerate+0x3a>
	{
		OCR2_REG = ((copy_u8DutyCycle * 256)/100)-1 ;
    15c4:	e3 e4       	ldi	r30, 0x43	; 67
    15c6:	f0 e0       	ldi	r31, 0x00	; 0
    15c8:	8a 81       	ldd	r24, Y+2	; 0x02
    15ca:	88 2f       	mov	r24, r24
    15cc:	90 e0       	ldi	r25, 0x00	; 0
    15ce:	98 2f       	mov	r25, r24
    15d0:	88 27       	eor	r24, r24
    15d2:	24 e6       	ldi	r18, 0x64	; 100
    15d4:	30 e0       	ldi	r19, 0x00	; 0
    15d6:	b9 01       	movw	r22, r18
    15d8:	0e 94 b2 2f 	call	0x5f64	; 0x5f64 <__divmodhi4>
    15dc:	cb 01       	movw	r24, r22
    15de:	81 50       	subi	r24, 0x01	; 1
    15e0:	80 83       	st	Z, r24
    15e2:	02 c0       	rjmp	.+4      	; 0x15e8 <Timer2_enuPWMGenerate+0x3e>
	}else
	{
		errorStatus = TIMER2_NOK;
    15e4:	81 e0       	ldi	r24, 0x01	; 1
    15e6:	89 83       	std	Y+1, r24	; 0x01
	}

	return errorStatus;
    15e8:	89 81       	ldd	r24, Y+1	; 0x01
}
    15ea:	0f 90       	pop	r0
    15ec:	0f 90       	pop	r0
    15ee:	cf 91       	pop	r28
    15f0:	df 91       	pop	r29
    15f2:	08 95       	ret

000015f4 <__vector_13>:


/********************************************************************************************************/
/*										ISR	     							*/
/********************************************************************************************************/
ISR(USART_RXC_vect) {
    15f4:	1f 92       	push	r1
    15f6:	0f 92       	push	r0
    15f8:	0f b6       	in	r0, 0x3f	; 63
    15fa:	0f 92       	push	r0
    15fc:	11 24       	eor	r1, r1
    15fe:	2f 93       	push	r18
    1600:	3f 93       	push	r19
    1602:	5f 93       	push	r21
    1604:	6f 93       	push	r22
    1606:	7f 93       	push	r23
    1608:	8f 93       	push	r24
    160a:	9f 93       	push	r25
    160c:	af 93       	push	r26
    160e:	bf 93       	push	r27
    1610:	ef 93       	push	r30
    1612:	ff 93       	push	r31
    1614:	df 93       	push	r29
    1616:	cf 93       	push	r28
    1618:	0f 92       	push	r0
    161a:	cd b7       	in	r28, 0x3d	; 61
    161c:	de b7       	in	r29, 0x3e	; 62
    char receivedChar = UDR;
    161e:	ec e2       	ldi	r30, 0x2C	; 44
    1620:	f0 e0       	ldi	r31, 0x00	; 0
    1622:	80 81       	ld	r24, Z
    1624:	89 83       	std	Y+1, r24	; 0x01

    if (receivedChar == '\n' || receivedChar == '\r') {
    1626:	89 81       	ldd	r24, Y+1	; 0x01
    1628:	8a 30       	cpi	r24, 0x0A	; 10
    162a:	19 f0       	breq	.+6      	; 0x1632 <__vector_13+0x3e>
    162c:	89 81       	ldd	r24, Y+1	; 0x01
    162e:	8d 30       	cpi	r24, 0x0D	; 13
    1630:	71 f4       	brne	.+28     	; 0x164e <__vector_13+0x5a>
        receivedString[stringIndex] = '\0'; // Null-terminate the string
    1632:	80 91 d1 03 	lds	r24, 0x03D1
    1636:	88 2f       	mov	r24, r24
    1638:	90 e0       	ldi	r25, 0x00	; 0
    163a:	fc 01       	movw	r30, r24
    163c:	e7 50       	subi	r30, 0x07	; 7
    163e:	fc 4f       	sbci	r31, 0xFC	; 252
    1640:	10 82       	st	Z, r1
        stringReceived = 1; // Set the flag indicating that a string is received
    1642:	81 e0       	ldi	r24, 0x01	; 1
    1644:	80 93 d2 03 	sts	0x03D2, r24
        stringIndex = 0; // Reset the index for the next string
    1648:	10 92 d1 03 	sts	0x03D1, r1
    164c:	15 c0       	rjmp	.+42     	; 0x1678 <__vector_13+0x84>
    } else {
        receivedString[stringIndex] = receivedChar;
    164e:	80 91 d1 03 	lds	r24, 0x03D1
    1652:	88 2f       	mov	r24, r24
    1654:	90 e0       	ldi	r25, 0x00	; 0
    1656:	fc 01       	movw	r30, r24
    1658:	e7 50       	subi	r30, 0x07	; 7
    165a:	fc 4f       	sbci	r31, 0xFC	; 252
    165c:	89 81       	ldd	r24, Y+1	; 0x01
    165e:	80 83       	st	Z, r24
        stringIndex = (stringIndex + 1) % BUFFER_SIZE;
    1660:	80 91 d1 03 	lds	r24, 0x03D1
    1664:	88 2f       	mov	r24, r24
    1666:	90 e0       	ldi	r25, 0x00	; 0
    1668:	01 96       	adiw	r24, 0x01	; 1
    166a:	20 e4       	ldi	r18, 0x40	; 64
    166c:	30 e0       	ldi	r19, 0x00	; 0
    166e:	b9 01       	movw	r22, r18
    1670:	0e 94 b2 2f 	call	0x5f64	; 0x5f64 <__divmodhi4>
    1674:	80 93 d1 03 	sts	0x03D1, r24
    }
}
    1678:	0f 90       	pop	r0
    167a:	cf 91       	pop	r28
    167c:	df 91       	pop	r29
    167e:	ff 91       	pop	r31
    1680:	ef 91       	pop	r30
    1682:	bf 91       	pop	r27
    1684:	af 91       	pop	r26
    1686:	9f 91       	pop	r25
    1688:	8f 91       	pop	r24
    168a:	7f 91       	pop	r23
    168c:	6f 91       	pop	r22
    168e:	5f 91       	pop	r21
    1690:	3f 91       	pop	r19
    1692:	2f 91       	pop	r18
    1694:	0f 90       	pop	r0
    1696:	0f be       	out	0x3f, r0	; 63
    1698:	0f 90       	pop	r0
    169a:	1f 90       	pop	r1
    169c:	18 95       	reti

0000169e <MUART_enInit>:
/********************************************************************************************************/
/*									Function Implementation			     								*/
/********************************************************************************************************/
en_uartErrStat_t MUART_enInit(Uint32_t copy_u32BaudRate)
{
    169e:	df 93       	push	r29
    16a0:	cf 93       	push	r28
    16a2:	cd b7       	in	r28, 0x3d	; 61
    16a4:	de b7       	in	r29, 0x3e	; 62
    16a6:	28 97       	sbiw	r28, 0x08	; 8
    16a8:	0f b6       	in	r0, 0x3f	; 63
    16aa:	f8 94       	cli
    16ac:	de bf       	out	0x3e, r29	; 62
    16ae:	0f be       	out	0x3f, r0	; 63
    16b0:	cd bf       	out	0x3d, r28	; 61
    16b2:	6d 83       	std	Y+5, r22	; 0x05
    16b4:	7e 83       	std	Y+6, r23	; 0x06
    16b6:	8f 83       	std	Y+7, r24	; 0x07
    16b8:	98 87       	std	Y+8, r25	; 0x08
	Uint8_t local_u8BitMask;
	en_uartErrStat_t local_enErrorStatus = MUART_OK;
    16ba:	1b 82       	std	Y+3, r1	; 0x03
	Uint16_t local_u16UBRRReg ;

	if(copy_u32BaudRate >= 2400 && copy_u32BaudRate <= 250000)
    16bc:	8d 81       	ldd	r24, Y+5	; 0x05
    16be:	9e 81       	ldd	r25, Y+6	; 0x06
    16c0:	af 81       	ldd	r26, Y+7	; 0x07
    16c2:	b8 85       	ldd	r27, Y+8	; 0x08
    16c4:	80 36       	cpi	r24, 0x60	; 96
    16c6:	29 e0       	ldi	r18, 0x09	; 9
    16c8:	92 07       	cpc	r25, r18
    16ca:	20 e0       	ldi	r18, 0x00	; 0
    16cc:	a2 07       	cpc	r26, r18
    16ce:	20 e0       	ldi	r18, 0x00	; 0
    16d0:	b2 07       	cpc	r27, r18
    16d2:	08 f4       	brcc	.+2      	; 0x16d6 <MUART_enInit+0x38>
    16d4:	b3 c0       	rjmp	.+358    	; 0x183c <MUART_enInit+0x19e>
    16d6:	8d 81       	ldd	r24, Y+5	; 0x05
    16d8:	9e 81       	ldd	r25, Y+6	; 0x06
    16da:	af 81       	ldd	r26, Y+7	; 0x07
    16dc:	b8 85       	ldd	r27, Y+8	; 0x08
    16de:	81 39       	cpi	r24, 0x91	; 145
    16e0:	20 ed       	ldi	r18, 0xD0	; 208
    16e2:	92 07       	cpc	r25, r18
    16e4:	23 e0       	ldi	r18, 0x03	; 3
    16e6:	a2 07       	cpc	r26, r18
    16e8:	20 e0       	ldi	r18, 0x00	; 0
    16ea:	b2 07       	cpc	r27, r18
    16ec:	08 f0       	brcs	.+2      	; 0x16f0 <MUART_enInit+0x52>
    16ee:	a6 c0       	rjmp	.+332    	; 0x183c <MUART_enInit+0x19e>

		/******************************** Set UART speed and setting Baudrate **************************/

#if MUART_SPEED_TYPE == MUART_SINGLE_SPEED

		ClrBit(UCSRA_REG, U2X);
    16f0:	ab e2       	ldi	r26, 0x2B	; 43
    16f2:	b0 e0       	ldi	r27, 0x00	; 0
    16f4:	eb e2       	ldi	r30, 0x2B	; 43
    16f6:	f0 e0       	ldi	r31, 0x00	; 0
    16f8:	80 81       	ld	r24, Z
    16fa:	8d 7f       	andi	r24, 0xFD	; 253
    16fc:	8c 93       	st	X, r24
		local_u16UBRRReg = ((F_CPU / (16*copy_u32BaudRate)) - 1);
    16fe:	8d 81       	ldd	r24, Y+5	; 0x05
    1700:	9e 81       	ldd	r25, Y+6	; 0x06
    1702:	af 81       	ldd	r26, Y+7	; 0x07
    1704:	b8 85       	ldd	r27, Y+8	; 0x08
    1706:	88 0f       	add	r24, r24
    1708:	99 1f       	adc	r25, r25
    170a:	aa 1f       	adc	r26, r26
    170c:	bb 1f       	adc	r27, r27
    170e:	88 0f       	add	r24, r24
    1710:	99 1f       	adc	r25, r25
    1712:	aa 1f       	adc	r26, r26
    1714:	bb 1f       	adc	r27, r27
    1716:	88 0f       	add	r24, r24
    1718:	99 1f       	adc	r25, r25
    171a:	aa 1f       	adc	r26, r26
    171c:	bb 1f       	adc	r27, r27
    171e:	88 0f       	add	r24, r24
    1720:	99 1f       	adc	r25, r25
    1722:	aa 1f       	adc	r26, r26
    1724:	bb 1f       	adc	r27, r27
    1726:	9c 01       	movw	r18, r24
    1728:	ad 01       	movw	r20, r26
    172a:	80 e0       	ldi	r24, 0x00	; 0
    172c:	92 e1       	ldi	r25, 0x12	; 18
    172e:	aa e7       	ldi	r26, 0x7A	; 122
    1730:	b0 e0       	ldi	r27, 0x00	; 0
    1732:	bc 01       	movw	r22, r24
    1734:	cd 01       	movw	r24, r26
    1736:	0e 94 c5 2f 	call	0x5f8a	; 0x5f8a <__udivmodsi4>
    173a:	da 01       	movw	r26, r20
    173c:	c9 01       	movw	r24, r18
    173e:	01 97       	sbiw	r24, 0x01	; 1
    1740:	9a 83       	std	Y+2, r25	; 0x02
    1742:	89 83       	std	Y+1, r24	; 0x01
		UBRRL_REG = (Uint8_t)local_u16UBRRReg;
    1744:	e9 e2       	ldi	r30, 0x29	; 41
    1746:	f0 e0       	ldi	r31, 0x00	; 0
    1748:	89 81       	ldd	r24, Y+1	; 0x01
    174a:	80 83       	st	Z, r24
		UBRRH_REG = (Uint8_t)((0 << URSEL) | (local_u16UBRRReg >> 8) );
    174c:	e0 e4       	ldi	r30, 0x40	; 64
    174e:	f0 e0       	ldi	r31, 0x00	; 0
    1750:	89 81       	ldd	r24, Y+1	; 0x01
    1752:	9a 81       	ldd	r25, Y+2	; 0x02
    1754:	89 2f       	mov	r24, r25
    1756:	99 27       	eor	r25, r25
    1758:	80 83       	st	Z, r24

		SetBit(UCSRB_REG, RXEN);

#elif MUART_TX_RX == MUART_TX_RX_ENABLE

		SetBit(UCSRB_REG, TXEN);
    175a:	aa e2       	ldi	r26, 0x2A	; 42
    175c:	b0 e0       	ldi	r27, 0x00	; 0
    175e:	ea e2       	ldi	r30, 0x2A	; 42
    1760:	f0 e0       	ldi	r31, 0x00	; 0
    1762:	80 81       	ld	r24, Z
    1764:	88 60       	ori	r24, 0x08	; 8
    1766:	8c 93       	st	X, r24
		SetBit(UCSRB_REG, RXEN);
    1768:	aa e2       	ldi	r26, 0x2A	; 42
    176a:	b0 e0       	ldi	r27, 0x00	; 0
    176c:	ea e2       	ldi	r30, 0x2A	; 42
    176e:	f0 e0       	ldi	r31, 0x00	; 0
    1770:	80 81       	ld	r24, Z
    1772:	80 61       	ori	r24, 0x10	; 16
    1774:	8c 93       	st	X, r24
#else
#error "MUART_TX_RX_INVALID"
#endif

		/******************************** Selecting Parity type **************************/
		UCSRC_REG &= 0b11001111;
    1776:	a0 e4       	ldi	r26, 0x40	; 64
    1778:	b0 e0       	ldi	r27, 0x00	; 0
    177a:	e0 e4       	ldi	r30, 0x40	; 64
    177c:	f0 e0       	ldi	r31, 0x00	; 0
    177e:	80 81       	ld	r24, Z
    1780:	8f 7c       	andi	r24, 0xCF	; 207
    1782:	8c 93       	st	X, r24
		UCSRC_REG |= (1 << URSEL) | (uartInfo.enParityType << 4);
    1784:	a0 e4       	ldi	r26, 0x40	; 64
    1786:	b0 e0       	ldi	r27, 0x00	; 0
    1788:	e0 e4       	ldi	r30, 0x40	; 64
    178a:	f0 e0       	ldi	r31, 0x00	; 0
    178c:	80 81       	ld	r24, Z
    178e:	28 2f       	mov	r18, r24
    1790:	80 91 0d 02 	lds	r24, 0x020D
    1794:	88 2f       	mov	r24, r24
    1796:	90 e0       	ldi	r25, 0x00	; 0
    1798:	82 95       	swap	r24
    179a:	92 95       	swap	r25
    179c:	90 7f       	andi	r25, 0xF0	; 240
    179e:	98 27       	eor	r25, r24
    17a0:	80 7f       	andi	r24, 0xF0	; 240
    17a2:	98 27       	eor	r25, r24
    17a4:	80 68       	ori	r24, 0x80	; 128
    17a6:	82 2b       	or	r24, r18
    17a8:	8c 93       	st	X, r24


		/********************** Selecting Data Length ************************************/
		UCSRC_REG &= 0b11111001;
    17aa:	a0 e4       	ldi	r26, 0x40	; 64
    17ac:	b0 e0       	ldi	r27, 0x00	; 0
    17ae:	e0 e4       	ldi	r30, 0x40	; 64
    17b0:	f0 e0       	ldi	r31, 0x00	; 0
    17b2:	80 81       	ld	r24, Z
    17b4:	89 7f       	andi	r24, 0xF9	; 249
    17b6:	8c 93       	st	X, r24
		local_u8BitMask = (0b00000011 | uartInfo.enDataLength);
    17b8:	80 91 0e 02 	lds	r24, 0x020E
    17bc:	83 60       	ori	r24, 0x03	; 3
    17be:	8c 83       	std	Y+4, r24	; 0x04
		UCSRC_REG |= (1 << URSEL) | (1 << local_u8BitMask);
    17c0:	a0 e4       	ldi	r26, 0x40	; 64
    17c2:	b0 e0       	ldi	r27, 0x00	; 0
    17c4:	e0 e4       	ldi	r30, 0x40	; 64
    17c6:	f0 e0       	ldi	r31, 0x00	; 0
    17c8:	80 81       	ld	r24, Z
    17ca:	48 2f       	mov	r20, r24
    17cc:	8c 81       	ldd	r24, Y+4	; 0x04
    17ce:	28 2f       	mov	r18, r24
    17d0:	30 e0       	ldi	r19, 0x00	; 0
    17d2:	81 e0       	ldi	r24, 0x01	; 1
    17d4:	90 e0       	ldi	r25, 0x00	; 0
    17d6:	02 c0       	rjmp	.+4      	; 0x17dc <MUART_enInit+0x13e>
    17d8:	88 0f       	add	r24, r24
    17da:	99 1f       	adc	r25, r25
    17dc:	2a 95       	dec	r18
    17de:	e2 f7       	brpl	.-8      	; 0x17d8 <MUART_enInit+0x13a>
    17e0:	80 68       	ori	r24, 0x80	; 128
    17e2:	84 2b       	or	r24, r20
    17e4:	8c 93       	st	X, r24
		local_u8BitMask = ( (0b00000100 | uartInfo.enDataLength) >> 2);
    17e6:	80 91 0e 02 	lds	r24, 0x020E
    17ea:	84 60       	ori	r24, 0x04	; 4
    17ec:	86 95       	lsr	r24
    17ee:	86 95       	lsr	r24
    17f0:	8c 83       	std	Y+4, r24	; 0x04
		UCSRB_REG &= 0b11111011;
    17f2:	aa e2       	ldi	r26, 0x2A	; 42
    17f4:	b0 e0       	ldi	r27, 0x00	; 0
    17f6:	ea e2       	ldi	r30, 0x2A	; 42
    17f8:	f0 e0       	ldi	r31, 0x00	; 0
    17fa:	80 81       	ld	r24, Z
    17fc:	8b 7f       	andi	r24, 0xFB	; 251
    17fe:	8c 93       	st	X, r24
		UCSRB_REG |= (local_u8BitMask << 2);
    1800:	aa e2       	ldi	r26, 0x2A	; 42
    1802:	b0 e0       	ldi	r27, 0x00	; 0
    1804:	ea e2       	ldi	r30, 0x2A	; 42
    1806:	f0 e0       	ldi	r31, 0x00	; 0
    1808:	80 81       	ld	r24, Z
    180a:	28 2f       	mov	r18, r24
    180c:	8c 81       	ldd	r24, Y+4	; 0x04
    180e:	88 2f       	mov	r24, r24
    1810:	90 e0       	ldi	r25, 0x00	; 0
    1812:	88 0f       	add	r24, r24
    1814:	99 1f       	adc	r25, r25
    1816:	88 0f       	add	r24, r24
    1818:	99 1f       	adc	r25, r25
    181a:	82 2b       	or	r24, r18
    181c:	8c 93       	st	X, r24

		/********************** Selecting Stop bit mode ************************************/
#if MUART_STOP_BIT == MUART_1_STOP_BIT

		ClrBit(UCSRC_REG, RUSBS);
    181e:	a0 e4       	ldi	r26, 0x40	; 64
    1820:	b0 e0       	ldi	r27, 0x00	; 0
    1822:	e0 e4       	ldi	r30, 0x40	; 64
    1824:	f0 e0       	ldi	r31, 0x00	; 0
    1826:	80 81       	ld	r24, Z
    1828:	87 7f       	andi	r24, 0xF7	; 247
    182a:	8c 93       	st	X, r24

		SetBit(UCSRC_REG, RUSBS);
#endif

		/********************** Asynchronous mode  ************************************/
		ClrBit(UCSRC_REG, UMSEL);
    182c:	a0 e4       	ldi	r26, 0x40	; 64
    182e:	b0 e0       	ldi	r27, 0x00	; 0
    1830:	e0 e4       	ldi	r30, 0x40	; 64
    1832:	f0 e0       	ldi	r31, 0x00	; 0
    1834:	80 81       	ld	r24, Z
    1836:	8f 7b       	andi	r24, 0xBF	; 191
    1838:	8c 93       	st	X, r24
    183a:	02 c0       	rjmp	.+4      	; 0x1840 <MUART_enInit+0x1a2>


	}else
	{
		local_enErrorStatus = MUART_NOK;
    183c:	81 e0       	ldi	r24, 0x01	; 1
    183e:	8b 83       	std	Y+3, r24	; 0x03
	}
	return local_enErrorStatus;
    1840:	8b 81       	ldd	r24, Y+3	; 0x03
}
    1842:	28 96       	adiw	r28, 0x08	; 8
    1844:	0f b6       	in	r0, 0x3f	; 63
    1846:	f8 94       	cli
    1848:	de bf       	out	0x3e, r29	; 62
    184a:	0f be       	out	0x3f, r0	; 63
    184c:	cd bf       	out	0x3d, r28	; 61
    184e:	cf 91       	pop	r28
    1850:	df 91       	pop	r29
    1852:	08 95       	ret

00001854 <MUART_enSendData>:



en_uartErrStat_t MUART_enSendData(Uint8_t Copy_u8Data)
{
    1854:	df 93       	push	r29
    1856:	cf 93       	push	r28
    1858:	00 d0       	rcall	.+0      	; 0x185a <MUART_enSendData+0x6>
    185a:	cd b7       	in	r28, 0x3d	; 61
    185c:	de b7       	in	r29, 0x3e	; 62
    185e:	8a 83       	std	Y+2, r24	; 0x02
	en_uartErrStat_t local_enErrorStatus = MUART_OK;
    1860:	19 82       	std	Y+1, r1	; 0x01

//	if (Copy_u8Data != 0)
//	{
		while( !(GetBit(UCSRA_REG, UDRE)) );
    1862:	eb e2       	ldi	r30, 0x2B	; 43
    1864:	f0 e0       	ldi	r31, 0x00	; 0
    1866:	80 81       	ld	r24, Z
    1868:	82 95       	swap	r24
    186a:	86 95       	lsr	r24
    186c:	87 70       	andi	r24, 0x07	; 7
    186e:	88 2f       	mov	r24, r24
    1870:	90 e0       	ldi	r25, 0x00	; 0
    1872:	81 70       	andi	r24, 0x01	; 1
    1874:	90 70       	andi	r25, 0x00	; 0
    1876:	00 97       	sbiw	r24, 0x00	; 0
    1878:	a1 f3       	breq	.-24     	; 0x1862 <MUART_enSendData+0xe>
		UDR_REG = Copy_u8Data;
    187a:	ec e2       	ldi	r30, 0x2C	; 44
    187c:	f0 e0       	ldi	r31, 0x00	; 0
    187e:	8a 81       	ldd	r24, Y+2	; 0x02
    1880:	80 83       	st	Z, r24
		while( !(GetBit(UCSRA_REG, TXC)) );
    1882:	eb e2       	ldi	r30, 0x2B	; 43
    1884:	f0 e0       	ldi	r31, 0x00	; 0
    1886:	80 81       	ld	r24, Z
    1888:	82 95       	swap	r24
    188a:	86 95       	lsr	r24
    188c:	86 95       	lsr	r24
    188e:	83 70       	andi	r24, 0x03	; 3
    1890:	88 2f       	mov	r24, r24
    1892:	90 e0       	ldi	r25, 0x00	; 0
    1894:	81 70       	andi	r24, 0x01	; 1
    1896:	90 70       	andi	r25, 0x00	; 0
    1898:	00 97       	sbiw	r24, 0x00	; 0
    189a:	99 f3       	breq	.-26     	; 0x1882 <MUART_enSendData+0x2e>

//	}else
//	{
//		local_enErrorStatus = MUART_NOK;
//	}
	return local_enErrorStatus;
    189c:	89 81       	ldd	r24, Y+1	; 0x01
}
    189e:	0f 90       	pop	r0
    18a0:	0f 90       	pop	r0
    18a2:	cf 91       	pop	r28
    18a4:	df 91       	pop	r29
    18a6:	08 95       	ret

000018a8 <MUART_enRecieveData>:


en_uartErrStat_t MUART_enRecieveData(Uint8_t* Ref_u8Data)
{
    18a8:	df 93       	push	r29
    18aa:	cf 93       	push	r28
    18ac:	00 d0       	rcall	.+0      	; 0x18ae <MUART_enRecieveData+0x6>
    18ae:	0f 92       	push	r0
    18b0:	cd b7       	in	r28, 0x3d	; 61
    18b2:	de b7       	in	r29, 0x3e	; 62
    18b4:	9b 83       	std	Y+3, r25	; 0x03
    18b6:	8a 83       	std	Y+2, r24	; 0x02
	en_uartErrStat_t local_enErrorStatus = MUART_OK;
    18b8:	19 82       	std	Y+1, r1	; 0x01

	if (Ref_u8Data != NULL)
    18ba:	8a 81       	ldd	r24, Y+2	; 0x02
    18bc:	9b 81       	ldd	r25, Y+3	; 0x03
    18be:	00 97       	sbiw	r24, 0x00	; 0
    18c0:	a9 f0       	breq	.+42     	; 0x18ec <MUART_enRecieveData+0x44>
	{
		while( !(GetBit(UCSRA_REG, RXC)) );
    18c2:	eb e2       	ldi	r30, 0x2B	; 43
    18c4:	f0 e0       	ldi	r31, 0x00	; 0
    18c6:	80 81       	ld	r24, Z
    18c8:	88 23       	and	r24, r24
    18ca:	dc f7       	brge	.-10     	; 0x18c2 <MUART_enRecieveData+0x1a>
		*Ref_u8Data= UDR_REG;
    18cc:	ec e2       	ldi	r30, 0x2C	; 44
    18ce:	f0 e0       	ldi	r31, 0x00	; 0
    18d0:	80 81       	ld	r24, Z
    18d2:	ea 81       	ldd	r30, Y+2	; 0x02
    18d4:	fb 81       	ldd	r31, Y+3	; 0x03
    18d6:	80 83       	st	Z, r24

		while( (UDR_REG != '\r') && (gl_u8_receive_mode == CHAR_RECEIVE) );
    18d8:	ec e2       	ldi	r30, 0x2C	; 44
    18da:	f0 e0       	ldi	r31, 0x00	; 0
    18dc:	80 81       	ld	r24, Z
    18de:	8d 30       	cpi	r24, 0x0D	; 13
    18e0:	39 f0       	breq	.+14     	; 0x18f0 <MUART_enRecieveData+0x48>
    18e2:	80 91 d0 03 	lds	r24, 0x03D0
    18e6:	88 23       	and	r24, r24
    18e8:	b9 f3       	breq	.-18     	; 0x18d8 <MUART_enRecieveData+0x30>
    18ea:	02 c0       	rjmp	.+4      	; 0x18f0 <MUART_enRecieveData+0x48>

	}else
	{
		local_enErrorStatus = MUART_NOK;
    18ec:	81 e0       	ldi	r24, 0x01	; 1
    18ee:	89 83       	std	Y+1, r24	; 0x01
	}
	return local_enErrorStatus;
    18f0:	89 81       	ldd	r24, Y+1	; 0x01
}
    18f2:	0f 90       	pop	r0
    18f4:	0f 90       	pop	r0
    18f6:	0f 90       	pop	r0
    18f8:	cf 91       	pop	r28
    18fa:	df 91       	pop	r29
    18fc:	08 95       	ret

000018fe <MUART_sendSTRING>:


void MUART_sendSTRING(const Uint8_t * str)
{
    18fe:	df 93       	push	r29
    1900:	cf 93       	push	r28
    1902:	00 d0       	rcall	.+0      	; 0x1904 <MUART_sendSTRING+0x6>
    1904:	cd b7       	in	r28, 0x3d	; 61
    1906:	de b7       	in	r29, 0x3e	; 62
    1908:	9a 83       	std	Y+2, r25	; 0x02
    190a:	89 83       	std	Y+1, r24	; 0x01
    190c:	0a c0       	rjmp	.+20     	; 0x1922 <MUART_sendSTRING+0x24>
	//Uint8_t COUNTER = 0;
	while(*str != '\0')
	{
		(void)MUART_enSendData(*str);
    190e:	e9 81       	ldd	r30, Y+1	; 0x01
    1910:	fa 81       	ldd	r31, Y+2	; 0x02
    1912:	80 81       	ld	r24, Z
    1914:	0e 94 2a 0c 	call	0x1854	; 0x1854 <MUART_enSendData>
		str++;
    1918:	89 81       	ldd	r24, Y+1	; 0x01
    191a:	9a 81       	ldd	r25, Y+2	; 0x02
    191c:	01 96       	adiw	r24, 0x01	; 1
    191e:	9a 83       	std	Y+2, r25	; 0x02
    1920:	89 83       	std	Y+1, r24	; 0x01


void MUART_sendSTRING(const Uint8_t * str)
{
	//Uint8_t COUNTER = 0;
	while(*str != '\0')
    1922:	e9 81       	ldd	r30, Y+1	; 0x01
    1924:	fa 81       	ldd	r31, Y+2	; 0x02
    1926:	80 81       	ld	r24, Z
    1928:	88 23       	and	r24, r24
    192a:	89 f7       	brne	.-30     	; 0x190e <MUART_sendSTRING+0x10>
	{
		(void)MUART_enSendData(*str);
		str++;
	}
}
    192c:	0f 90       	pop	r0
    192e:	0f 90       	pop	r0
    1930:	cf 91       	pop	r28
    1932:	df 91       	pop	r29
    1934:	08 95       	ret

00001936 <MUART_receiveSTRING>:
void MUART_receiveSTRING(Uint8_t * str ,Uint8_t size )
{
    1936:	df 93       	push	r29
    1938:	cf 93       	push	r28
    193a:	00 d0       	rcall	.+0      	; 0x193c <MUART_receiveSTRING+0x6>
    193c:	00 d0       	rcall	.+0      	; 0x193e <MUART_receiveSTRING+0x8>
    193e:	0f 92       	push	r0
    1940:	cd b7       	in	r28, 0x3d	; 61
    1942:	de b7       	in	r29, 0x3e	; 62
    1944:	9c 83       	std	Y+4, r25	; 0x04
    1946:	8b 83       	std	Y+3, r24	; 0x03
    1948:	6d 83       	std	Y+5, r22	; 0x05
	Uint8_t COUNTER = 0;
    194a:	19 82       	std	Y+1, r1	; 0x01
	Uint8_t Data;
	gl_u8_receive_mode = STRING_RECEIVE;
    194c:	81 e0       	ldi	r24, 0x01	; 1
    194e:	80 93 d0 03 	sts	0x03D0, r24
    1952:	1c c0       	rjmp	.+56     	; 0x198c <MUART_receiveSTRING+0x56>
	while(COUNTER < size-1)
	{
		(void)MUART_enRecieveData(&Data);
    1954:	ce 01       	movw	r24, r28
    1956:	02 96       	adiw	r24, 0x02	; 2
    1958:	0e 94 54 0c 	call	0x18a8	; 0x18a8 <MUART_enRecieveData>

		str[COUNTER]= Data;
    195c:	89 81       	ldd	r24, Y+1	; 0x01
    195e:	28 2f       	mov	r18, r24
    1960:	30 e0       	ldi	r19, 0x00	; 0
    1962:	8b 81       	ldd	r24, Y+3	; 0x03
    1964:	9c 81       	ldd	r25, Y+4	; 0x04
    1966:	fc 01       	movw	r30, r24
    1968:	e2 0f       	add	r30, r18
    196a:	f3 1f       	adc	r31, r19
    196c:	8a 81       	ldd	r24, Y+2	; 0x02
    196e:	80 83       	st	Z, r24
		if(str[COUNTER] == ENTER_KEY)break;
    1970:	89 81       	ldd	r24, Y+1	; 0x01
    1972:	28 2f       	mov	r18, r24
    1974:	30 e0       	ldi	r19, 0x00	; 0
    1976:	8b 81       	ldd	r24, Y+3	; 0x03
    1978:	9c 81       	ldd	r25, Y+4	; 0x04
    197a:	fc 01       	movw	r30, r24
    197c:	e2 0f       	add	r30, r18
    197e:	f3 1f       	adc	r31, r19
    1980:	80 81       	ld	r24, Z
    1982:	8d 30       	cpi	r24, 0x0D	; 13
    1984:	69 f0       	breq	.+26     	; 0x19a0 <MUART_receiveSTRING+0x6a>
//		(void)MUART_enSendData(str[COUNTER]);
		COUNTER++;
    1986:	89 81       	ldd	r24, Y+1	; 0x01
    1988:	8f 5f       	subi	r24, 0xFF	; 255
    198a:	89 83       	std	Y+1, r24	; 0x01
void MUART_receiveSTRING(Uint8_t * str ,Uint8_t size )
{
	Uint8_t COUNTER = 0;
	Uint8_t Data;
	gl_u8_receive_mode = STRING_RECEIVE;
	while(COUNTER < size-1)
    198c:	89 81       	ldd	r24, Y+1	; 0x01
    198e:	28 2f       	mov	r18, r24
    1990:	30 e0       	ldi	r19, 0x00	; 0
    1992:	8d 81       	ldd	r24, Y+5	; 0x05
    1994:	88 2f       	mov	r24, r24
    1996:	90 e0       	ldi	r25, 0x00	; 0
    1998:	01 97       	sbiw	r24, 0x01	; 1
    199a:	28 17       	cp	r18, r24
    199c:	39 07       	cpc	r19, r25
    199e:	d4 f2       	brlt	.-76     	; 0x1954 <MUART_receiveSTRING+0x1e>
		str[COUNTER]= Data;
		if(str[COUNTER] == ENTER_KEY)break;
//		(void)MUART_enSendData(str[COUNTER]);
		COUNTER++;
	}
	str[COUNTER] = '\0';
    19a0:	89 81       	ldd	r24, Y+1	; 0x01
    19a2:	28 2f       	mov	r18, r24
    19a4:	30 e0       	ldi	r19, 0x00	; 0
    19a6:	8b 81       	ldd	r24, Y+3	; 0x03
    19a8:	9c 81       	ldd	r25, Y+4	; 0x04
    19aa:	fc 01       	movw	r30, r24
    19ac:	e2 0f       	add	r30, r18
    19ae:	f3 1f       	adc	r31, r19
    19b0:	10 82       	st	Z, r1
	gl_u8_receive_mode = CHAR_RECEIVE;
    19b2:	10 92 d0 03 	sts	0x03D0, r1
}
    19b6:	0f 90       	pop	r0
    19b8:	0f 90       	pop	r0
    19ba:	0f 90       	pop	r0
    19bc:	0f 90       	pop	r0
    19be:	0f 90       	pop	r0
    19c0:	cf 91       	pop	r28
    19c2:	df 91       	pop	r29
    19c4:	08 95       	ret

000019c6 <enuTimer2_init>:

/*************************************************************************************************************
 * 							Function Implementation
 ************************************************************************************************************/
enu_timerStatus_t enuTimer2_init (enu_timerMode_t enTimerMode)
{
    19c6:	df 93       	push	r29
    19c8:	cf 93       	push	r28
    19ca:	00 d0       	rcall	.+0      	; 0x19cc <enuTimer2_init+0x6>
    19cc:	00 d0       	rcall	.+0      	; 0x19ce <enuTimer2_init+0x8>
    19ce:	cd b7       	in	r28, 0x3d	; 61
    19d0:	de b7       	in	r29, 0x3e	; 62
    19d2:	8a 83       	std	Y+2, r24	; 0x02
	enu_timerStatus_t errorStatus = TIMER_OK;
    19d4:	81 e0       	ldi	r24, 0x01	; 1
    19d6:	89 83       	std	Y+1, r24	; 0x01

	if(enTimerMode < TIMER_MODE_INVALID)
    19d8:	8a 81       	ldd	r24, Y+2	; 0x02
    19da:	84 30       	cpi	r24, 0x04	; 4
    19dc:	08 f0       	brcs	.+2      	; 0x19e0 <enuTimer2_init+0x1a>
    19de:	60 c0       	rjmp	.+192    	; 0x1aa0 <enuTimer2_init+0xda>
	{
		TCNT2_REG = 0;
    19e0:	e4 e4       	ldi	r30, 0x44	; 68
    19e2:	f0 e0       	ldi	r31, 0x00	; 0
    19e4:	10 82       	st	Z, r1
		switch (enTimerMode)
    19e6:	8a 81       	ldd	r24, Y+2	; 0x02
    19e8:	28 2f       	mov	r18, r24
    19ea:	30 e0       	ldi	r19, 0x00	; 0
    19ec:	3c 83       	std	Y+4, r19	; 0x04
    19ee:	2b 83       	std	Y+3, r18	; 0x03
    19f0:	8b 81       	ldd	r24, Y+3	; 0x03
    19f2:	9c 81       	ldd	r25, Y+4	; 0x04
    19f4:	81 30       	cpi	r24, 0x01	; 1
    19f6:	91 05       	cpc	r25, r1
    19f8:	21 f1       	breq	.+72     	; 0x1a42 <enuTimer2_init+0x7c>
    19fa:	2b 81       	ldd	r18, Y+3	; 0x03
    19fc:	3c 81       	ldd	r19, Y+4	; 0x04
    19fe:	22 30       	cpi	r18, 0x02	; 2
    1a00:	31 05       	cpc	r19, r1
    1a02:	2c f4       	brge	.+10     	; 0x1a0e <enuTimer2_init+0x48>
    1a04:	8b 81       	ldd	r24, Y+3	; 0x03
    1a06:	9c 81       	ldd	r25, Y+4	; 0x04
    1a08:	00 97       	sbiw	r24, 0x00	; 0
    1a0a:	61 f0       	breq	.+24     	; 0x1a24 <enuTimer2_init+0x5e>
    1a0c:	47 c0       	rjmp	.+142    	; 0x1a9c <enuTimer2_init+0xd6>
    1a0e:	2b 81       	ldd	r18, Y+3	; 0x03
    1a10:	3c 81       	ldd	r19, Y+4	; 0x04
    1a12:	22 30       	cpi	r18, 0x02	; 2
    1a14:	31 05       	cpc	r19, r1
    1a16:	21 f1       	breq	.+72     	; 0x1a60 <enuTimer2_init+0x9a>
    1a18:	8b 81       	ldd	r24, Y+3	; 0x03
    1a1a:	9c 81       	ldd	r25, Y+4	; 0x04
    1a1c:	83 30       	cpi	r24, 0x03	; 3
    1a1e:	91 05       	cpc	r25, r1
    1a20:	71 f1       	breq	.+92     	; 0x1a7e <enuTimer2_init+0xb8>
    1a22:	3c c0       	rjmp	.+120    	; 0x1a9c <enuTimer2_init+0xd6>
		{
		case OVF_MODE 				: ClrBit(TCCR2_REG, WGM01);ClrBit(TCCR2_REG, WGM00); break;
    1a24:	a5 e4       	ldi	r26, 0x45	; 69
    1a26:	b0 e0       	ldi	r27, 0x00	; 0
    1a28:	e5 e4       	ldi	r30, 0x45	; 69
    1a2a:	f0 e0       	ldi	r31, 0x00	; 0
    1a2c:	80 81       	ld	r24, Z
    1a2e:	87 7f       	andi	r24, 0xF7	; 247
    1a30:	8c 93       	st	X, r24
    1a32:	a5 e4       	ldi	r26, 0x45	; 69
    1a34:	b0 e0       	ldi	r27, 0x00	; 0
    1a36:	e5 e4       	ldi	r30, 0x45	; 69
    1a38:	f0 e0       	ldi	r31, 0x00	; 0
    1a3a:	80 81       	ld	r24, Z
    1a3c:	8f 7b       	andi	r24, 0xBF	; 191
    1a3e:	8c 93       	st	X, r24
    1a40:	30 c0       	rjmp	.+96     	; 0x1aa2 <enuTimer2_init+0xdc>
		case PHASE_CORRECT_PWM_MODE : ClrBit(TCCR2_REG, WGM01);SetBit(TCCR2_REG, WGM00); break;
    1a42:	a5 e4       	ldi	r26, 0x45	; 69
    1a44:	b0 e0       	ldi	r27, 0x00	; 0
    1a46:	e5 e4       	ldi	r30, 0x45	; 69
    1a48:	f0 e0       	ldi	r31, 0x00	; 0
    1a4a:	80 81       	ld	r24, Z
    1a4c:	87 7f       	andi	r24, 0xF7	; 247
    1a4e:	8c 93       	st	X, r24
    1a50:	a5 e4       	ldi	r26, 0x45	; 69
    1a52:	b0 e0       	ldi	r27, 0x00	; 0
    1a54:	e5 e4       	ldi	r30, 0x45	; 69
    1a56:	f0 e0       	ldi	r31, 0x00	; 0
    1a58:	80 81       	ld	r24, Z
    1a5a:	80 64       	ori	r24, 0x40	; 64
    1a5c:	8c 93       	st	X, r24
    1a5e:	21 c0       	rjmp	.+66     	; 0x1aa2 <enuTimer2_init+0xdc>
		case CTC_MODE 				: SetBit(TCCR2_REG, WGM01);ClrBit(TCCR2_REG, WGM00); break;
    1a60:	a5 e4       	ldi	r26, 0x45	; 69
    1a62:	b0 e0       	ldi	r27, 0x00	; 0
    1a64:	e5 e4       	ldi	r30, 0x45	; 69
    1a66:	f0 e0       	ldi	r31, 0x00	; 0
    1a68:	80 81       	ld	r24, Z
    1a6a:	88 60       	ori	r24, 0x08	; 8
    1a6c:	8c 93       	st	X, r24
    1a6e:	a5 e4       	ldi	r26, 0x45	; 69
    1a70:	b0 e0       	ldi	r27, 0x00	; 0
    1a72:	e5 e4       	ldi	r30, 0x45	; 69
    1a74:	f0 e0       	ldi	r31, 0x00	; 0
    1a76:	80 81       	ld	r24, Z
    1a78:	8f 7b       	andi	r24, 0xBF	; 191
    1a7a:	8c 93       	st	X, r24
    1a7c:	12 c0       	rjmp	.+36     	; 0x1aa2 <enuTimer2_init+0xdc>
		case FAST_PWM_MODE 			: SetBit(TCCR2_REG, WGM01);SetBit(TCCR2_REG, WGM00); break;
    1a7e:	a5 e4       	ldi	r26, 0x45	; 69
    1a80:	b0 e0       	ldi	r27, 0x00	; 0
    1a82:	e5 e4       	ldi	r30, 0x45	; 69
    1a84:	f0 e0       	ldi	r31, 0x00	; 0
    1a86:	80 81       	ld	r24, Z
    1a88:	88 60       	ori	r24, 0x08	; 8
    1a8a:	8c 93       	st	X, r24
    1a8c:	a5 e4       	ldi	r26, 0x45	; 69
    1a8e:	b0 e0       	ldi	r27, 0x00	; 0
    1a90:	e5 e4       	ldi	r30, 0x45	; 69
    1a92:	f0 e0       	ldi	r31, 0x00	; 0
    1a94:	80 81       	ld	r24, Z
    1a96:	80 64       	ori	r24, 0x40	; 64
    1a98:	8c 93       	st	X, r24
    1a9a:	03 c0       	rjmp	.+6      	; 0x1aa2 <enuTimer2_init+0xdc>
		default 					: errorStatus = TIMER_NOK; break;
    1a9c:	19 82       	std	Y+1, r1	; 0x01
    1a9e:	01 c0       	rjmp	.+2      	; 0x1aa2 <enuTimer2_init+0xdc>
		}
	}
	else
	{
		errorStatus = TIMER_NOK;
    1aa0:	19 82       	std	Y+1, r1	; 0x01
	}
	return errorStatus;
    1aa2:	89 81       	ldd	r24, Y+1	; 0x01
}
    1aa4:	0f 90       	pop	r0
    1aa6:	0f 90       	pop	r0
    1aa8:	0f 90       	pop	r0
    1aaa:	0f 90       	pop	r0
    1aac:	cf 91       	pop	r28
    1aae:	df 91       	pop	r29
    1ab0:	08 95       	ret

00001ab2 <u8Timer2_setPrescallar>:


/*************************************************************************************************************/
enu_timerStatus_t u8Timer2_setPrescallar(enu_timerPrescalar_t Copy_enPrescal)
{
    1ab2:	df 93       	push	r29
    1ab4:	cf 93       	push	r28
    1ab6:	00 d0       	rcall	.+0      	; 0x1ab8 <u8Timer2_setPrescallar+0x6>
    1ab8:	0f 92       	push	r0
    1aba:	cd b7       	in	r28, 0x3d	; 61
    1abc:	de b7       	in	r29, 0x3e	; 62
    1abe:	8b 83       	std	Y+3, r24	; 0x03
	enu_timerStatus_t errorStatus = TIMER_OK;
    1ac0:	81 e0       	ldi	r24, 0x01	; 1
    1ac2:	8a 83       	std	Y+2, r24	; 0x02
	Uint8_t temp_reg;
	if(Copy_enPrescal < TIMER_PRESCALR_INVALID)
    1ac4:	8b 81       	ldd	r24, Y+3	; 0x03
    1ac6:	88 30       	cpi	r24, 0x08	; 8
    1ac8:	e0 f4       	brcc	.+56     	; 0x1b02 <u8Timer2_setPrescallar+0x50>
	{
		global_prescaller = Copy_enPrescal;
    1aca:	8b 81       	ldd	r24, Y+3	; 0x03
    1acc:	80 93 e3 03 	sts	0x03E3, r24
		if (global_timerStatus == RUNNING)
    1ad0:	80 91 e4 03 	lds	r24, 0x03E4
    1ad4:	81 30       	cpi	r24, 0x01	; 1
    1ad6:	b1 f4       	brne	.+44     	; 0x1b04 <u8Timer2_setPrescallar+0x52>
		{
			temp_reg = TCCR2_REG;		 // read
    1ad8:	e5 e4       	ldi	r30, 0x45	; 69
    1ada:	f0 e0       	ldi	r31, 0x00	; 0
    1adc:	80 81       	ld	r24, Z
    1ade:	89 83       	std	Y+1, r24	; 0x01
			temp_reg &= PRESCALLER_CLR_MSK;  // mod
    1ae0:	89 81       	ldd	r24, Y+1	; 0x01
    1ae2:	88 7f       	andi	r24, 0xF8	; 248
    1ae4:	89 83       	std	Y+1, r24	; 0x01
			temp_reg |=  global_prescaller << PRESCALLER_OFFSET; // mod
    1ae6:	90 91 e3 03 	lds	r25, 0x03E3
    1aea:	89 81       	ldd	r24, Y+1	; 0x01
    1aec:	89 2b       	or	r24, r25
    1aee:	89 83       	std	Y+1, r24	; 0x01
			TCCR2_REG |= temp_reg;		// write
    1af0:	a5 e4       	ldi	r26, 0x45	; 69
    1af2:	b0 e0       	ldi	r27, 0x00	; 0
    1af4:	e5 e4       	ldi	r30, 0x45	; 69
    1af6:	f0 e0       	ldi	r31, 0x00	; 0
    1af8:	90 81       	ld	r25, Z
    1afa:	89 81       	ldd	r24, Y+1	; 0x01
    1afc:	89 2b       	or	r24, r25
    1afe:	8c 93       	st	X, r24
    1b00:	01 c0       	rjmp	.+2      	; 0x1b04 <u8Timer2_setPrescallar+0x52>
			/* do nothing */
		}
	}
	else
	{
		errorStatus = TIMER_NOK;
    1b02:	1a 82       	std	Y+2, r1	; 0x02
	}
	return errorStatus;
    1b04:	8a 81       	ldd	r24, Y+2	; 0x02
}
    1b06:	0f 90       	pop	r0
    1b08:	0f 90       	pop	r0
    1b0a:	0f 90       	pop	r0
    1b0c:	cf 91       	pop	r28
    1b0e:	df 91       	pop	r29
    1b10:	08 95       	ret

00001b12 <vidTimer2_OvfIrqEnable>:

/*************************************************************************************************************/
enu_timerStatus_t vidTimer2_OvfIrqEnable(void)
{
    1b12:	df 93       	push	r29
    1b14:	cf 93       	push	r28
    1b16:	0f 92       	push	r0
    1b18:	cd b7       	in	r28, 0x3d	; 61
    1b1a:	de b7       	in	r29, 0x3e	; 62
	enu_timerStatus_t errorStatus = TIMER_OK;
    1b1c:	81 e0       	ldi	r24, 0x01	; 1
    1b1e:	89 83       	std	Y+1, r24	; 0x01

	SetBit(TIFR_REG, 6);
    1b20:	a8 e5       	ldi	r26, 0x58	; 88
    1b22:	b0 e0       	ldi	r27, 0x00	; 0
    1b24:	e8 e5       	ldi	r30, 0x58	; 88
    1b26:	f0 e0       	ldi	r31, 0x00	; 0
    1b28:	80 81       	ld	r24, Z
    1b2a:	80 64       	ori	r24, 0x40	; 64
    1b2c:	8c 93       	st	X, r24
	SetBit(TIMSK_REG, TOIE2);
    1b2e:	a9 e5       	ldi	r26, 0x59	; 89
    1b30:	b0 e0       	ldi	r27, 0x00	; 0
    1b32:	e9 e5       	ldi	r30, 0x59	; 89
    1b34:	f0 e0       	ldi	r31, 0x00	; 0
    1b36:	80 81       	ld	r24, Z
    1b38:	80 64       	ori	r24, 0x40	; 64
    1b3a:	8c 93       	st	X, r24
//	SetBit(SREG_REG, 7);

	return errorStatus;
    1b3c:	89 81       	ldd	r24, Y+1	; 0x01
}
    1b3e:	0f 90       	pop	r0
    1b40:	cf 91       	pop	r28
    1b42:	df 91       	pop	r29
    1b44:	08 95       	ret

00001b46 <vidTimer2_OvfIrqDisable>:

/*************************************************************************************************************/
enu_timerStatus_t vidTimer2_OvfIrqDisable(void)
{
    1b46:	df 93       	push	r29
    1b48:	cf 93       	push	r28
    1b4a:	0f 92       	push	r0
    1b4c:	cd b7       	in	r28, 0x3d	; 61
    1b4e:	de b7       	in	r29, 0x3e	; 62
	enu_timerStatus_t errorStatus = TIMER_OK;
    1b50:	81 e0       	ldi	r24, 0x01	; 1
    1b52:	89 83       	std	Y+1, r24	; 0x01

	ClrBit(TIMSK_REG, TOIE2);
    1b54:	a9 e5       	ldi	r26, 0x59	; 89
    1b56:	b0 e0       	ldi	r27, 0x00	; 0
    1b58:	e9 e5       	ldi	r30, 0x59	; 89
    1b5a:	f0 e0       	ldi	r31, 0x00	; 0
    1b5c:	80 81       	ld	r24, Z
    1b5e:	8f 7b       	andi	r24, 0xBF	; 191
    1b60:	8c 93       	st	X, r24

	return errorStatus;
    1b62:	89 81       	ldd	r24, Y+1	; 0x01
}
    1b64:	0f 90       	pop	r0
    1b66:	cf 91       	pop	r28
    1b68:	df 91       	pop	r29
    1b6a:	08 95       	ret

00001b6c <vidTimer2_start>:
//}


/*************************************************************************************************************/
enu_timerStatus_t vidTimer2_start(void)
{
    1b6c:	df 93       	push	r29
    1b6e:	cf 93       	push	r28
    1b70:	0f 92       	push	r0
    1b72:	cd b7       	in	r28, 0x3d	; 61
    1b74:	de b7       	in	r29, 0x3e	; 62
	enu_timerStatus_t errorStatus = TIMER_OK;
    1b76:	81 e0       	ldi	r24, 0x01	; 1
    1b78:	89 83       	std	Y+1, r24	; 0x01

	TCCR2_REG |=  global_prescaller << PRESCALLER_OFFSET;
    1b7a:	a5 e4       	ldi	r26, 0x45	; 69
    1b7c:	b0 e0       	ldi	r27, 0x00	; 0
    1b7e:	e5 e4       	ldi	r30, 0x45	; 69
    1b80:	f0 e0       	ldi	r31, 0x00	; 0
    1b82:	90 81       	ld	r25, Z
    1b84:	80 91 e3 03 	lds	r24, 0x03E3
    1b88:	89 2b       	or	r24, r25
    1b8a:	8c 93       	st	X, r24
	global_timerStatus  = RUNNING;
    1b8c:	81 e0       	ldi	r24, 0x01	; 1
    1b8e:	80 93 e4 03 	sts	0x03E4, r24

	return errorStatus;
    1b92:	89 81       	ldd	r24, Y+1	; 0x01
}
    1b94:	0f 90       	pop	r0
    1b96:	cf 91       	pop	r28
    1b98:	df 91       	pop	r29
    1b9a:	08 95       	ret

00001b9c <vidTimer2_stop>:

/*************************************************************************************************************/
enu_timerStatus_t vidTimer2_stop(void)
{
    1b9c:	df 93       	push	r29
    1b9e:	cf 93       	push	r28
    1ba0:	0f 92       	push	r0
    1ba2:	cd b7       	in	r28, 0x3d	; 61
    1ba4:	de b7       	in	r29, 0x3e	; 62
	enu_timerStatus_t errorStatus = TIMER_OK;
    1ba6:	81 e0       	ldi	r24, 0x01	; 1
    1ba8:	89 83       	std	Y+1, r24	; 0x01

	TCCR2_REG &=  PRESCALLER_CLR_MSK;
    1baa:	a5 e4       	ldi	r26, 0x45	; 69
    1bac:	b0 e0       	ldi	r27, 0x00	; 0
    1bae:	e5 e4       	ldi	r30, 0x45	; 69
    1bb0:	f0 e0       	ldi	r31, 0x00	; 0
    1bb2:	80 81       	ld	r24, Z
    1bb4:	88 7f       	andi	r24, 0xF8	; 248
    1bb6:	8c 93       	st	X, r24
	global_timerStatus = STOPPED;
    1bb8:	10 92 e4 03 	sts	0x03E4, r1

	return errorStatus;
    1bbc:	89 81       	ldd	r24, Y+1	; 0x01
}
    1bbe:	0f 90       	pop	r0
    1bc0:	cf 91       	pop	r28
    1bc2:	df 91       	pop	r29
    1bc4:	08 95       	ret

00001bc6 <u8Timer2_setTime_ms>:
/*************************************************************************************************************/
enu_timerStatus_t u8Timer2_setTime_ms(Uint32_t u32_time_ms)
{
    1bc6:	df 93       	push	r29
    1bc8:	cf 93       	push	r28
    1bca:	cd b7       	in	r28, 0x3d	; 61
    1bcc:	de b7       	in	r29, 0x3e	; 62
    1bce:	2d 97       	sbiw	r28, 0x0d	; 13
    1bd0:	0f b6       	in	r0, 0x3f	; 63
    1bd2:	f8 94       	cli
    1bd4:	de bf       	out	0x3e, r29	; 62
    1bd6:	0f be       	out	0x3f, r0	; 63
    1bd8:	cd bf       	out	0x3d, r28	; 61
    1bda:	6a 87       	std	Y+10, r22	; 0x0a
    1bdc:	7b 87       	std	Y+11, r23	; 0x0b
    1bde:	8c 87       	std	Y+12, r24	; 0x0c
    1be0:	9d 87       	std	Y+13, r25	; 0x0d
	enu_timerStatus_t errorStatus = TIMER_OK;
    1be2:	81 e0       	ldi	r24, 0x01	; 1
    1be4:	89 87       	std	Y+9, r24	; 0x09
	Uint32_t desired_ticks;
	Float32_t tick_time_ms;
	if( u32_time_ms < MAX_TIM_MS )
    1be6:	8a 85       	ldd	r24, Y+10	; 0x0a
    1be8:	9b 85       	ldd	r25, Y+11	; 0x0b
    1bea:	ac 85       	ldd	r26, Y+12	; 0x0c
    1bec:	bd 85       	ldd	r27, Y+13	; 0x0d
    1bee:	88 38       	cpi	r24, 0x88	; 136
    1bf0:	23 e1       	ldi	r18, 0x13	; 19
    1bf2:	92 07       	cpc	r25, r18
    1bf4:	20 e0       	ldi	r18, 0x00	; 0
    1bf6:	a2 07       	cpc	r26, r18
    1bf8:	20 e0       	ldi	r18, 0x00	; 0
    1bfa:	b2 07       	cpc	r27, r18
    1bfc:	08 f0       	brcs	.+2      	; 0x1c00 <u8Timer2_setTime_ms+0x3a>
    1bfe:	a2 c0       	rjmp	.+324    	; 0x1d44 <u8Timer2_setTime_ms+0x17e>
	{
		tick_time_ms = (Float32_t)prescaller_map[global_prescaller] / ((Uint32_t)F_CPU / 1000U)  ;
    1c00:	80 91 e3 03 	lds	r24, 0x03E3
    1c04:	88 2f       	mov	r24, r24
    1c06:	90 e0       	ldi	r25, 0x00	; 0
    1c08:	88 0f       	add	r24, r24
    1c0a:	99 1f       	adc	r25, r25
    1c0c:	fc 01       	movw	r30, r24
    1c0e:	e0 5f       	subi	r30, 0xF0	; 240
    1c10:	fd 4f       	sbci	r31, 0xFD	; 253
    1c12:	80 81       	ld	r24, Z
    1c14:	91 81       	ldd	r25, Z+1	; 0x01
    1c16:	cc 01       	movw	r24, r24
    1c18:	a0 e0       	ldi	r26, 0x00	; 0
    1c1a:	b0 e0       	ldi	r27, 0x00	; 0
    1c1c:	bc 01       	movw	r22, r24
    1c1e:	cd 01       	movw	r24, r26
    1c20:	0e 94 a9 04 	call	0x952	; 0x952 <__floatunsisf>
    1c24:	dc 01       	movw	r26, r24
    1c26:	cb 01       	movw	r24, r22
    1c28:	bc 01       	movw	r22, r24
    1c2a:	cd 01       	movw	r24, r26
    1c2c:	20 e0       	ldi	r18, 0x00	; 0
    1c2e:	30 e0       	ldi	r19, 0x00	; 0
    1c30:	4a ef       	ldi	r20, 0xFA	; 250
    1c32:	55 e4       	ldi	r21, 0x45	; 69
    1c34:	0e 94 19 03 	call	0x632	; 0x632 <__divsf3>
    1c38:	dc 01       	movw	r26, r24
    1c3a:	cb 01       	movw	r24, r22
    1c3c:	89 83       	std	Y+1, r24	; 0x01
    1c3e:	9a 83       	std	Y+2, r25	; 0x02
    1c40:	ab 83       	std	Y+3, r26	; 0x03
    1c42:	bc 83       	std	Y+4, r27	; 0x04
		desired_ticks = u32_time_ms / tick_time_ms;
    1c44:	6a 85       	ldd	r22, Y+10	; 0x0a
    1c46:	7b 85       	ldd	r23, Y+11	; 0x0b
    1c48:	8c 85       	ldd	r24, Y+12	; 0x0c
    1c4a:	9d 85       	ldd	r25, Y+13	; 0x0d
    1c4c:	0e 94 a9 04 	call	0x952	; 0x952 <__floatunsisf>
    1c50:	dc 01       	movw	r26, r24
    1c52:	cb 01       	movw	r24, r22
    1c54:	bc 01       	movw	r22, r24
    1c56:	cd 01       	movw	r24, r26
    1c58:	29 81       	ldd	r18, Y+1	; 0x01
    1c5a:	3a 81       	ldd	r19, Y+2	; 0x02
    1c5c:	4b 81       	ldd	r20, Y+3	; 0x03
    1c5e:	5c 81       	ldd	r21, Y+4	; 0x04
    1c60:	0e 94 19 03 	call	0x632	; 0x632 <__divsf3>
    1c64:	dc 01       	movw	r26, r24
    1c66:	cb 01       	movw	r24, r22
    1c68:	bc 01       	movw	r22, r24
    1c6a:	cd 01       	movw	r24, r26
    1c6c:	0e 94 49 00 	call	0x92	; 0x92 <__fixunssfsi>
    1c70:	dc 01       	movw	r26, r24
    1c72:	cb 01       	movw	r24, r22
    1c74:	8d 83       	std	Y+5, r24	; 0x05
    1c76:	9e 83       	std	Y+6, r25	; 0x06
    1c78:	af 83       	std	Y+7, r26	; 0x07
    1c7a:	b8 87       	std	Y+8, r27	; 0x08

		/* Compare ticks with OVF_ticks */
		if(desired_ticks == OVF_TICKS)
    1c7c:	8d 81       	ldd	r24, Y+5	; 0x05
    1c7e:	9e 81       	ldd	r25, Y+6	; 0x06
    1c80:	af 81       	ldd	r26, Y+7	; 0x07
    1c82:	b8 85       	ldd	r27, Y+8	; 0x08
    1c84:	80 30       	cpi	r24, 0x00	; 0
    1c86:	21 e0       	ldi	r18, 0x01	; 1
    1c88:	92 07       	cpc	r25, r18
    1c8a:	20 e0       	ldi	r18, 0x00	; 0
    1c8c:	a2 07       	cpc	r26, r18
    1c8e:	20 e0       	ldi	r18, 0x00	; 0
    1c90:	b2 07       	cpc	r27, r18
    1c92:	21 f4       	brne	.+8      	; 0x1c9c <u8Timer2_setTime_ms+0xd6>
		{
			global_ovf = 1;
    1c94:	81 e0       	ldi	r24, 0x01	; 1
    1c96:	80 93 0f 02 	sts	0x020F, r24
    1c9a:	55 c0       	rjmp	.+170    	; 0x1d46 <u8Timer2_setTime_ms+0x180>
		}
		else if(desired_ticks < OVF_TICKS)
    1c9c:	8d 81       	ldd	r24, Y+5	; 0x05
    1c9e:	9e 81       	ldd	r25, Y+6	; 0x06
    1ca0:	af 81       	ldd	r26, Y+7	; 0x07
    1ca2:	b8 85       	ldd	r27, Y+8	; 0x08
    1ca4:	8f 3f       	cpi	r24, 0xFF	; 255
    1ca6:	91 05       	cpc	r25, r1
    1ca8:	a1 05       	cpc	r26, r1
    1caa:	b1 05       	cpc	r27, r1
    1cac:	09 f0       	breq	.+2      	; 0x1cb0 <u8Timer2_setTime_ms+0xea>
    1cae:	a8 f4       	brcc	.+42     	; 0x1cda <u8Timer2_setTime_ms+0x114>
		{
			preload = OVF_TICKS - desired_ticks;
    1cb0:	2d 81       	ldd	r18, Y+5	; 0x05
    1cb2:	3e 81       	ldd	r19, Y+6	; 0x06
    1cb4:	80 e0       	ldi	r24, 0x00	; 0
    1cb6:	91 e0       	ldi	r25, 0x01	; 1
    1cb8:	82 1b       	sub	r24, r18
    1cba:	93 0b       	sbc	r25, r19
    1cbc:	90 93 d4 03 	sts	0x03D4, r25
    1cc0:	80 93 d3 03 	sts	0x03D3, r24
			TCNT2_REG = preload;
    1cc4:	e4 e4       	ldi	r30, 0x44	; 68
    1cc6:	f0 e0       	ldi	r31, 0x00	; 0
    1cc8:	80 91 d3 03 	lds	r24, 0x03D3
    1ccc:	90 91 d4 03 	lds	r25, 0x03D4
    1cd0:	80 83       	st	Z, r24
			global_ovf = 1;
    1cd2:	81 e0       	ldi	r24, 0x01	; 1
    1cd4:	80 93 0f 02 	sts	0x020F, r24
    1cd8:	36 c0       	rjmp	.+108    	; 0x1d46 <u8Timer2_setTime_ms+0x180>
		}
		else if(desired_ticks > OVF_TICKS)
    1cda:	8d 81       	ldd	r24, Y+5	; 0x05
    1cdc:	9e 81       	ldd	r25, Y+6	; 0x06
    1cde:	af 81       	ldd	r26, Y+7	; 0x07
    1ce0:	b8 85       	ldd	r27, Y+8	; 0x08
    1ce2:	81 30       	cpi	r24, 0x01	; 1
    1ce4:	21 e0       	ldi	r18, 0x01	; 1
    1ce6:	92 07       	cpc	r25, r18
    1ce8:	20 e0       	ldi	r18, 0x00	; 0
    1cea:	a2 07       	cpc	r26, r18
    1cec:	20 e0       	ldi	r18, 0x00	; 0
    1cee:	b2 07       	cpc	r27, r18
    1cf0:	50 f1       	brcs	.+84     	; 0x1d46 <u8Timer2_setTime_ms+0x180>
		{
			global_ovf = (Uint8_t)(desired_ticks / OVF_TICKS);
    1cf2:	8d 81       	ldd	r24, Y+5	; 0x05
    1cf4:	9e 81       	ldd	r25, Y+6	; 0x06
    1cf6:	af 81       	ldd	r26, Y+7	; 0x07
    1cf8:	b8 85       	ldd	r27, Y+8	; 0x08
    1cfa:	89 2f       	mov	r24, r25
    1cfc:	9a 2f       	mov	r25, r26
    1cfe:	ab 2f       	mov	r26, r27
    1d00:	bb 27       	eor	r27, r27
    1d02:	80 93 0f 02 	sts	0x020F, r24
			preload = (uint16_t)(OVF_TICKS - (desired_ticks % OVF_TICKS ));
    1d06:	8d 81       	ldd	r24, Y+5	; 0x05
    1d08:	9e 81       	ldd	r25, Y+6	; 0x06
    1d0a:	9c 01       	movw	r18, r24
    1d0c:	30 70       	andi	r19, 0x00	; 0
    1d0e:	80 e0       	ldi	r24, 0x00	; 0
    1d10:	91 e0       	ldi	r25, 0x01	; 1
    1d12:	82 1b       	sub	r24, r18
    1d14:	93 0b       	sbc	r25, r19
    1d16:	90 93 d4 03 	sts	0x03D4, r25
    1d1a:	80 93 d3 03 	sts	0x03D3, r24
			TCNT2_REG = preload;
    1d1e:	e4 e4       	ldi	r30, 0x44	; 68
    1d20:	f0 e0       	ldi	r31, 0x00	; 0
    1d22:	80 91 d3 03 	lds	r24, 0x03D3
    1d26:	90 91 d4 03 	lds	r25, 0x03D4
    1d2a:	80 83       	st	Z, r24
			if (preload > 0U)
    1d2c:	80 91 d3 03 	lds	r24, 0x03D3
    1d30:	90 91 d4 03 	lds	r25, 0x03D4
    1d34:	00 97       	sbiw	r24, 0x00	; 0
    1d36:	39 f0       	breq	.+14     	; 0x1d46 <u8Timer2_setTime_ms+0x180>
			{
				global_ovf++;
    1d38:	80 91 0f 02 	lds	r24, 0x020F
    1d3c:	8f 5f       	subi	r24, 0xFF	; 255
    1d3e:	80 93 0f 02 	sts	0x020F, r24
    1d42:	01 c0       	rjmp	.+2      	; 0x1d46 <u8Timer2_setTime_ms+0x180>
			}
		}
	}
		else
		{
			errorStatus = TIMER_NOK;
    1d44:	19 86       	std	Y+9, r1	; 0x09
		}


		return errorStatus;
    1d46:	89 85       	ldd	r24, Y+9	; 0x09
	}
    1d48:	2d 96       	adiw	r28, 0x0d	; 13
    1d4a:	0f b6       	in	r0, 0x3f	; 63
    1d4c:	f8 94       	cli
    1d4e:	de bf       	out	0x3e, r29	; 62
    1d50:	0f be       	out	0x3f, r0	; 63
    1d52:	cd bf       	out	0x3d, r28	; 61
    1d54:	cf 91       	pop	r28
    1d56:	df 91       	pop	r29
    1d58:	08 95       	ret

00001d5a <MTIMER2_vidSynch>:

/*************************************************************************************************************/

void MTIMER2_vidSynch(void)
{
    1d5a:	df 93       	push	r29
    1d5c:	cf 93       	push	r28
    1d5e:	0f 92       	push	r0
    1d60:	cd b7       	in	r28, 0x3d	; 61
    1d62:	de b7       	in	r29, 0x3e	; 62
	Uint8_t counter = 0;
    1d64:	19 82       	std	Y+1, r1	; 0x01
    1d66:	17 c0       	rjmp	.+46     	; 0x1d96 <MTIMER2_vidSynch+0x3c>
	while(counter != global_ovf)
	{
		while(! GetBit(TIFR_REG, TOV2) );
    1d68:	e8 e5       	ldi	r30, 0x58	; 88
    1d6a:	f0 e0       	ldi	r31, 0x00	; 0
    1d6c:	80 81       	ld	r24, Z
    1d6e:	82 95       	swap	r24
    1d70:	86 95       	lsr	r24
    1d72:	86 95       	lsr	r24
    1d74:	83 70       	andi	r24, 0x03	; 3
    1d76:	88 2f       	mov	r24, r24
    1d78:	90 e0       	ldi	r25, 0x00	; 0
    1d7a:	81 70       	andi	r24, 0x01	; 1
    1d7c:	90 70       	andi	r25, 0x00	; 0
    1d7e:	00 97       	sbiw	r24, 0x00	; 0
    1d80:	99 f3       	breq	.-26     	; 0x1d68 <MTIMER2_vidSynch+0xe>
		SetBit(TIFR_REG, TOV2);
    1d82:	a8 e5       	ldi	r26, 0x58	; 88
    1d84:	b0 e0       	ldi	r27, 0x00	; 0
    1d86:	e8 e5       	ldi	r30, 0x58	; 88
    1d88:	f0 e0       	ldi	r31, 0x00	; 0
    1d8a:	80 81       	ld	r24, Z
    1d8c:	80 64       	ori	r24, 0x40	; 64
    1d8e:	8c 93       	st	X, r24
		counter++;
    1d90:	89 81       	ldd	r24, Y+1	; 0x01
    1d92:	8f 5f       	subi	r24, 0xFF	; 255
    1d94:	89 83       	std	Y+1, r24	; 0x01
/*************************************************************************************************************/

void MTIMER2_vidSynch(void)
{
	Uint8_t counter = 0;
	while(counter != global_ovf)
    1d96:	90 91 0f 02 	lds	r25, 0x020F
    1d9a:	89 81       	ldd	r24, Y+1	; 0x01
    1d9c:	89 17       	cp	r24, r25
    1d9e:	21 f7       	brne	.-56     	; 0x1d68 <MTIMER2_vidSynch+0xe>
	{
		while(! GetBit(TIFR_REG, TOV2) );
		SetBit(TIFR_REG, TOV2);
		counter++;
	}
}
    1da0:	0f 90       	pop	r0
    1da2:	cf 91       	pop	r28
    1da4:	df 91       	pop	r29
    1da6:	08 95       	ret

00001da8 <vidTimer2_setcbf_OVF>:


/*************************************************************************************************************/
void vidTimer2_setcbf_OVF(cbf_t cbf)
{
    1da8:	df 93       	push	r29
    1daa:	cf 93       	push	r28
    1dac:	00 d0       	rcall	.+0      	; 0x1dae <vidTimer2_setcbf_OVF+0x6>
    1dae:	cd b7       	in	r28, 0x3d	; 61
    1db0:	de b7       	in	r29, 0x3e	; 62
    1db2:	9a 83       	std	Y+2, r25	; 0x02
    1db4:	89 83       	std	Y+1, r24	; 0x01
	if (cbf != NULL)
    1db6:	89 81       	ldd	r24, Y+1	; 0x01
    1db8:	9a 81       	ldd	r25, Y+2	; 0x02
    1dba:	00 97       	sbiw	r24, 0x00	; 0
    1dbc:	31 f0       	breq	.+12     	; 0x1dca <vidTimer2_setcbf_OVF+0x22>
	{
		globalCallFunc = cbf;
    1dbe:	89 81       	ldd	r24, Y+1	; 0x01
    1dc0:	9a 81       	ldd	r25, Y+2	; 0x02
    1dc2:	90 93 d8 03 	sts	0x03D8, r25
    1dc6:	80 93 d7 03 	sts	0x03D7, r24
	}
	return;
}
    1dca:	0f 90       	pop	r0
    1dcc:	0f 90       	pop	r0
    1dce:	cf 91       	pop	r28
    1dd0:	df 91       	pop	r29
    1dd2:	08 95       	ret

00001dd4 <MTIMER_vidResetTCNT>:



void MTIMER_vidResetTCNT(void)
{
    1dd4:	df 93       	push	r29
    1dd6:	cf 93       	push	r28
    1dd8:	cd b7       	in	r28, 0x3d	; 61
    1dda:	de b7       	in	r29, 0x3e	; 62
	TCNT2_REG = 0;
    1ddc:	e4 e4       	ldi	r30, 0x44	; 68
    1dde:	f0 e0       	ldi	r31, 0x00	; 0
    1de0:	10 82       	st	Z, r1
}
    1de2:	cf 91       	pop	r28
    1de4:	df 91       	pop	r29
    1de6:	08 95       	ret

00001de8 <MTIMER_u8GetTCNT>:
Uint8_t MTIMER_u8GetTCNT(void)
{
    1de8:	df 93       	push	r29
    1dea:	cf 93       	push	r28
    1dec:	cd b7       	in	r28, 0x3d	; 61
    1dee:	de b7       	in	r29, 0x3e	; 62
	return TCNT2_REG;
    1df0:	e4 e4       	ldi	r30, 0x44	; 68
    1df2:	f0 e0       	ldi	r31, 0x00	; 0
    1df4:	80 81       	ld	r24, Z
}
    1df6:	cf 91       	pop	r28
    1df8:	df 91       	pop	r29
    1dfa:	08 95       	ret

00001dfc <GPT0_vidOvfInit>:
		1024
};


void GPT0_vidOvfInit (void)
{
    1dfc:	df 93       	push	r29
    1dfe:	cf 93       	push	r28
    1e00:	cd b7       	in	r28, 0x3d	; 61
    1e02:	de b7       	in	r29, 0x3e	; 62
	TCNT0_REG = 0;
    1e04:	e2 e5       	ldi	r30, 0x52	; 82
    1e06:	f0 e0       	ldi	r31, 0x00	; 0
    1e08:	10 82       	st	Z, r1
	ClrBit(TCCR0_REG, WGM01);
    1e0a:	a3 e5       	ldi	r26, 0x53	; 83
    1e0c:	b0 e0       	ldi	r27, 0x00	; 0
    1e0e:	e3 e5       	ldi	r30, 0x53	; 83
    1e10:	f0 e0       	ldi	r31, 0x00	; 0
    1e12:	80 81       	ld	r24, Z
    1e14:	87 7f       	andi	r24, 0xF7	; 247
    1e16:	8c 93       	st	X, r24
	ClrBit(TCCR0_REG, WGM00);
    1e18:	a3 e5       	ldi	r26, 0x53	; 83
    1e1a:	b0 e0       	ldi	r27, 0x00	; 0
    1e1c:	e3 e5       	ldi	r30, 0x53	; 83
    1e1e:	f0 e0       	ldi	r31, 0x00	; 0
    1e20:	80 81       	ld	r24, Z
    1e22:	8f 7b       	andi	r24, 0xBF	; 191
    1e24:	8c 93       	st	X, r24
}
    1e26:	cf 91       	pop	r28
    1e28:	df 91       	pop	r29
    1e2a:	08 95       	ret

00001e2c <GPT0_enuSetPrescallar>:


enu_timerStatus_t GPT0_enuSetPrescallar(enu_gpt0Prescalar_t Copy_enPrescal)
{
    1e2c:	df 93       	push	r29
    1e2e:	cf 93       	push	r28
    1e30:	00 d0       	rcall	.+0      	; 0x1e32 <GPT0_enuSetPrescallar+0x6>
    1e32:	0f 92       	push	r0
    1e34:	cd b7       	in	r28, 0x3d	; 61
    1e36:	de b7       	in	r29, 0x3e	; 62
    1e38:	8b 83       	std	Y+3, r24	; 0x03
	enu_timerStatus_t errorStatus = TIMER_OK;
    1e3a:	81 e0       	ldi	r24, 0x01	; 1
    1e3c:	8a 83       	std	Y+2, r24	; 0x02
	Uint8_t temp_reg;
	if(Copy_enPrescal < GPT0_PRESCALR_INVALID)
    1e3e:	8b 81       	ldd	r24, Y+3	; 0x03
    1e40:	88 30       	cpi	r24, 0x08	; 8
    1e42:	e0 f4       	brcc	.+56     	; 0x1e7c <GPT0_enuSetPrescallar+0x50>
	{
		gs_enu_gpt0_prescaller = Copy_enPrescal;
    1e44:	8b 81       	ldd	r24, Y+3	; 0x03
    1e46:	80 93 e5 03 	sts	0x03E5, r24
		if (gs_u8_gpt0_status == RUNNING)
    1e4a:	80 91 d9 03 	lds	r24, 0x03D9
    1e4e:	81 30       	cpi	r24, 0x01	; 1
    1e50:	b1 f4       	brne	.+44     	; 0x1e7e <GPT0_enuSetPrescallar+0x52>
		{
			temp_reg = TCCR0_REG;		 // read
    1e52:	e3 e5       	ldi	r30, 0x53	; 83
    1e54:	f0 e0       	ldi	r31, 0x00	; 0
    1e56:	80 81       	ld	r24, Z
    1e58:	89 83       	std	Y+1, r24	; 0x01
			temp_reg &= PRESCALLER_CLR_MSK;  // mod
    1e5a:	89 81       	ldd	r24, Y+1	; 0x01
    1e5c:	88 7f       	andi	r24, 0xF8	; 248
    1e5e:	89 83       	std	Y+1, r24	; 0x01
			temp_reg |=  gs_enu_gpt0_prescaller << PRESCALLER_OFFSET; // mod
    1e60:	90 91 e5 03 	lds	r25, 0x03E5
    1e64:	89 81       	ldd	r24, Y+1	; 0x01
    1e66:	89 2b       	or	r24, r25
    1e68:	89 83       	std	Y+1, r24	; 0x01
			TCCR0_REG |= temp_reg;		// write
    1e6a:	a3 e5       	ldi	r26, 0x53	; 83
    1e6c:	b0 e0       	ldi	r27, 0x00	; 0
    1e6e:	e3 e5       	ldi	r30, 0x53	; 83
    1e70:	f0 e0       	ldi	r31, 0x00	; 0
    1e72:	90 81       	ld	r25, Z
    1e74:	89 81       	ldd	r24, Y+1	; 0x01
    1e76:	89 2b       	or	r24, r25
    1e78:	8c 93       	st	X, r24
    1e7a:	01 c0       	rjmp	.+2      	; 0x1e7e <GPT0_enuSetPrescallar+0x52>
			/* do nothing */
		}
	}
	else
	{
		errorStatus = TIMER_NOK;
    1e7c:	1a 82       	std	Y+2, r1	; 0x02
	}
	return errorStatus;
    1e7e:	8a 81       	ldd	r24, Y+2	; 0x02
}
    1e80:	0f 90       	pop	r0
    1e82:	0f 90       	pop	r0
    1e84:	0f 90       	pop	r0
    1e86:	cf 91       	pop	r28
    1e88:	df 91       	pop	r29
    1e8a:	08 95       	ret

00001e8c <GPT0_vidOvfIrqEnable>:


void GPT0_vidOvfIrqEnable(void)
{
    1e8c:	df 93       	push	r29
    1e8e:	cf 93       	push	r28
    1e90:	cd b7       	in	r28, 0x3d	; 61
    1e92:	de b7       	in	r29, 0x3e	; 62
	SetBit(TIFR_REG, TOV0);
    1e94:	a8 e5       	ldi	r26, 0x58	; 88
    1e96:	b0 e0       	ldi	r27, 0x00	; 0
    1e98:	e8 e5       	ldi	r30, 0x58	; 88
    1e9a:	f0 e0       	ldi	r31, 0x00	; 0
    1e9c:	80 81       	ld	r24, Z
    1e9e:	81 60       	ori	r24, 0x01	; 1
    1ea0:	8c 93       	st	X, r24
	SetBit(TIMSK_REG, TOIE0);
    1ea2:	a9 e5       	ldi	r26, 0x59	; 89
    1ea4:	b0 e0       	ldi	r27, 0x00	; 0
    1ea6:	e9 e5       	ldi	r30, 0x59	; 89
    1ea8:	f0 e0       	ldi	r31, 0x00	; 0
    1eaa:	80 81       	ld	r24, Z
    1eac:	81 60       	ori	r24, 0x01	; 1
    1eae:	8c 93       	st	X, r24
}
    1eb0:	cf 91       	pop	r28
    1eb2:	df 91       	pop	r29
    1eb4:	08 95       	ret

00001eb6 <GPT0_vidStart>:


void GPT0_vidStart(void)
{
    1eb6:	df 93       	push	r29
    1eb8:	cf 93       	push	r28
    1eba:	cd b7       	in	r28, 0x3d	; 61
    1ebc:	de b7       	in	r29, 0x3e	; 62
	TCCR0_REG |=  gs_enu_gpt0_prescaller << PRESCALLER_OFFSET;
    1ebe:	a3 e5       	ldi	r26, 0x53	; 83
    1ec0:	b0 e0       	ldi	r27, 0x00	; 0
    1ec2:	e3 e5       	ldi	r30, 0x53	; 83
    1ec4:	f0 e0       	ldi	r31, 0x00	; 0
    1ec6:	90 81       	ld	r25, Z
    1ec8:	80 91 e5 03 	lds	r24, 0x03E5
    1ecc:	89 2b       	or	r24, r25
    1ece:	8c 93       	st	X, r24
	gs_u8_gpt0_status  = RUNNING;
    1ed0:	81 e0       	ldi	r24, 0x01	; 1
    1ed2:	80 93 d9 03 	sts	0x03D9, r24
}
    1ed6:	cf 91       	pop	r28
    1ed8:	df 91       	pop	r29
    1eda:	08 95       	ret

00001edc <GPT0_vidStop>:


void GPT0_vidStop(void)
{
    1edc:	df 93       	push	r29
    1ede:	cf 93       	push	r28
    1ee0:	cd b7       	in	r28, 0x3d	; 61
    1ee2:	de b7       	in	r29, 0x3e	; 62
	TCCR0_REG &=  PRESCALLER_CLR_MSK;
    1ee4:	a3 e5       	ldi	r26, 0x53	; 83
    1ee6:	b0 e0       	ldi	r27, 0x00	; 0
    1ee8:	e3 e5       	ldi	r30, 0x53	; 83
    1eea:	f0 e0       	ldi	r31, 0x00	; 0
    1eec:	80 81       	ld	r24, Z
    1eee:	88 7f       	andi	r24, 0xF8	; 248
    1ef0:	8c 93       	st	X, r24
	TCNT0_REG = gs_u16_preload_gpt0;
    1ef2:	e2 e5       	ldi	r30, 0x52	; 82
    1ef4:	f0 e0       	ldi	r31, 0x00	; 0
    1ef6:	80 91 d5 03 	lds	r24, 0x03D5
    1efa:	90 91 d6 03 	lds	r25, 0x03D6
    1efe:	80 83       	st	Z, r24
	gs_u8_gpt0_status = STOPPED;
    1f00:	10 92 d9 03 	sts	0x03D9, r1
}
    1f04:	cf 91       	pop	r28
    1f06:	df 91       	pop	r29
    1f08:	08 95       	ret

00001f0a <GPT0_enuSetTime_ms>:


enu_timerStatus_t GPT0_enuSetTime_ms(Uint32_t u32_time_ms)
{
    1f0a:	df 93       	push	r29
    1f0c:	cf 93       	push	r28
    1f0e:	cd b7       	in	r28, 0x3d	; 61
    1f10:	de b7       	in	r29, 0x3e	; 62
    1f12:	2d 97       	sbiw	r28, 0x0d	; 13
    1f14:	0f b6       	in	r0, 0x3f	; 63
    1f16:	f8 94       	cli
    1f18:	de bf       	out	0x3e, r29	; 62
    1f1a:	0f be       	out	0x3f, r0	; 63
    1f1c:	cd bf       	out	0x3d, r28	; 61
    1f1e:	6a 87       	std	Y+10, r22	; 0x0a
    1f20:	7b 87       	std	Y+11, r23	; 0x0b
    1f22:	8c 87       	std	Y+12, r24	; 0x0c
    1f24:	9d 87       	std	Y+13, r25	; 0x0d
	enu_timerStatus_t errorStatus = TIMER_OK;
    1f26:	81 e0       	ldi	r24, 0x01	; 1
    1f28:	89 87       	std	Y+9, r24	; 0x09
	Uint32_t desired_ticks;
	Float32_t tick_time_ms;
	if( u32_time_ms < MAX_TIM_MS )
    1f2a:	8a 85       	ldd	r24, Y+10	; 0x0a
    1f2c:	9b 85       	ldd	r25, Y+11	; 0x0b
    1f2e:	ac 85       	ldd	r26, Y+12	; 0x0c
    1f30:	bd 85       	ldd	r27, Y+13	; 0x0d
    1f32:	88 38       	cpi	r24, 0x88	; 136
    1f34:	23 e1       	ldi	r18, 0x13	; 19
    1f36:	92 07       	cpc	r25, r18
    1f38:	20 e0       	ldi	r18, 0x00	; 0
    1f3a:	a2 07       	cpc	r26, r18
    1f3c:	20 e0       	ldi	r18, 0x00	; 0
    1f3e:	b2 07       	cpc	r27, r18
    1f40:	08 f0       	brcs	.+2      	; 0x1f44 <GPT0_enuSetTime_ms+0x3a>
    1f42:	a2 c0       	rjmp	.+324    	; 0x2088 <GPT0_enuSetTime_ms+0x17e>
	{
		tick_time_ms = (Float32_t)gs_gpt0_prescaller_map[gs_enu_gpt0_prescaller] / ((Uint32_t)F_CPU / 1000U)  ;
    1f44:	80 91 e5 03 	lds	r24, 0x03E5
    1f48:	88 2f       	mov	r24, r24
    1f4a:	90 e0       	ldi	r25, 0x00	; 0
    1f4c:	88 0f       	add	r24, r24
    1f4e:	99 1f       	adc	r25, r25
    1f50:	fc 01       	movw	r30, r24
    1f52:	e0 5e       	subi	r30, 0xE0	; 224
    1f54:	fd 4f       	sbci	r31, 0xFD	; 253
    1f56:	80 81       	ld	r24, Z
    1f58:	91 81       	ldd	r25, Z+1	; 0x01
    1f5a:	cc 01       	movw	r24, r24
    1f5c:	a0 e0       	ldi	r26, 0x00	; 0
    1f5e:	b0 e0       	ldi	r27, 0x00	; 0
    1f60:	bc 01       	movw	r22, r24
    1f62:	cd 01       	movw	r24, r26
    1f64:	0e 94 a9 04 	call	0x952	; 0x952 <__floatunsisf>
    1f68:	dc 01       	movw	r26, r24
    1f6a:	cb 01       	movw	r24, r22
    1f6c:	bc 01       	movw	r22, r24
    1f6e:	cd 01       	movw	r24, r26
    1f70:	20 e0       	ldi	r18, 0x00	; 0
    1f72:	30 e0       	ldi	r19, 0x00	; 0
    1f74:	4a ef       	ldi	r20, 0xFA	; 250
    1f76:	55 e4       	ldi	r21, 0x45	; 69
    1f78:	0e 94 19 03 	call	0x632	; 0x632 <__divsf3>
    1f7c:	dc 01       	movw	r26, r24
    1f7e:	cb 01       	movw	r24, r22
    1f80:	89 83       	std	Y+1, r24	; 0x01
    1f82:	9a 83       	std	Y+2, r25	; 0x02
    1f84:	ab 83       	std	Y+3, r26	; 0x03
    1f86:	bc 83       	std	Y+4, r27	; 0x04
		desired_ticks = u32_time_ms / tick_time_ms;
    1f88:	6a 85       	ldd	r22, Y+10	; 0x0a
    1f8a:	7b 85       	ldd	r23, Y+11	; 0x0b
    1f8c:	8c 85       	ldd	r24, Y+12	; 0x0c
    1f8e:	9d 85       	ldd	r25, Y+13	; 0x0d
    1f90:	0e 94 a9 04 	call	0x952	; 0x952 <__floatunsisf>
    1f94:	dc 01       	movw	r26, r24
    1f96:	cb 01       	movw	r24, r22
    1f98:	bc 01       	movw	r22, r24
    1f9a:	cd 01       	movw	r24, r26
    1f9c:	29 81       	ldd	r18, Y+1	; 0x01
    1f9e:	3a 81       	ldd	r19, Y+2	; 0x02
    1fa0:	4b 81       	ldd	r20, Y+3	; 0x03
    1fa2:	5c 81       	ldd	r21, Y+4	; 0x04
    1fa4:	0e 94 19 03 	call	0x632	; 0x632 <__divsf3>
    1fa8:	dc 01       	movw	r26, r24
    1faa:	cb 01       	movw	r24, r22
    1fac:	bc 01       	movw	r22, r24
    1fae:	cd 01       	movw	r24, r26
    1fb0:	0e 94 49 00 	call	0x92	; 0x92 <__fixunssfsi>
    1fb4:	dc 01       	movw	r26, r24
    1fb6:	cb 01       	movw	r24, r22
    1fb8:	8d 83       	std	Y+5, r24	; 0x05
    1fba:	9e 83       	std	Y+6, r25	; 0x06
    1fbc:	af 83       	std	Y+7, r26	; 0x07
    1fbe:	b8 87       	std	Y+8, r27	; 0x08

		/* Compare ticks with OVF_ticks */
		if(desired_ticks == OVF_TICKS)
    1fc0:	8d 81       	ldd	r24, Y+5	; 0x05
    1fc2:	9e 81       	ldd	r25, Y+6	; 0x06
    1fc4:	af 81       	ldd	r26, Y+7	; 0x07
    1fc6:	b8 85       	ldd	r27, Y+8	; 0x08
    1fc8:	80 30       	cpi	r24, 0x00	; 0
    1fca:	21 e0       	ldi	r18, 0x01	; 1
    1fcc:	92 07       	cpc	r25, r18
    1fce:	20 e0       	ldi	r18, 0x00	; 0
    1fd0:	a2 07       	cpc	r26, r18
    1fd2:	20 e0       	ldi	r18, 0x00	; 0
    1fd4:	b2 07       	cpc	r27, r18
    1fd6:	21 f4       	brne	.+8      	; 0x1fe0 <GPT0_enuSetTime_ms+0xd6>
		{
			gs_u8_global_ovf = 1;
    1fd8:	81 e0       	ldi	r24, 0x01	; 1
    1fda:	80 93 da 03 	sts	0x03DA, r24
    1fde:	55 c0       	rjmp	.+170    	; 0x208a <GPT0_enuSetTime_ms+0x180>
		}
		else if(desired_ticks < OVF_TICKS)
    1fe0:	8d 81       	ldd	r24, Y+5	; 0x05
    1fe2:	9e 81       	ldd	r25, Y+6	; 0x06
    1fe4:	af 81       	ldd	r26, Y+7	; 0x07
    1fe6:	b8 85       	ldd	r27, Y+8	; 0x08
    1fe8:	8f 3f       	cpi	r24, 0xFF	; 255
    1fea:	91 05       	cpc	r25, r1
    1fec:	a1 05       	cpc	r26, r1
    1fee:	b1 05       	cpc	r27, r1
    1ff0:	09 f0       	breq	.+2      	; 0x1ff4 <GPT0_enuSetTime_ms+0xea>
    1ff2:	a8 f4       	brcc	.+42     	; 0x201e <GPT0_enuSetTime_ms+0x114>
		{
			gs_u16_preload_gpt0 = OVF_TICKS - desired_ticks;
    1ff4:	2d 81       	ldd	r18, Y+5	; 0x05
    1ff6:	3e 81       	ldd	r19, Y+6	; 0x06
    1ff8:	80 e0       	ldi	r24, 0x00	; 0
    1ffa:	91 e0       	ldi	r25, 0x01	; 1
    1ffc:	82 1b       	sub	r24, r18
    1ffe:	93 0b       	sbc	r25, r19
    2000:	90 93 d6 03 	sts	0x03D6, r25
    2004:	80 93 d5 03 	sts	0x03D5, r24
			TCNT0_REG = gs_u16_preload_gpt0;
    2008:	e2 e5       	ldi	r30, 0x52	; 82
    200a:	f0 e0       	ldi	r31, 0x00	; 0
    200c:	80 91 d5 03 	lds	r24, 0x03D5
    2010:	90 91 d6 03 	lds	r25, 0x03D6
    2014:	80 83       	st	Z, r24
			gs_u8_global_ovf = 1;
    2016:	81 e0       	ldi	r24, 0x01	; 1
    2018:	80 93 da 03 	sts	0x03DA, r24
    201c:	36 c0       	rjmp	.+108    	; 0x208a <GPT0_enuSetTime_ms+0x180>
		}
		else if(desired_ticks > OVF_TICKS)
    201e:	8d 81       	ldd	r24, Y+5	; 0x05
    2020:	9e 81       	ldd	r25, Y+6	; 0x06
    2022:	af 81       	ldd	r26, Y+7	; 0x07
    2024:	b8 85       	ldd	r27, Y+8	; 0x08
    2026:	81 30       	cpi	r24, 0x01	; 1
    2028:	21 e0       	ldi	r18, 0x01	; 1
    202a:	92 07       	cpc	r25, r18
    202c:	20 e0       	ldi	r18, 0x00	; 0
    202e:	a2 07       	cpc	r26, r18
    2030:	20 e0       	ldi	r18, 0x00	; 0
    2032:	b2 07       	cpc	r27, r18
    2034:	50 f1       	brcs	.+84     	; 0x208a <GPT0_enuSetTime_ms+0x180>
		{
			gs_u8_global_ovf = (Uint8_t)(desired_ticks / OVF_TICKS);
    2036:	8d 81       	ldd	r24, Y+5	; 0x05
    2038:	9e 81       	ldd	r25, Y+6	; 0x06
    203a:	af 81       	ldd	r26, Y+7	; 0x07
    203c:	b8 85       	ldd	r27, Y+8	; 0x08
    203e:	89 2f       	mov	r24, r25
    2040:	9a 2f       	mov	r25, r26
    2042:	ab 2f       	mov	r26, r27
    2044:	bb 27       	eor	r27, r27
    2046:	80 93 da 03 	sts	0x03DA, r24
			gs_u16_preload_gpt0 = (uint16_t)(OVF_TICKS - (desired_ticks % OVF_TICKS ));
    204a:	8d 81       	ldd	r24, Y+5	; 0x05
    204c:	9e 81       	ldd	r25, Y+6	; 0x06
    204e:	9c 01       	movw	r18, r24
    2050:	30 70       	andi	r19, 0x00	; 0
    2052:	80 e0       	ldi	r24, 0x00	; 0
    2054:	91 e0       	ldi	r25, 0x01	; 1
    2056:	82 1b       	sub	r24, r18
    2058:	93 0b       	sbc	r25, r19
    205a:	90 93 d6 03 	sts	0x03D6, r25
    205e:	80 93 d5 03 	sts	0x03D5, r24
			TCNT0_REG = gs_u16_preload_gpt0;
    2062:	e2 e5       	ldi	r30, 0x52	; 82
    2064:	f0 e0       	ldi	r31, 0x00	; 0
    2066:	80 91 d5 03 	lds	r24, 0x03D5
    206a:	90 91 d6 03 	lds	r25, 0x03D6
    206e:	80 83       	st	Z, r24
			if (gs_u16_preload_gpt0 > 0U)
    2070:	80 91 d5 03 	lds	r24, 0x03D5
    2074:	90 91 d6 03 	lds	r25, 0x03D6
    2078:	00 97       	sbiw	r24, 0x00	; 0
    207a:	39 f0       	breq	.+14     	; 0x208a <GPT0_enuSetTime_ms+0x180>
			{
				gs_u8_global_ovf++;
    207c:	80 91 da 03 	lds	r24, 0x03DA
    2080:	8f 5f       	subi	r24, 0xFF	; 255
    2082:	80 93 da 03 	sts	0x03DA, r24
    2086:	01 c0       	rjmp	.+2      	; 0x208a <GPT0_enuSetTime_ms+0x180>
			}
		}
	}
		else
		{
			errorStatus = TIMER_NOK;
    2088:	19 86       	std	Y+9, r1	; 0x09
		}


		return errorStatus;
    208a:	89 85       	ldd	r24, Y+9	; 0x09
}
    208c:	2d 96       	adiw	r28, 0x0d	; 13
    208e:	0f b6       	in	r0, 0x3f	; 63
    2090:	f8 94       	cli
    2092:	de bf       	out	0x3e, r29	; 62
    2094:	0f be       	out	0x3f, r0	; 63
    2096:	cd bf       	out	0x3d, r28	; 61
    2098:	cf 91       	pop	r28
    209a:	df 91       	pop	r29
    209c:	08 95       	ret

0000209e <GPT0_vidSetCbfOvf>:


void GPT0_vidSetCbfOvf(cbf_t cbf)
{
    209e:	df 93       	push	r29
    20a0:	cf 93       	push	r28
    20a2:	00 d0       	rcall	.+0      	; 0x20a4 <GPT0_vidSetCbfOvf+0x6>
    20a4:	cd b7       	in	r28, 0x3d	; 61
    20a6:	de b7       	in	r29, 0x3e	; 62
    20a8:	9a 83       	std	Y+2, r25	; 0x02
    20aa:	89 83       	std	Y+1, r24	; 0x01
	if (cbf != NULL)
    20ac:	89 81       	ldd	r24, Y+1	; 0x01
    20ae:	9a 81       	ldd	r25, Y+2	; 0x02
    20b0:	00 97       	sbiw	r24, 0x00	; 0
    20b2:	31 f0       	breq	.+12     	; 0x20c0 <GPT0_vidSetCbfOvf+0x22>
	{
		gs_pfun_cbf = cbf;
    20b4:	89 81       	ldd	r24, Y+1	; 0x01
    20b6:	9a 81       	ldd	r25, Y+2	; 0x02
    20b8:	90 93 dc 03 	sts	0x03DC, r25
    20bc:	80 93 db 03 	sts	0x03DB, r24
	}
	return;
}
    20c0:	0f 90       	pop	r0
    20c2:	0f 90       	pop	r0
    20c4:	cf 91       	pop	r28
    20c6:	df 91       	pop	r29
    20c8:	08 95       	ret

000020ca <__vector_5>:

/*************************************************************************************************************
 * 							ISR Interrupt Handling
 ************************************************************************************************************/
ISR(TIMER2_OVF_vect)
{
    20ca:	1f 92       	push	r1
    20cc:	0f 92       	push	r0
    20ce:	0f b6       	in	r0, 0x3f	; 63
    20d0:	0f 92       	push	r0
    20d2:	11 24       	eor	r1, r1
    20d4:	2f 93       	push	r18
    20d6:	3f 93       	push	r19
    20d8:	4f 93       	push	r20
    20da:	5f 93       	push	r21
    20dc:	6f 93       	push	r22
    20de:	7f 93       	push	r23
    20e0:	8f 93       	push	r24
    20e2:	9f 93       	push	r25
    20e4:	af 93       	push	r26
    20e6:	bf 93       	push	r27
    20e8:	ef 93       	push	r30
    20ea:	ff 93       	push	r31
    20ec:	df 93       	push	r29
    20ee:	cf 93       	push	r28
    20f0:	cd b7       	in	r28, 0x3d	; 61
    20f2:	de b7       	in	r29, 0x3e	; 62
	static Uint8_t counter = 0;
	counter++;
    20f4:	80 91 e1 03 	lds	r24, 0x03E1
    20f8:	8f 5f       	subi	r24, 0xFF	; 255
    20fa:	80 93 e1 03 	sts	0x03E1, r24
	if(counter == global_ovf)
    20fe:	90 91 e1 03 	lds	r25, 0x03E1
    2102:	80 91 0f 02 	lds	r24, 0x020F
    2106:	98 17       	cp	r25, r24
    2108:	69 f4       	brne	.+26     	; 0x2124 <__vector_5+0x5a>
	{
		if (globalCallFunc != NULL)
    210a:	80 91 d7 03 	lds	r24, 0x03D7
    210e:	90 91 d8 03 	lds	r25, 0x03D8
    2112:	00 97       	sbiw	r24, 0x00	; 0
    2114:	39 f0       	breq	.+14     	; 0x2124 <__vector_5+0x5a>
		{
			counter = 0;
    2116:	10 92 e1 03 	sts	0x03E1, r1

			globalCallFunc();
    211a:	e0 91 d7 03 	lds	r30, 0x03D7
    211e:	f0 91 d8 03 	lds	r31, 0x03D8
    2122:	09 95       	icall
//			TCNT2_REG = preload;
//			global_ovf = 0;
//			vidTimer1_stop();
		}
	}
}
    2124:	cf 91       	pop	r28
    2126:	df 91       	pop	r29
    2128:	ff 91       	pop	r31
    212a:	ef 91       	pop	r30
    212c:	bf 91       	pop	r27
    212e:	af 91       	pop	r26
    2130:	9f 91       	pop	r25
    2132:	8f 91       	pop	r24
    2134:	7f 91       	pop	r23
    2136:	6f 91       	pop	r22
    2138:	5f 91       	pop	r21
    213a:	4f 91       	pop	r20
    213c:	3f 91       	pop	r19
    213e:	2f 91       	pop	r18
    2140:	0f 90       	pop	r0
    2142:	0f be       	out	0x3f, r0	; 63
    2144:	0f 90       	pop	r0
    2146:	1f 90       	pop	r1
    2148:	18 95       	reti

0000214a <__vector_11>:


ISR(TIMER0_OVF_vect)
{
    214a:	1f 92       	push	r1
    214c:	0f 92       	push	r0
    214e:	0f b6       	in	r0, 0x3f	; 63
    2150:	0f 92       	push	r0
    2152:	11 24       	eor	r1, r1
    2154:	8f 93       	push	r24
    2156:	9f 93       	push	r25
    2158:	af 93       	push	r26
    215a:	bf 93       	push	r27
    215c:	df 93       	push	r29
    215e:	cf 93       	push	r28
    2160:	cd b7       	in	r28, 0x3d	; 61
    2162:	de b7       	in	r29, 0x3e	; 62
	static Uint8_t counter = 0;
	counter++;
    2164:	80 91 e2 03 	lds	r24, 0x03E2
    2168:	8f 5f       	subi	r24, 0xFF	; 255
    216a:	80 93 e2 03 	sts	0x03E2, r24
	if(counter == gs_u8_global_ovf)
    216e:	90 91 e2 03 	lds	r25, 0x03E2
    2172:	80 91 da 03 	lds	r24, 0x03DA
    2176:	98 17       	cp	r25, r24
    2178:	a9 f4       	brne	.+42     	; 0x21a4 <__vector_11+0x5a>
	{
//		if (gs_pfun_cbf != NULL)
//		{
			counter = 0;
    217a:	10 92 e2 03 	sts	0x03E2, r1
			g_u32_ovf_count++;
    217e:	80 91 dd 03 	lds	r24, 0x03DD
    2182:	90 91 de 03 	lds	r25, 0x03DE
    2186:	a0 91 df 03 	lds	r26, 0x03DF
    218a:	b0 91 e0 03 	lds	r27, 0x03E0
    218e:	01 96       	adiw	r24, 0x01	; 1
    2190:	a1 1d       	adc	r26, r1
    2192:	b1 1d       	adc	r27, r1
    2194:	80 93 dd 03 	sts	0x03DD, r24
    2198:	90 93 de 03 	sts	0x03DE, r25
    219c:	a0 93 df 03 	sts	0x03DF, r26
    21a0:	b0 93 e0 03 	sts	0x03E0, r27
//		}
	}
}
    21a4:	cf 91       	pop	r28
    21a6:	df 91       	pop	r29
    21a8:	bf 91       	pop	r27
    21aa:	af 91       	pop	r26
    21ac:	9f 91       	pop	r25
    21ae:	8f 91       	pop	r24
    21b0:	0f 90       	pop	r0
    21b2:	0f be       	out	0x3f, r0	; 63
    21b4:	0f 90       	pop	r0
    21b6:	1f 90       	pop	r1
    21b8:	18 95       	reti

000021ba <MSPI_enMasterInit>:




enu_status_t MSPI_enMasterInit(enu_spiPrescalar_t copy_enPrecalar)
{
    21ba:	df 93       	push	r29
    21bc:	cf 93       	push	r28
    21be:	00 d0       	rcall	.+0      	; 0x21c0 <MSPI_enMasterInit+0x6>
    21c0:	00 d0       	rcall	.+0      	; 0x21c2 <MSPI_enMasterInit+0x8>
    21c2:	cd b7       	in	r28, 0x3d	; 61
    21c4:	de b7       	in	r29, 0x3e	; 62
    21c6:	8a 83       	std	Y+2, r24	; 0x02
	enu_status_t errStatus = SPI_OK;
    21c8:	81 e0       	ldi	r24, 0x01	; 1
    21ca:	89 83       	std	Y+1, r24	; 0x01
	if (copy_enPrecalar < SPI_PRE_INVALID)
    21cc:	8a 81       	ldd	r24, Y+2	; 0x02
    21ce:	88 30       	cpi	r24, 0x08	; 8
    21d0:	08 f0       	brcs	.+2      	; 0x21d4 <MSPI_enMasterInit+0x1a>
    21d2:	13 c1       	rjmp	.+550    	; 0x23fa <MSPI_enMasterInit+0x240>
	{
		SetBit(SPCR_REG, MSTR); // enable master mode
    21d4:	ad e2       	ldi	r26, 0x2D	; 45
    21d6:	b0 e0       	ldi	r27, 0x00	; 0
    21d8:	ed e2       	ldi	r30, 0x2D	; 45
    21da:	f0 e0       	ldi	r31, 0x00	; 0
    21dc:	80 81       	ld	r24, Z
    21de:	80 61       	ori	r24, 0x10	; 16
    21e0:	8c 93       	st	X, r24
		switch(copy_enPrecalar)
    21e2:	8a 81       	ldd	r24, Y+2	; 0x02
    21e4:	28 2f       	mov	r18, r24
    21e6:	30 e0       	ldi	r19, 0x00	; 0
    21e8:	3c 83       	std	Y+4, r19	; 0x04
    21ea:	2b 83       	std	Y+3, r18	; 0x03
    21ec:	8b 81       	ldd	r24, Y+3	; 0x03
    21ee:	9c 81       	ldd	r25, Y+4	; 0x04
    21f0:	83 30       	cpi	r24, 0x03	; 3
    21f2:	91 05       	cpc	r25, r1
    21f4:	09 f4       	brne	.+2      	; 0x21f8 <MSPI_enMasterInit+0x3e>
    21f6:	70 c0       	rjmp	.+224    	; 0x22d8 <MSPI_enMasterInit+0x11e>
    21f8:	2b 81       	ldd	r18, Y+3	; 0x03
    21fa:	3c 81       	ldd	r19, Y+4	; 0x04
    21fc:	24 30       	cpi	r18, 0x04	; 4
    21fe:	31 05       	cpc	r19, r1
    2200:	84 f4       	brge	.+32     	; 0x2222 <MSPI_enMasterInit+0x68>
    2202:	8b 81       	ldd	r24, Y+3	; 0x03
    2204:	9c 81       	ldd	r25, Y+4	; 0x04
    2206:	81 30       	cpi	r24, 0x01	; 1
    2208:	91 05       	cpc	r25, r1
    220a:	d1 f1       	breq	.+116    	; 0x2280 <MSPI_enMasterInit+0xc6>
    220c:	2b 81       	ldd	r18, Y+3	; 0x03
    220e:	3c 81       	ldd	r19, Y+4	; 0x04
    2210:	22 30       	cpi	r18, 0x02	; 2
    2212:	31 05       	cpc	r19, r1
    2214:	0c f0       	brlt	.+2      	; 0x2218 <MSPI_enMasterInit+0x5e>
    2216:	4a c0       	rjmp	.+148    	; 0x22ac <MSPI_enMasterInit+0xf2>
    2218:	8b 81       	ldd	r24, Y+3	; 0x03
    221a:	9c 81       	ldd	r25, Y+4	; 0x04
    221c:	00 97       	sbiw	r24, 0x00	; 0
    221e:	d1 f0       	breq	.+52     	; 0x2254 <MSPI_enMasterInit+0x9a>
    2220:	c8 c0       	rjmp	.+400    	; 0x23b2 <MSPI_enMasterInit+0x1f8>
    2222:	2b 81       	ldd	r18, Y+3	; 0x03
    2224:	3c 81       	ldd	r19, Y+4	; 0x04
    2226:	25 30       	cpi	r18, 0x05	; 5
    2228:	31 05       	cpc	r19, r1
    222a:	09 f4       	brne	.+2      	; 0x222e <MSPI_enMasterInit+0x74>
    222c:	81 c0       	rjmp	.+258    	; 0x2330 <MSPI_enMasterInit+0x176>
    222e:	8b 81       	ldd	r24, Y+3	; 0x03
    2230:	9c 81       	ldd	r25, Y+4	; 0x04
    2232:	85 30       	cpi	r24, 0x05	; 5
    2234:	91 05       	cpc	r25, r1
    2236:	0c f4       	brge	.+2      	; 0x223a <MSPI_enMasterInit+0x80>
    2238:	65 c0       	rjmp	.+202    	; 0x2304 <MSPI_enMasterInit+0x14a>
    223a:	2b 81       	ldd	r18, Y+3	; 0x03
    223c:	3c 81       	ldd	r19, Y+4	; 0x04
    223e:	26 30       	cpi	r18, 0x06	; 6
    2240:	31 05       	cpc	r19, r1
    2242:	09 f4       	brne	.+2      	; 0x2246 <MSPI_enMasterInit+0x8c>
    2244:	8b c0       	rjmp	.+278    	; 0x235c <MSPI_enMasterInit+0x1a2>
    2246:	8b 81       	ldd	r24, Y+3	; 0x03
    2248:	9c 81       	ldd	r25, Y+4	; 0x04
    224a:	87 30       	cpi	r24, 0x07	; 7
    224c:	91 05       	cpc	r25, r1
    224e:	09 f4       	brne	.+2      	; 0x2252 <MSPI_enMasterInit+0x98>
    2250:	9b c0       	rjmp	.+310    	; 0x2388 <MSPI_enMasterInit+0x1ce>
    2252:	af c0       	rjmp	.+350    	; 0x23b2 <MSPI_enMasterInit+0x1f8>
		{
			case SPI_PRE_4	: 	ClrBit(SPSR_REG, SPI2X);ClrBit(SPCR_REG, SPR1);ClrBit(SPCR_REG, SPR0); break;
    2254:	ae e2       	ldi	r26, 0x2E	; 46
    2256:	b0 e0       	ldi	r27, 0x00	; 0
    2258:	ee e2       	ldi	r30, 0x2E	; 46
    225a:	f0 e0       	ldi	r31, 0x00	; 0
    225c:	80 81       	ld	r24, Z
    225e:	8e 7f       	andi	r24, 0xFE	; 254
    2260:	8c 93       	st	X, r24
    2262:	ad e2       	ldi	r26, 0x2D	; 45
    2264:	b0 e0       	ldi	r27, 0x00	; 0
    2266:	ed e2       	ldi	r30, 0x2D	; 45
    2268:	f0 e0       	ldi	r31, 0x00	; 0
    226a:	80 81       	ld	r24, Z
    226c:	8d 7f       	andi	r24, 0xFD	; 253
    226e:	8c 93       	st	X, r24
    2270:	ad e2       	ldi	r26, 0x2D	; 45
    2272:	b0 e0       	ldi	r27, 0x00	; 0
    2274:	ed e2       	ldi	r30, 0x2D	; 45
    2276:	f0 e0       	ldi	r31, 0x00	; 0
    2278:	80 81       	ld	r24, Z
    227a:	8e 7f       	andi	r24, 0xFE	; 254
    227c:	8c 93       	st	X, r24
    227e:	99 c0       	rjmp	.+306    	; 0x23b2 <MSPI_enMasterInit+0x1f8>
			case SPI_PRE_16	:   ClrBit(SPSR_REG, SPI2X);ClrBit(SPCR_REG, SPR1);SetBit(SPCR_REG, SPR0); break;
    2280:	ae e2       	ldi	r26, 0x2E	; 46
    2282:	b0 e0       	ldi	r27, 0x00	; 0
    2284:	ee e2       	ldi	r30, 0x2E	; 46
    2286:	f0 e0       	ldi	r31, 0x00	; 0
    2288:	80 81       	ld	r24, Z
    228a:	8e 7f       	andi	r24, 0xFE	; 254
    228c:	8c 93       	st	X, r24
    228e:	ad e2       	ldi	r26, 0x2D	; 45
    2290:	b0 e0       	ldi	r27, 0x00	; 0
    2292:	ed e2       	ldi	r30, 0x2D	; 45
    2294:	f0 e0       	ldi	r31, 0x00	; 0
    2296:	80 81       	ld	r24, Z
    2298:	8d 7f       	andi	r24, 0xFD	; 253
    229a:	8c 93       	st	X, r24
    229c:	ad e2       	ldi	r26, 0x2D	; 45
    229e:	b0 e0       	ldi	r27, 0x00	; 0
    22a0:	ed e2       	ldi	r30, 0x2D	; 45
    22a2:	f0 e0       	ldi	r31, 0x00	; 0
    22a4:	80 81       	ld	r24, Z
    22a6:	81 60       	ori	r24, 0x01	; 1
    22a8:	8c 93       	st	X, r24
    22aa:	83 c0       	rjmp	.+262    	; 0x23b2 <MSPI_enMasterInit+0x1f8>
			case SPI_PRE_64	: 	ClrBit(SPSR_REG, SPI2X);SetBit(SPCR_REG, SPR1);ClrBit(SPCR_REG, SPR0); break;
    22ac:	ae e2       	ldi	r26, 0x2E	; 46
    22ae:	b0 e0       	ldi	r27, 0x00	; 0
    22b0:	ee e2       	ldi	r30, 0x2E	; 46
    22b2:	f0 e0       	ldi	r31, 0x00	; 0
    22b4:	80 81       	ld	r24, Z
    22b6:	8e 7f       	andi	r24, 0xFE	; 254
    22b8:	8c 93       	st	X, r24
    22ba:	ad e2       	ldi	r26, 0x2D	; 45
    22bc:	b0 e0       	ldi	r27, 0x00	; 0
    22be:	ed e2       	ldi	r30, 0x2D	; 45
    22c0:	f0 e0       	ldi	r31, 0x00	; 0
    22c2:	80 81       	ld	r24, Z
    22c4:	82 60       	ori	r24, 0x02	; 2
    22c6:	8c 93       	st	X, r24
    22c8:	ad e2       	ldi	r26, 0x2D	; 45
    22ca:	b0 e0       	ldi	r27, 0x00	; 0
    22cc:	ed e2       	ldi	r30, 0x2D	; 45
    22ce:	f0 e0       	ldi	r31, 0x00	; 0
    22d0:	80 81       	ld	r24, Z
    22d2:	8e 7f       	andi	r24, 0xFE	; 254
    22d4:	8c 93       	st	X, r24
    22d6:	6d c0       	rjmp	.+218    	; 0x23b2 <MSPI_enMasterInit+0x1f8>
			case SPI_PRE_128: 	ClrBit(SPSR_REG, SPI2X);SetBit(SPCR_REG, SPR1);SetBit(SPCR_REG, SPR0); break;
    22d8:	ae e2       	ldi	r26, 0x2E	; 46
    22da:	b0 e0       	ldi	r27, 0x00	; 0
    22dc:	ee e2       	ldi	r30, 0x2E	; 46
    22de:	f0 e0       	ldi	r31, 0x00	; 0
    22e0:	80 81       	ld	r24, Z
    22e2:	8e 7f       	andi	r24, 0xFE	; 254
    22e4:	8c 93       	st	X, r24
    22e6:	ad e2       	ldi	r26, 0x2D	; 45
    22e8:	b0 e0       	ldi	r27, 0x00	; 0
    22ea:	ed e2       	ldi	r30, 0x2D	; 45
    22ec:	f0 e0       	ldi	r31, 0x00	; 0
    22ee:	80 81       	ld	r24, Z
    22f0:	82 60       	ori	r24, 0x02	; 2
    22f2:	8c 93       	st	X, r24
    22f4:	ad e2       	ldi	r26, 0x2D	; 45
    22f6:	b0 e0       	ldi	r27, 0x00	; 0
    22f8:	ed e2       	ldi	r30, 0x2D	; 45
    22fa:	f0 e0       	ldi	r31, 0x00	; 0
    22fc:	80 81       	ld	r24, Z
    22fe:	81 60       	ori	r24, 0x01	; 1
    2300:	8c 93       	st	X, r24
    2302:	57 c0       	rjmp	.+174    	; 0x23b2 <MSPI_enMasterInit+0x1f8>
			case SPI_PREx2_2	: 	SetBit(SPSR_REG, SPI2X);ClrBit(SPCR_REG, SPR1);ClrBit(SPCR_REG, SPR0); break;
    2304:	ae e2       	ldi	r26, 0x2E	; 46
    2306:	b0 e0       	ldi	r27, 0x00	; 0
    2308:	ee e2       	ldi	r30, 0x2E	; 46
    230a:	f0 e0       	ldi	r31, 0x00	; 0
    230c:	80 81       	ld	r24, Z
    230e:	81 60       	ori	r24, 0x01	; 1
    2310:	8c 93       	st	X, r24
    2312:	ad e2       	ldi	r26, 0x2D	; 45
    2314:	b0 e0       	ldi	r27, 0x00	; 0
    2316:	ed e2       	ldi	r30, 0x2D	; 45
    2318:	f0 e0       	ldi	r31, 0x00	; 0
    231a:	80 81       	ld	r24, Z
    231c:	8d 7f       	andi	r24, 0xFD	; 253
    231e:	8c 93       	st	X, r24
    2320:	ad e2       	ldi	r26, 0x2D	; 45
    2322:	b0 e0       	ldi	r27, 0x00	; 0
    2324:	ed e2       	ldi	r30, 0x2D	; 45
    2326:	f0 e0       	ldi	r31, 0x00	; 0
    2328:	80 81       	ld	r24, Z
    232a:	8e 7f       	andi	r24, 0xFE	; 254
    232c:	8c 93       	st	X, r24
    232e:	41 c0       	rjmp	.+130    	; 0x23b2 <MSPI_enMasterInit+0x1f8>
			case SPI_PREx2_8	: 	SetBit(SPSR_REG, SPI2X);ClrBit(SPCR_REG, SPR1);SetBit(SPCR_REG, SPR0); break;
    2330:	ae e2       	ldi	r26, 0x2E	; 46
    2332:	b0 e0       	ldi	r27, 0x00	; 0
    2334:	ee e2       	ldi	r30, 0x2E	; 46
    2336:	f0 e0       	ldi	r31, 0x00	; 0
    2338:	80 81       	ld	r24, Z
    233a:	81 60       	ori	r24, 0x01	; 1
    233c:	8c 93       	st	X, r24
    233e:	ad e2       	ldi	r26, 0x2D	; 45
    2340:	b0 e0       	ldi	r27, 0x00	; 0
    2342:	ed e2       	ldi	r30, 0x2D	; 45
    2344:	f0 e0       	ldi	r31, 0x00	; 0
    2346:	80 81       	ld	r24, Z
    2348:	8d 7f       	andi	r24, 0xFD	; 253
    234a:	8c 93       	st	X, r24
    234c:	ad e2       	ldi	r26, 0x2D	; 45
    234e:	b0 e0       	ldi	r27, 0x00	; 0
    2350:	ed e2       	ldi	r30, 0x2D	; 45
    2352:	f0 e0       	ldi	r31, 0x00	; 0
    2354:	80 81       	ld	r24, Z
    2356:	81 60       	ori	r24, 0x01	; 1
    2358:	8c 93       	st	X, r24
    235a:	2b c0       	rjmp	.+86     	; 0x23b2 <MSPI_enMasterInit+0x1f8>
			case SPI_PREx2_32	: 	SetBit(SPSR_REG, SPI2X);SetBit(SPCR_REG, SPR1);ClrBit(SPCR_REG, SPR0); break;
    235c:	ae e2       	ldi	r26, 0x2E	; 46
    235e:	b0 e0       	ldi	r27, 0x00	; 0
    2360:	ee e2       	ldi	r30, 0x2E	; 46
    2362:	f0 e0       	ldi	r31, 0x00	; 0
    2364:	80 81       	ld	r24, Z
    2366:	81 60       	ori	r24, 0x01	; 1
    2368:	8c 93       	st	X, r24
    236a:	ad e2       	ldi	r26, 0x2D	; 45
    236c:	b0 e0       	ldi	r27, 0x00	; 0
    236e:	ed e2       	ldi	r30, 0x2D	; 45
    2370:	f0 e0       	ldi	r31, 0x00	; 0
    2372:	80 81       	ld	r24, Z
    2374:	82 60       	ori	r24, 0x02	; 2
    2376:	8c 93       	st	X, r24
    2378:	ad e2       	ldi	r26, 0x2D	; 45
    237a:	b0 e0       	ldi	r27, 0x00	; 0
    237c:	ed e2       	ldi	r30, 0x2D	; 45
    237e:	f0 e0       	ldi	r31, 0x00	; 0
    2380:	80 81       	ld	r24, Z
    2382:	8e 7f       	andi	r24, 0xFE	; 254
    2384:	8c 93       	st	X, r24
    2386:	15 c0       	rjmp	.+42     	; 0x23b2 <MSPI_enMasterInit+0x1f8>
			case SPI_PREx2_64	: 	SetBit(SPSR_REG, SPI2X);SetBit(SPCR_REG, SPR1);SetBit(SPCR_REG, SPR0); break;
    2388:	ae e2       	ldi	r26, 0x2E	; 46
    238a:	b0 e0       	ldi	r27, 0x00	; 0
    238c:	ee e2       	ldi	r30, 0x2E	; 46
    238e:	f0 e0       	ldi	r31, 0x00	; 0
    2390:	80 81       	ld	r24, Z
    2392:	81 60       	ori	r24, 0x01	; 1
    2394:	8c 93       	st	X, r24
    2396:	ad e2       	ldi	r26, 0x2D	; 45
    2398:	b0 e0       	ldi	r27, 0x00	; 0
    239a:	ed e2       	ldi	r30, 0x2D	; 45
    239c:	f0 e0       	ldi	r31, 0x00	; 0
    239e:	80 81       	ld	r24, Z
    23a0:	82 60       	ori	r24, 0x02	; 2
    23a2:	8c 93       	st	X, r24
    23a4:	ad e2       	ldi	r26, 0x2D	; 45
    23a6:	b0 e0       	ldi	r27, 0x00	; 0
    23a8:	ed e2       	ldi	r30, 0x2D	; 45
    23aa:	f0 e0       	ldi	r31, 0x00	; 0
    23ac:	80 81       	ld	r24, Z
    23ae:	81 60       	ori	r24, 0x01	; 1
    23b0:	8c 93       	st	X, r24
			default: break;
		}
#if SPI_ORD_SEL == SPI_ORD_LSB_MSB

		SetBit(SPCR_REG, DORD);
    23b2:	ad e2       	ldi	r26, 0x2D	; 45
    23b4:	b0 e0       	ldi	r27, 0x00	; 0
    23b6:	ed e2       	ldi	r30, 0x2D	; 45
    23b8:	f0 e0       	ldi	r31, 0x00	; 0
    23ba:	80 81       	ld	r24, Z
    23bc:	80 62       	ori	r24, 0x20	; 32
    23be:	8c 93       	st	X, r24
#endif


#if SPI_CPOL_SEL == SPI_CPOL_LR_TF

		ClrBit(SPCR_REG, CPOL);
    23c0:	ad e2       	ldi	r26, 0x2D	; 45
    23c2:	b0 e0       	ldi	r27, 0x00	; 0
    23c4:	ed e2       	ldi	r30, 0x2D	; 45
    23c6:	f0 e0       	ldi	r31, 0x00	; 0
    23c8:	80 81       	ld	r24, Z
    23ca:	87 7f       	andi	r24, 0xF7	; 247
    23cc:	8c 93       	st	X, r24

		ClrBit(SPCR_REG, CPHA);

#elif SPI_CPHA_SEL == SPI_CPHA_LSE_TSA

		SetBit(SPCR_REG, CPHA);
    23ce:	ad e2       	ldi	r26, 0x2D	; 45
    23d0:	b0 e0       	ldi	r27, 0x00	; 0
    23d2:	ed e2       	ldi	r30, 0x2D	; 45
    23d4:	f0 e0       	ldi	r31, 0x00	; 0
    23d6:	80 81       	ld	r24, Z
    23d8:	84 60       	ori	r24, 0x04	; 4
    23da:	8c 93       	st	X, r24

#endif

		ClrBit( SPCR_REG, SPIE); // disable ISR
    23dc:	ad e2       	ldi	r26, 0x2D	; 45
    23de:	b0 e0       	ldi	r27, 0x00	; 0
    23e0:	ed e2       	ldi	r30, 0x2D	; 45
    23e2:	f0 e0       	ldi	r31, 0x00	; 0
    23e4:	80 81       	ld	r24, Z
    23e6:	8f 77       	andi	r24, 0x7F	; 127
    23e8:	8c 93       	st	X, r24
		SetBit(SPCR_REG, SPE); // enable SPI
    23ea:	ad e2       	ldi	r26, 0x2D	; 45
    23ec:	b0 e0       	ldi	r27, 0x00	; 0
    23ee:	ed e2       	ldi	r30, 0x2D	; 45
    23f0:	f0 e0       	ldi	r31, 0x00	; 0
    23f2:	80 81       	ld	r24, Z
    23f4:	80 64       	ori	r24, 0x40	; 64
    23f6:	8c 93       	st	X, r24
    23f8:	01 c0       	rjmp	.+2      	; 0x23fc <MSPI_enMasterInit+0x242>

	}
	else
	{
		errStatus = SPI_NOK;
    23fa:	19 82       	std	Y+1, r1	; 0x01
	}

		return errStatus;
    23fc:	89 81       	ldd	r24, Y+1	; 0x01
}
    23fe:	0f 90       	pop	r0
    2400:	0f 90       	pop	r0
    2402:	0f 90       	pop	r0
    2404:	0f 90       	pop	r0
    2406:	cf 91       	pop	r28
    2408:	df 91       	pop	r29
    240a:	08 95       	ret

0000240c <MSPI_enSlaveInit>:




enu_status_t MSPI_enSlaveInit(void)
{
    240c:	df 93       	push	r29
    240e:	cf 93       	push	r28
    2410:	0f 92       	push	r0
    2412:	cd b7       	in	r28, 0x3d	; 61
    2414:	de b7       	in	r29, 0x3e	; 62
	enu_status_t errStatus = SPI_OK;
    2416:	81 e0       	ldi	r24, 0x01	; 1
    2418:	89 83       	std	Y+1, r24	; 0x01

	SPDR_REG = 0xFF;
    241a:	ef e2       	ldi	r30, 0x2F	; 47
    241c:	f0 e0       	ldi	r31, 0x00	; 0
    241e:	8f ef       	ldi	r24, 0xFF	; 255
    2420:	80 83       	st	Z, r24

	ClrBit(SPCR_REG, MSTR);  // set as slave
    2422:	ad e2       	ldi	r26, 0x2D	; 45
    2424:	b0 e0       	ldi	r27, 0x00	; 0
    2426:	ed e2       	ldi	r30, 0x2D	; 45
    2428:	f0 e0       	ldi	r31, 0x00	; 0
    242a:	80 81       	ld	r24, Z
    242c:	8f 7e       	andi	r24, 0xEF	; 239
    242e:	8c 93       	st	X, r24
	SetBit( SPCR_REG, SPIE); // Enable ISR
    2430:	ad e2       	ldi	r26, 0x2D	; 45
    2432:	b0 e0       	ldi	r27, 0x00	; 0
    2434:	ed e2       	ldi	r30, 0x2D	; 45
    2436:	f0 e0       	ldi	r31, 0x00	; 0
    2438:	80 81       	ld	r24, Z
    243a:	80 68       	ori	r24, 0x80	; 128
    243c:	8c 93       	st	X, r24

#if SPI_ORD_SEL == SPI_ORD_LSB_MSB

		SetBit(SPCR_REG, DORD);
    243e:	ad e2       	ldi	r26, 0x2D	; 45
    2440:	b0 e0       	ldi	r27, 0x00	; 0
    2442:	ed e2       	ldi	r30, 0x2D	; 45
    2444:	f0 e0       	ldi	r31, 0x00	; 0
    2446:	80 81       	ld	r24, Z
    2448:	80 62       	ori	r24, 0x20	; 32
    244a:	8c 93       	st	X, r24
#endif


#if SPI_CPOL_SEL == SPI_CPOL_LR_TF

		ClrBit(SPCR_REG, CPOL);
    244c:	ad e2       	ldi	r26, 0x2D	; 45
    244e:	b0 e0       	ldi	r27, 0x00	; 0
    2450:	ed e2       	ldi	r30, 0x2D	; 45
    2452:	f0 e0       	ldi	r31, 0x00	; 0
    2454:	80 81       	ld	r24, Z
    2456:	87 7f       	andi	r24, 0xF7	; 247
    2458:	8c 93       	st	X, r24

		ClrBit(SPCR_REG, CPHA);

#elif SPI_CPHA_SEL == SPI_CPHA_LSE_TSA

		SetBit(SPCR_REG, CPHA);
    245a:	ad e2       	ldi	r26, 0x2D	; 45
    245c:	b0 e0       	ldi	r27, 0x00	; 0
    245e:	ed e2       	ldi	r30, 0x2D	; 45
    2460:	f0 e0       	ldi	r31, 0x00	; 0
    2462:	80 81       	ld	r24, Z
    2464:	84 60       	ori	r24, 0x04	; 4
    2466:	8c 93       	st	X, r24

#endif

		SetBit(SPCR_REG, SPE); // enable SPI
    2468:	ad e2       	ldi	r26, 0x2D	; 45
    246a:	b0 e0       	ldi	r27, 0x00	; 0
    246c:	ed e2       	ldi	r30, 0x2D	; 45
    246e:	f0 e0       	ldi	r31, 0x00	; 0
    2470:	80 81       	ld	r24, Z
    2472:	80 64       	ori	r24, 0x40	; 64
    2474:	8c 93       	st	X, r24

		return errStatus;
    2476:	89 81       	ldd	r24, Y+1	; 0x01
}
    2478:	0f 90       	pop	r0
    247a:	cf 91       	pop	r28
    247c:	df 91       	pop	r29
    247e:	08 95       	ret

00002480 <MSPI_vidTransmitChar>:




void MSPI_vidTransmitChar(Uint8_t copy_u8_data)
{
    2480:	df 93       	push	r29
    2482:	cf 93       	push	r28
    2484:	00 d0       	rcall	.+0      	; 0x2486 <MSPI_vidTransmitChar+0x6>
    2486:	cd b7       	in	r28, 0x3d	; 61
    2488:	de b7       	in	r29, 0x3e	; 62
    248a:	8a 83       	std	Y+2, r24	; 0x02
	Uint8_t flush_buffer ;
	SPDR_REG = copy_u8_data;
    248c:	ef e2       	ldi	r30, 0x2F	; 47
    248e:	f0 e0       	ldi	r31, 0x00	; 0
    2490:	8a 81       	ldd	r24, Y+2	; 0x02
    2492:	80 83       	st	Z, r24

	while (!(SPSR_REG & (1 << SPIF)));
    2494:	ee e2       	ldi	r30, 0x2E	; 46
    2496:	f0 e0       	ldi	r31, 0x00	; 0
    2498:	80 81       	ld	r24, Z
    249a:	88 23       	and	r24, r24
    249c:	dc f7       	brge	.-10     	; 0x2494 <MSPI_vidTransmitChar+0x14>
	flush_buffer = SPDR_REG;
    249e:	ef e2       	ldi	r30, 0x2F	; 47
    24a0:	f0 e0       	ldi	r31, 0x00	; 0
    24a2:	80 81       	ld	r24, Z
    24a4:	89 83       	std	Y+1, r24	; 0x01
//	while ( (GetBit(SPSR_REG, SPIF)) == 0 );
}
    24a6:	0f 90       	pop	r0
    24a8:	0f 90       	pop	r0
    24aa:	cf 91       	pop	r28
    24ac:	df 91       	pop	r29
    24ae:	08 95       	ret

000024b0 <MSPI_enReceiveChar>:


enu_status_t MSPI_enReceiveChar(Uint8_t* ref_u8_data)
{
    24b0:	df 93       	push	r29
    24b2:	cf 93       	push	r28
    24b4:	00 d0       	rcall	.+0      	; 0x24b6 <MSPI_enReceiveChar+0x6>
    24b6:	0f 92       	push	r0
    24b8:	cd b7       	in	r28, 0x3d	; 61
    24ba:	de b7       	in	r29, 0x3e	; 62
    24bc:	9b 83       	std	Y+3, r25	; 0x03
    24be:	8a 83       	std	Y+2, r24	; 0x02
	enu_status_t errStatus = SPI_OK;
    24c0:	81 e0       	ldi	r24, 0x01	; 1
    24c2:	89 83       	std	Y+1, r24	; 0x01


	if (ref_u8_data != NULL)
    24c4:	8a 81       	ldd	r24, Y+2	; 0x02
    24c6:	9b 81       	ldd	r25, Y+3	; 0x03
    24c8:	00 97       	sbiw	r24, 0x00	; 0
    24ca:	61 f0       	breq	.+24     	; 0x24e4 <MSPI_enReceiveChar+0x34>
	{
//		SPDR_REG = 0xFF;
		while (!(SPSR_REG & (1 << SPIF)));
    24cc:	ee e2       	ldi	r30, 0x2E	; 46
    24ce:	f0 e0       	ldi	r31, 0x00	; 0
    24d0:	80 81       	ld	r24, Z
    24d2:	88 23       	and	r24, r24
    24d4:	dc f7       	brge	.-10     	; 0x24cc <MSPI_enReceiveChar+0x1c>
//		while ( (GetBit(SPSR_REG, SPIF)) == 0);
		*ref_u8_data = SPDR_REG;
    24d6:	ef e2       	ldi	r30, 0x2F	; 47
    24d8:	f0 e0       	ldi	r31, 0x00	; 0
    24da:	80 81       	ld	r24, Z
    24dc:	ea 81       	ldd	r30, Y+2	; 0x02
    24de:	fb 81       	ldd	r31, Y+3	; 0x03
    24e0:	80 83       	st	Z, r24
    24e2:	01 c0       	rjmp	.+2      	; 0x24e6 <MSPI_enReceiveChar+0x36>
	}
	else
	{
		errStatus = SPI_NOK;
    24e4:	19 82       	std	Y+1, r1	; 0x01
	}

	return errStatus;
    24e6:	89 81       	ldd	r24, Y+1	; 0x01
}
    24e8:	0f 90       	pop	r0
    24ea:	0f 90       	pop	r0
    24ec:	0f 90       	pop	r0
    24ee:	cf 91       	pop	r28
    24f0:	df 91       	pop	r29
    24f2:	08 95       	ret

000024f4 <MSPI_enReceiveString>:



enu_status_t MSPI_enReceiveString(Uint8_t* ref_u8_buffer, Uint8_t length)
{
    24f4:	df 93       	push	r29
    24f6:	cf 93       	push	r28
    24f8:	cd b7       	in	r28, 0x3d	; 61
    24fa:	de b7       	in	r29, 0x3e	; 62
    24fc:	29 97       	sbiw	r28, 0x09	; 9
    24fe:	0f b6       	in	r0, 0x3f	; 63
    2500:	f8 94       	cli
    2502:	de bf       	out	0x3e, r29	; 62
    2504:	0f be       	out	0x3f, r0	; 63
    2506:	cd bf       	out	0x3d, r28	; 61
    2508:	98 87       	std	Y+8, r25	; 0x08
    250a:	8f 83       	std	Y+7, r24	; 0x07
    250c:	69 87       	std	Y+9, r22	; 0x09
	enu_status_t MSPI_status = SPI_OK;
    250e:	81 e0       	ldi	r24, 0x01	; 1
    2510:	8d 83       	std	Y+5, r24	; 0x05
	Uint32_t buffer_index = 0 ;
    2512:	19 82       	std	Y+1, r1	; 0x01
    2514:	1a 82       	std	Y+2, r1	; 0x02
    2516:	1b 82       	std	Y+3, r1	; 0x03
    2518:	1c 82       	std	Y+4, r1	; 0x04
	Uint8_t receivedChar;

	if (ref_u8_buffer != NULL && length > 0)
    251a:	8f 81       	ldd	r24, Y+7	; 0x07
    251c:	98 85       	ldd	r25, Y+8	; 0x08
    251e:	00 97       	sbiw	r24, 0x00	; 0
    2520:	09 f4       	brne	.+2      	; 0x2524 <MSPI_enReceiveString+0x30>
    2522:	44 c0       	rjmp	.+136    	; 0x25ac <MSPI_enReceiveString+0xb8>
    2524:	89 85       	ldd	r24, Y+9	; 0x09
    2526:	88 23       	and	r24, r24
    2528:	09 f4       	brne	.+2      	; 0x252c <MSPI_enReceiveString+0x38>
    252a:	40 c0       	rjmp	.+128    	; 0x25ac <MSPI_enReceiveString+0xb8>
    252c:	24 c0       	rjmp	.+72     	; 0x2576 <MSPI_enReceiveString+0x82>
	{

		while(buffer_index < length - 1)
		{
			if ((SPSR_REG & (1 << SPIF)))
    252e:	ee e2       	ldi	r30, 0x2E	; 46
    2530:	f0 e0       	ldi	r31, 0x00	; 0
    2532:	80 81       	ld	r24, Z
    2534:	88 23       	and	r24, r24
    2536:	fc f4       	brge	.+62     	; 0x2576 <MSPI_enReceiveString+0x82>
			{
				MSPI_status &= MSPI_enReceiveChar(&receivedChar);
    2538:	ce 01       	movw	r24, r28
    253a:	06 96       	adiw	r24, 0x06	; 6
    253c:	0e 94 58 12 	call	0x24b0	; 0x24b0 <MSPI_enReceiveChar>
    2540:	98 2f       	mov	r25, r24
    2542:	8d 81       	ldd	r24, Y+5	; 0x05
    2544:	89 23       	and	r24, r25
    2546:	8d 83       	std	Y+5, r24	; 0x05
				if (receivedChar == '\0')
    2548:	8e 81       	ldd	r24, Y+6	; 0x06
    254a:	88 23       	and	r24, r24
    254c:	31 f1       	breq	.+76     	; 0x259a <MSPI_enReceiveString+0xa6>
				{
					break;
				}

				ref_u8_buffer[buffer_index] = receivedChar;
    254e:	29 81       	ldd	r18, Y+1	; 0x01
    2550:	3a 81       	ldd	r19, Y+2	; 0x02
    2552:	8f 81       	ldd	r24, Y+7	; 0x07
    2554:	98 85       	ldd	r25, Y+8	; 0x08
    2556:	fc 01       	movw	r30, r24
    2558:	e2 0f       	add	r30, r18
    255a:	f3 1f       	adc	r31, r19
    255c:	8e 81       	ldd	r24, Y+6	; 0x06
    255e:	80 83       	st	Z, r24
				buffer_index++;
    2560:	89 81       	ldd	r24, Y+1	; 0x01
    2562:	9a 81       	ldd	r25, Y+2	; 0x02
    2564:	ab 81       	ldd	r26, Y+3	; 0x03
    2566:	bc 81       	ldd	r27, Y+4	; 0x04
    2568:	01 96       	adiw	r24, 0x01	; 1
    256a:	a1 1d       	adc	r26, r1
    256c:	b1 1d       	adc	r27, r1
    256e:	89 83       	std	Y+1, r24	; 0x01
    2570:	9a 83       	std	Y+2, r25	; 0x02
    2572:	ab 83       	std	Y+3, r26	; 0x03
    2574:	bc 83       	std	Y+4, r27	; 0x04
	Uint8_t receivedChar;

	if (ref_u8_buffer != NULL && length > 0)
	{

		while(buffer_index < length - 1)
    2576:	89 85       	ldd	r24, Y+9	; 0x09
    2578:	88 2f       	mov	r24, r24
    257a:	90 e0       	ldi	r25, 0x00	; 0
    257c:	01 97       	sbiw	r24, 0x01	; 1
    257e:	9c 01       	movw	r18, r24
    2580:	44 27       	eor	r20, r20
    2582:	37 fd       	sbrc	r19, 7
    2584:	40 95       	com	r20
    2586:	54 2f       	mov	r21, r20
    2588:	89 81       	ldd	r24, Y+1	; 0x01
    258a:	9a 81       	ldd	r25, Y+2	; 0x02
    258c:	ab 81       	ldd	r26, Y+3	; 0x03
    258e:	bc 81       	ldd	r27, Y+4	; 0x04
    2590:	82 17       	cp	r24, r18
    2592:	93 07       	cpc	r25, r19
    2594:	a4 07       	cpc	r26, r20
    2596:	b5 07       	cpc	r27, r21
    2598:	50 f2       	brcs	.-108    	; 0x252e <MSPI_enReceiveString+0x3a>

				ref_u8_buffer[buffer_index] = receivedChar;
				buffer_index++;
			}
		}
		ref_u8_buffer[buffer_index] = '\0';
    259a:	89 81       	ldd	r24, Y+1	; 0x01
    259c:	9a 81       	ldd	r25, Y+2	; 0x02
    259e:	2f 81       	ldd	r18, Y+7	; 0x07
    25a0:	38 85       	ldd	r19, Y+8	; 0x08
    25a2:	f9 01       	movw	r30, r18
    25a4:	e8 0f       	add	r30, r24
    25a6:	f9 1f       	adc	r31, r25
    25a8:	10 82       	st	Z, r1
    25aa:	01 c0       	rjmp	.+2      	; 0x25ae <MSPI_enReceiveString+0xba>
	}
	else
	{
	   MSPI_status = SPI_NOK;
    25ac:	1d 82       	std	Y+5, r1	; 0x05
	}
	return MSPI_status;
    25ae:	8d 81       	ldd	r24, Y+5	; 0x05
}
    25b0:	29 96       	adiw	r28, 0x09	; 9
    25b2:	0f b6       	in	r0, 0x3f	; 63
    25b4:	f8 94       	cli
    25b6:	de bf       	out	0x3e, r29	; 62
    25b8:	0f be       	out	0x3f, r0	; 63
    25ba:	cd bf       	out	0x3d, r28	; 61
    25bc:	cf 91       	pop	r28
    25be:	df 91       	pop	r29
    25c0:	08 95       	ret

000025c2 <__vector_12>:

/*************************************************************************
 * 					INTERRUPT HANDLER
 ************************************************************************/
ISR(SPI_STC_vect)
{
    25c2:	1f 92       	push	r1
    25c4:	0f 92       	push	r0
    25c6:	0f b6       	in	r0, 0x3f	; 63
    25c8:	0f 92       	push	r0
    25ca:	11 24       	eor	r1, r1
    25cc:	2f 93       	push	r18
    25ce:	3f 93       	push	r19
    25d0:	4f 93       	push	r20
    25d2:	5f 93       	push	r21
    25d4:	6f 93       	push	r22
    25d6:	7f 93       	push	r23
    25d8:	8f 93       	push	r24
    25da:	9f 93       	push	r25
    25dc:	ef 93       	push	r30
    25de:	ff 93       	push	r31
    25e0:	df 93       	push	r29
    25e2:	cf 93       	push	r28
    25e4:	0f 92       	push	r0
    25e6:	cd b7       	in	r28, 0x3d	; 61
    25e8:	de b7       	in	r29, 0x3e	; 62
    Uint8_t receivedChar = SPDR_REG;
    25ea:	ef e2       	ldi	r30, 0x2F	; 47
    25ec:	f0 e0       	ldi	r31, 0x00	; 0
    25ee:	80 81       	ld	r24, Z
    25f0:	89 83       	std	Y+1, r24	; 0x01

    // Check for the end of the string (using '\0' as a delimiter)
//    if (receivedChar == '\0' || g_u8_stringIndex >= sizeof(g_u8_receivedString) - 1)
    if (receivedChar == '\0' || g_u8_stringIndex >= sizeof(st_dataBuffer[g_u8_structBufferIndex].receivedBuffer) - 1)
    25f2:	89 81       	ldd	r24, Y+1	; 0x01
    25f4:	88 23       	and	r24, r24
    25f6:	21 f0       	breq	.+8      	; 0x2600 <__vector_12+0x3e>
    25f8:	80 91 e7 03 	lds	r24, 0x03E7
    25fc:	81 33       	cpi	r24, 0x31	; 49
    25fe:	40 f1       	brcs	.+80     	; 0x2650 <__vector_12+0x8e>
    {
//    	g_u8_receivedString[g_u8_stringIndex] = '\0';  // Null-terminate the string
    	st_dataBuffer[g_u8_structBufferIndex].receivedBuffer[g_u8_stringIndex] = '\0';
    2600:	80 91 e8 03 	lds	r24, 0x03E8
    2604:	48 2f       	mov	r20, r24
    2606:	50 e0       	ldi	r21, 0x00	; 0
    2608:	80 91 e7 03 	lds	r24, 0x03E7
    260c:	28 2f       	mov	r18, r24
    260e:	30 e0       	ldi	r19, 0x00	; 0
    2610:	82 e3       	ldi	r24, 0x32	; 50
    2612:	90 e0       	ldi	r25, 0x00	; 0
    2614:	bc 01       	movw	r22, r24
    2616:	46 9f       	mul	r20, r22
    2618:	c0 01       	movw	r24, r0
    261a:	47 9f       	mul	r20, r23
    261c:	90 0d       	add	r25, r0
    261e:	56 9f       	mul	r21, r22
    2620:	90 0d       	add	r25, r0
    2622:	11 24       	eor	r1, r1
    2624:	82 0f       	add	r24, r18
    2626:	93 1f       	adc	r25, r19
    2628:	fc 01       	movw	r30, r24
    262a:	e7 5c       	subi	r30, 0xC7	; 199
    262c:	fb 4f       	sbci	r31, 0xFB	; 251
    262e:	10 82       	st	Z, r1
        g_u8_stringComplete = 1;
    2630:	81 e0       	ldi	r24, 0x01	; 1
    2632:	80 93 e6 03 	sts	0x03E6, r24
        g_u8_stringIndex = 0;  // Reset the index for the next string
    2636:	10 92 e7 03 	sts	0x03E7, r1
        g_u8_structBufferIndex++;
    263a:	80 91 e8 03 	lds	r24, 0x03E8
    263e:	8f 5f       	subi	r24, 0xFF	; 255
    2640:	80 93 e8 03 	sts	0x03E8, r24
        g_u8_counter++;
    2644:	80 91 e9 03 	lds	r24, 0x03E9
    2648:	8f 5f       	subi	r24, 0xFF	; 255
    264a:	80 93 e9 03 	sts	0x03E9, r24
    264e:	1e c0       	rjmp	.+60     	; 0x268c <__vector_12+0xca>
    }
    else
    {
    	st_dataBuffer[g_u8_structBufferIndex].receivedBuffer[g_u8_stringIndex] = receivedChar;
    2650:	80 91 e8 03 	lds	r24, 0x03E8
    2654:	48 2f       	mov	r20, r24
    2656:	50 e0       	ldi	r21, 0x00	; 0
    2658:	80 91 e7 03 	lds	r24, 0x03E7
    265c:	28 2f       	mov	r18, r24
    265e:	30 e0       	ldi	r19, 0x00	; 0
    2660:	82 e3       	ldi	r24, 0x32	; 50
    2662:	90 e0       	ldi	r25, 0x00	; 0
    2664:	bc 01       	movw	r22, r24
    2666:	46 9f       	mul	r20, r22
    2668:	c0 01       	movw	r24, r0
    266a:	47 9f       	mul	r20, r23
    266c:	90 0d       	add	r25, r0
    266e:	56 9f       	mul	r21, r22
    2670:	90 0d       	add	r25, r0
    2672:	11 24       	eor	r1, r1
    2674:	82 0f       	add	r24, r18
    2676:	93 1f       	adc	r25, r19
    2678:	fc 01       	movw	r30, r24
    267a:	e7 5c       	subi	r30, 0xC7	; 199
    267c:	fb 4f       	sbci	r31, 0xFB	; 251
    267e:	89 81       	ldd	r24, Y+1	; 0x01
    2680:	80 83       	st	Z, r24
//    	g_u8_receivedString[g_u8_stringIndex] = receivedChar;
        g_u8_stringIndex++;
    2682:	80 91 e7 03 	lds	r24, 0x03E7
    2686:	8f 5f       	subi	r24, 0xFF	; 255
    2688:	80 93 e7 03 	sts	0x03E7, r24
    }
}
    268c:	0f 90       	pop	r0
    268e:	cf 91       	pop	r28
    2690:	df 91       	pop	r29
    2692:	ff 91       	pop	r31
    2694:	ef 91       	pop	r30
    2696:	9f 91       	pop	r25
    2698:	8f 91       	pop	r24
    269a:	7f 91       	pop	r23
    269c:	6f 91       	pop	r22
    269e:	5f 91       	pop	r21
    26a0:	4f 91       	pop	r20
    26a2:	3f 91       	pop	r19
    26a4:	2f 91       	pop	r18
    26a6:	0f 90       	pop	r0
    26a8:	0f be       	out	0x3f, r0	; 63
    26aa:	0f 90       	pop	r0
    26ac:	1f 90       	pop	r1
    26ae:	18 95       	reti

000026b0 <i2c_init_master>:
/****************************************************************************/
/*								Function Implementation			     		*/
/****************************************************************************/

void i2c_init_master(void)
{
    26b0:	df 93       	push	r29
    26b2:	cf 93       	push	r28
    26b4:	cd b7       	in	r28, 0x3d	; 61
    26b6:	de b7       	in	r29, 0x3e	; 62
//	TWAR = (1<<1);    // my address = 0x01
//	TWCR = (1<<TWEN);


//	/* Set prescallar to 1 to get 400 KHz  */
	ClrBit(TWSR, TWPS0);
    26b8:	a1 e2       	ldi	r26, 0x21	; 33
    26ba:	b0 e0       	ldi	r27, 0x00	; 0
    26bc:	e1 e2       	ldi	r30, 0x21	; 33
    26be:	f0 e0       	ldi	r31, 0x00	; 0
    26c0:	80 81       	ld	r24, Z
    26c2:	8e 7f       	andi	r24, 0xFE	; 254
    26c4:	8c 93       	st	X, r24
	ClrBit(TWSR, TWPS1);
    26c6:	a1 e2       	ldi	r26, 0x21	; 33
    26c8:	b0 e0       	ldi	r27, 0x00	; 0
    26ca:	e1 e2       	ldi	r30, 0x21	; 33
    26cc:	f0 e0       	ldi	r31, 0x00	; 0
    26ce:	80 81       	ld	r24, Z
    26d0:	8d 7f       	andi	r24, 0xFD	; 253
    26d2:	8c 93       	st	X, r24
//	/* According to this formula {SCL_freq = (CPU_freq)/(16 + (2(TWBR)*4^TWPS)) }
//	 * According to prescallar is 1 ----> TWPS = 0 , so wet put 0x02 to TWBR to get 400 kHz
//	 **/
	TWBR = 0x02;
    26d4:	e0 e2       	ldi	r30, 0x20	; 32
    26d6:	f0 e0       	ldi	r31, 0x00	; 0
    26d8:	82 e0       	ldi	r24, 0x02	; 2
    26da:	80 83       	st	Z, r24
//	/* Set Master Address */
	TWAR = (MASTER_ADDRESS << 1);
    26dc:	e2 e2       	ldi	r30, 0x22	; 34
    26de:	f0 e0       	ldi	r31, 0x00	; 0
    26e0:	80 ea       	ldi	r24, 0xA0	; 160
    26e2:	80 83       	st	Z, r24
//	/* Enable I2C peripheral */
	SetBit(TWCR, TWEN);
    26e4:	a6 e5       	ldi	r26, 0x56	; 86
    26e6:	b0 e0       	ldi	r27, 0x00	; 0
    26e8:	e6 e5       	ldi	r30, 0x56	; 86
    26ea:	f0 e0       	ldi	r31, 0x00	; 0
    26ec:	80 81       	ld	r24, Z
    26ee:	84 60       	ori	r24, 0x04	; 4
    26f0:	8c 93       	st	X, r24
}
    26f2:	cf 91       	pop	r28
    26f4:	df 91       	pop	r29
    26f6:	08 95       	ret

000026f8 <i2c_init_slave>:


void i2c_init_slave (void)
{
    26f8:	df 93       	push	r29
    26fa:	cf 93       	push	r28
    26fc:	cd b7       	in	r28, 0x3d	; 61
    26fe:	de b7       	in	r29, 0x3e	; 62
	/* Set Slave Address */
	TWAR = (SLAVE_ADDRESS << 1);
    2700:	e2 e2       	ldi	r30, 0x22	; 34
    2702:	f0 e0       	ldi	r31, 0x00	; 0
    2704:	80 e8       	ldi	r24, 0x80	; 128
    2706:	80 83       	st	Z, r24
	/* Enable I2C peripheral */
	SetBit(TWCR, TWEN);
    2708:	a6 e5       	ldi	r26, 0x56	; 86
    270a:	b0 e0       	ldi	r27, 0x00	; 0
    270c:	e6 e5       	ldi	r30, 0x56	; 86
    270e:	f0 e0       	ldi	r31, 0x00	; 0
    2710:	80 81       	ld	r24, Z
    2712:	84 60       	ori	r24, 0x04	; 4
    2714:	8c 93       	st	X, r24
}
    2716:	cf 91       	pop	r28
    2718:	df 91       	pop	r29
    271a:	08 95       	ret

0000271c <i2c_start>:


void i2c_start(void)
{
    271c:	df 93       	push	r29
    271e:	cf 93       	push	r28
    2720:	cd b7       	in	r28, 0x3d	; 61
    2722:	de b7       	in	r29, 0x3e	; 62
	TWCR = (1<<TWINT) | (1<<TWSTA) | (1<<TWEN);
    2724:	e6 e5       	ldi	r30, 0x56	; 86
    2726:	f0 e0       	ldi	r31, 0x00	; 0
    2728:	84 ea       	ldi	r24, 0xA4	; 164
    272a:	80 83       	st	Z, r24
	/* Enable Start bit */
//	SetBit(TWCR, TWSTA);
	/* Enable I2C peripheral */
//	SetBit(TWCR, TWEN);
	/* Waiting for TWINT flag to be set */
	while ( !(GetBit(TWCR,TWINT)) );
    272c:	e6 e5       	ldi	r30, 0x56	; 86
    272e:	f0 e0       	ldi	r31, 0x00	; 0
    2730:	80 81       	ld	r24, Z
    2732:	88 23       	and	r24, r24
    2734:	dc f7       	brge	.-10     	; 0x272c <i2c_start+0x10>
	/* Waiting if this condition becoming true */
	while ( (TWSR & 0xF8) != START_ACK );
    2736:	e1 e2       	ldi	r30, 0x21	; 33
    2738:	f0 e0       	ldi	r31, 0x00	; 0
    273a:	80 81       	ld	r24, Z
    273c:	88 2f       	mov	r24, r24
    273e:	90 e0       	ldi	r25, 0x00	; 0
    2740:	88 7f       	andi	r24, 0xF8	; 248
    2742:	90 70       	andi	r25, 0x00	; 0
    2744:	88 30       	cpi	r24, 0x08	; 8
    2746:	91 05       	cpc	r25, r1
    2748:	b1 f7       	brne	.-20     	; 0x2736 <i2c_start+0x1a>
	/* Disable Start bit */
//	ClrBit(TWCR, TWSTA);
}
    274a:	cf 91       	pop	r28
    274c:	df 91       	pop	r29
    274e:	08 95       	ret

00002750 <i2c_repeated_start>:


void i2c_repeated_start(void)
{
    2750:	df 93       	push	r29
    2752:	cf 93       	push	r28
    2754:	cd b7       	in	r28, 0x3d	; 61
    2756:	de b7       	in	r29, 0x3e	; 62
	TWCR = (1<<TWINT) | (1<<TWSTA) | (1<<TWEN);
    2758:	e6 e5       	ldi	r30, 0x56	; 86
    275a:	f0 e0       	ldi	r31, 0x00	; 0
    275c:	84 ea       	ldi	r24, 0xA4	; 164
    275e:	80 83       	st	Z, r24
	/* Enable Start bit */
//	SetBit(TWCR, TWSTA);
	/* Enable I2C peripheral */
//	SetBit(TWCR, TWEN);
	/* Waiting for TWINT flag to be set */
	while ( !(GetBit(TWCR,TWINT)) );
    2760:	e6 e5       	ldi	r30, 0x56	; 86
    2762:	f0 e0       	ldi	r31, 0x00	; 0
    2764:	80 81       	ld	r24, Z
    2766:	88 23       	and	r24, r24
    2768:	dc f7       	brge	.-10     	; 0x2760 <i2c_repeated_start+0x10>
	/* Waiting if this condition becoming true */
	while ( (TWSR & 0xF8) != REP_START_ACK );
    276a:	e1 e2       	ldi	r30, 0x21	; 33
    276c:	f0 e0       	ldi	r31, 0x00	; 0
    276e:	80 81       	ld	r24, Z
    2770:	88 2f       	mov	r24, r24
    2772:	90 e0       	ldi	r25, 0x00	; 0
    2774:	88 7f       	andi	r24, 0xF8	; 248
    2776:	90 70       	andi	r25, 0x00	; 0
    2778:	80 31       	cpi	r24, 0x10	; 16
    277a:	91 05       	cpc	r25, r1
    277c:	b1 f7       	brne	.-20     	; 0x276a <i2c_repeated_start+0x1a>
	/* Disable Start bit */
//	ClrBit(TWCR, TWSTA);
}
    277e:	cf 91       	pop	r28
    2780:	df 91       	pop	r29
    2782:	08 95       	ret

00002784 <i2c_send_slave_address_with_write_req>:


void i2c_send_slave_address_with_write_req(Uint8_t slave_address)
{
    2784:	df 93       	push	r29
    2786:	cf 93       	push	r28
    2788:	0f 92       	push	r0
    278a:	cd b7       	in	r28, 0x3d	; 61
    278c:	de b7       	in	r29, 0x3e	; 62
    278e:	89 83       	std	Y+1, r24	; 0x01
	/* Putting slave address to TWDR register to be transmitted */
	TWDR = (slave_address<<1);
    2790:	e3 e2       	ldi	r30, 0x23	; 35
    2792:	f0 e0       	ldi	r31, 0x00	; 0
    2794:	89 81       	ldd	r24, Y+1	; 0x01
    2796:	88 0f       	add	r24, r24
    2798:	80 83       	st	Z, r24
	/* Set bit 0 on TWDR register to make write operation */
	ClrBit(TWDR, R_W);
    279a:	a3 e2       	ldi	r26, 0x23	; 35
    279c:	b0 e0       	ldi	r27, 0x00	; 0
    279e:	e3 e2       	ldi	r30, 0x23	; 35
    27a0:	f0 e0       	ldi	r31, 0x00	; 0
    27a2:	80 81       	ld	r24, Z
    27a4:	8e 7f       	andi	r24, 0xFE	; 254
    27a6:	8c 93       	st	X, r24

	TWCR = (1<<TWINT) | (1<<TWEN);
    27a8:	e6 e5       	ldi	r30, 0x56	; 86
    27aa:	f0 e0       	ldi	r31, 0x00	; 0
    27ac:	84 e8       	ldi	r24, 0x84	; 132
    27ae:	80 83       	st	Z, r24
	/* Clear TWINT flag */
//	SetBit(TWCR, TWINT);
	/* Enable I2C peripheral */
//	SetBit(TWCR, TWEN);
	/* Waiting for TWINT flag to be set */
	while ( !(GetBit(TWCR,TWINT)) );
    27b0:	e6 e5       	ldi	r30, 0x56	; 86
    27b2:	f0 e0       	ldi	r31, 0x00	; 0
    27b4:	80 81       	ld	r24, Z
    27b6:	88 23       	and	r24, r24
    27b8:	dc f7       	brge	.-10     	; 0x27b0 <i2c_send_slave_address_with_write_req+0x2c>
	/* Waiting if this condition becoming true */
	while ( (TWSR & 0xF8) != SLAVE_ADD_AND_WR_ACK );
    27ba:	e1 e2       	ldi	r30, 0x21	; 33
    27bc:	f0 e0       	ldi	r31, 0x00	; 0
    27be:	80 81       	ld	r24, Z
    27c0:	88 2f       	mov	r24, r24
    27c2:	90 e0       	ldi	r25, 0x00	; 0
    27c4:	88 7f       	andi	r24, 0xF8	; 248
    27c6:	90 70       	andi	r25, 0x00	; 0
    27c8:	88 31       	cpi	r24, 0x18	; 24
    27ca:	91 05       	cpc	r25, r1
    27cc:	b1 f7       	brne	.-20     	; 0x27ba <i2c_send_slave_address_with_write_req+0x36>
}
    27ce:	0f 90       	pop	r0
    27d0:	cf 91       	pop	r28
    27d2:	df 91       	pop	r29
    27d4:	08 95       	ret

000027d6 <i2c_send_slave_address_with_read_req>:


void i2c_send_slave_address_with_read_req(Uint8_t slave_address)
{
    27d6:	df 93       	push	r29
    27d8:	cf 93       	push	r28
    27da:	0f 92       	push	r0
    27dc:	cd b7       	in	r28, 0x3d	; 61
    27de:	de b7       	in	r29, 0x3e	; 62
    27e0:	89 83       	std	Y+1, r24	; 0x01
	TWDR = (slave_address<<1);
    27e2:	e3 e2       	ldi	r30, 0x23	; 35
    27e4:	f0 e0       	ldi	r31, 0x00	; 0
    27e6:	89 81       	ldd	r24, Y+1	; 0x01
    27e8:	88 0f       	add	r24, r24
    27ea:	80 83       	st	Z, r24
	TWDR |= (1<<0);
    27ec:	a3 e2       	ldi	r26, 0x23	; 35
    27ee:	b0 e0       	ldi	r27, 0x00	; 0
    27f0:	e3 e2       	ldi	r30, 0x23	; 35
    27f2:	f0 e0       	ldi	r31, 0x00	; 0
    27f4:	80 81       	ld	r24, Z
    27f6:	81 60       	ori	r24, 0x01	; 1
    27f8:	8c 93       	st	X, r24
	TWCR = (1<<TWINT) | (1<<TWEN);
    27fa:	e6 e5       	ldi	r30, 0x56	; 86
    27fc:	f0 e0       	ldi	r31, 0x00	; 0
    27fe:	84 e8       	ldi	r24, 0x84	; 132
    2800:	80 83       	st	Z, r24
#endif
/*********************************************************************************/
	/* Enable I2C peripheral */
//	SetBit(TWCR, TWEN);
	/* Waiting for TWINT flag to be set */
	while ( !(GetBit(TWCR,TWINT)) );
    2802:	e6 e5       	ldi	r30, 0x56	; 86
    2804:	f0 e0       	ldi	r31, 0x00	; 0
    2806:	80 81       	ld	r24, Z
    2808:	88 23       	and	r24, r24
    280a:	dc f7       	brge	.-10     	; 0x2802 <i2c_send_slave_address_with_read_req+0x2c>
	/* Waiting if this condition becoming true */
//	while ( (TWSR & 0xF8) != SLAVE_ADD_AND_RD_ACK );
}
    280c:	0f 90       	pop	r0
    280e:	cf 91       	pop	r28
    2810:	df 91       	pop	r29
    2812:	08 95       	ret

00002814 <i2c_write_byte>:


void i2c_write_byte(Uint8_t byte)
{
    2814:	df 93       	push	r29
    2816:	cf 93       	push	r28
    2818:	0f 92       	push	r0
    281a:	cd b7       	in	r28, 0x3d	; 61
    281c:	de b7       	in	r29, 0x3e	; 62
    281e:	89 83       	std	Y+1, r24	; 0x01

	/* Putting data to TWDR register to be transmitted */
	TWDR = byte;
    2820:	e3 e2       	ldi	r30, 0x23	; 35
    2822:	f0 e0       	ldi	r31, 0x00	; 0
    2824:	89 81       	ldd	r24, Y+1	; 0x01
    2826:	80 83       	st	Z, r24

//	TWCR = (1<<TWINT) | (1<<TWEN);
	/* Clear TWINT flag */
	SetBit(TWCR, TWINT);
    2828:	a6 e5       	ldi	r26, 0x56	; 86
    282a:	b0 e0       	ldi	r27, 0x00	; 0
    282c:	e6 e5       	ldi	r30, 0x56	; 86
    282e:	f0 e0       	ldi	r31, 0x00	; 0
    2830:	80 81       	ld	r24, Z
    2832:	80 68       	ori	r24, 0x80	; 128
    2834:	8c 93       	st	X, r24
	/* Enable I2C peripheral */
	SetBit(TWCR, TWEN);
    2836:	a6 e5       	ldi	r26, 0x56	; 86
    2838:	b0 e0       	ldi	r27, 0x00	; 0
    283a:	e6 e5       	ldi	r30, 0x56	; 86
    283c:	f0 e0       	ldi	r31, 0x00	; 0
    283e:	80 81       	ld	r24, Z
    2840:	84 60       	ori	r24, 0x04	; 4
    2842:	8c 93       	st	X, r24
	/* Waiting for TWINT flag to be set */
	while ( !(GetBit(TWCR,TWINT)) );
    2844:	e6 e5       	ldi	r30, 0x56	; 86
    2846:	f0 e0       	ldi	r31, 0x00	; 0
    2848:	80 81       	ld	r24, Z
    284a:	88 23       	and	r24, r24
    284c:	dc f7       	brge	.-10     	; 0x2844 <i2c_write_byte+0x30>
	/* Waiting if this condition becoming true */
	while ( (TWSR & 0xF8) != WR_BYTE_ACK );
    284e:	e1 e2       	ldi	r30, 0x21	; 33
    2850:	f0 e0       	ldi	r31, 0x00	; 0
    2852:	80 81       	ld	r24, Z
    2854:	88 2f       	mov	r24, r24
    2856:	90 e0       	ldi	r25, 0x00	; 0
    2858:	88 7f       	andi	r24, 0xF8	; 248
    285a:	90 70       	andi	r25, 0x00	; 0
    285c:	88 32       	cpi	r24, 0x28	; 40
    285e:	91 05       	cpc	r25, r1
    2860:	b1 f7       	brne	.-20     	; 0x284e <i2c_write_byte+0x3a>
}
    2862:	0f 90       	pop	r0
    2864:	cf 91       	pop	r28
    2866:	df 91       	pop	r29
    2868:	08 95       	ret

0000286a <i2c_read_byte>:


Uint8_t i2c_read_byte(void)
{
    286a:	df 93       	push	r29
    286c:	cf 93       	push	r28
    286e:	cd b7       	in	r28, 0x3d	; 61
    2870:	de b7       	in	r29, 0x3e	; 62
	TWCR = (1<<TWINT) | (1<<TWEN);
    2872:	e6 e5       	ldi	r30, 0x56	; 86
    2874:	f0 e0       	ldi	r31, 0x00	; 0
    2876:	84 e8       	ldi	r24, 0x84	; 132
    2878:	80 83       	st	Z, r24
	/* Clear TWINT flag */
//	SetBit(TWCR, TWINT);
	/* Enable I2C peripheral */
//	SetBit(TWCR, TWEN);
	/* Waiting for TWINT flag to be set */
	while ( !(GetBit(TWCR,TWINT)) );
    287a:	e6 e5       	ldi	r30, 0x56	; 86
    287c:	f0 e0       	ldi	r31, 0x00	; 0
    287e:	80 81       	ld	r24, Z
    2880:	88 23       	and	r24, r24
    2882:	dc f7       	brge	.-10     	; 0x287a <i2c_read_byte+0x10>
#elif MI2C_ACK_STATUS == MI2C_ACK_ENABLE
	/* Waiting if this condition becoming true */
	while ( (TWSR & 0xF8) != RD_BYTE_WITH_ACK );
#endif
/*********************************************************************************/
	return TWDR;
    2884:	e3 e2       	ldi	r30, 0x23	; 35
    2886:	f0 e0       	ldi	r31, 0x00	; 0
    2888:	80 81       	ld	r24, Z
}
    288a:	cf 91       	pop	r28
    288c:	df 91       	pop	r29
    288e:	08 95       	ret

00002890 <i2c_stop>:


void i2c_stop(void)
{
    2890:	df 93       	push	r29
    2892:	cf 93       	push	r28
    2894:	cd b7       	in	r28, 0x3d	; 61
    2896:	de b7       	in	r29, 0x3e	; 62
//	TWCR = (1<<TWINT) | (1<<TWEN) | (1<<TWSTO);
	/* Clear TWINT flag */
	SetBit(TWCR, TWINT);
    2898:	a6 e5       	ldi	r26, 0x56	; 86
    289a:	b0 e0       	ldi	r27, 0x00	; 0
    289c:	e6 e5       	ldi	r30, 0x56	; 86
    289e:	f0 e0       	ldi	r31, 0x00	; 0
    28a0:	80 81       	ld	r24, Z
    28a2:	80 68       	ori	r24, 0x80	; 128
    28a4:	8c 93       	st	X, r24
	/* Enable Stop bit */
	SetBit(TWCR, TWSTO);
    28a6:	a6 e5       	ldi	r26, 0x56	; 86
    28a8:	b0 e0       	ldi	r27, 0x00	; 0
    28aa:	e6 e5       	ldi	r30, 0x56	; 86
    28ac:	f0 e0       	ldi	r31, 0x00	; 0
    28ae:	80 81       	ld	r24, Z
    28b0:	80 61       	ori	r24, 0x10	; 16
    28b2:	8c 93       	st	X, r24
	/* Enable I2C peripheral */
	SetBit(TWCR, TWEN);
    28b4:	a6 e5       	ldi	r26, 0x56	; 86
    28b6:	b0 e0       	ldi	r27, 0x00	; 0
    28b8:	e6 e5       	ldi	r30, 0x56	; 86
    28ba:	f0 e0       	ldi	r31, 0x00	; 0
    28bc:	80 81       	ld	r24, Z
    28be:	84 60       	ori	r24, 0x04	; 4
    28c0:	8c 93       	st	X, r24

	while(TWCR&(1<<TWSTO));
    28c2:	e6 e5       	ldi	r30, 0x56	; 86
    28c4:	f0 e0       	ldi	r31, 0x00	; 0
    28c6:	80 81       	ld	r24, Z
    28c8:	88 2f       	mov	r24, r24
    28ca:	90 e0       	ldi	r25, 0x00	; 0
    28cc:	80 71       	andi	r24, 0x10	; 16
    28ce:	90 70       	andi	r25, 0x00	; 0
    28d0:	00 97       	sbiw	r24, 0x00	; 0
    28d2:	b9 f7       	brne	.-18     	; 0x28c2 <i2c_stop+0x32>

//	ClrBit(TWCR, TWSTA);
}
    28d4:	cf 91       	pop	r28
    28d6:	df 91       	pop	r29
    28d8:	08 95       	ret

000028da <i2c_slave_check_slave_address_received_with_write_req>:



void i2c_slave_check_slave_address_received_with_write_req(void)
{
    28da:	df 93       	push	r29
    28dc:	cf 93       	push	r28
    28de:	cd b7       	in	r28, 0x3d	; 61
    28e0:	de b7       	in	r29, 0x3e	; 62
	/* Clear TWINT flag */
	SetBit(TWCR, TWINT);
    28e2:	a6 e5       	ldi	r26, 0x56	; 86
    28e4:	b0 e0       	ldi	r27, 0x00	; 0
    28e6:	e6 e5       	ldi	r30, 0x56	; 86
    28e8:	f0 e0       	ldi	r31, 0x00	; 0
    28ea:	80 81       	ld	r24, Z
    28ec:	80 68       	ori	r24, 0x80	; 128
    28ee:	8c 93       	st	X, r24
	/* Enable ACK bit */
	SetBit(TWCR, TWEA);
    28f0:	a6 e5       	ldi	r26, 0x56	; 86
    28f2:	b0 e0       	ldi	r27, 0x00	; 0
    28f4:	e6 e5       	ldi	r30, 0x56	; 86
    28f6:	f0 e0       	ldi	r31, 0x00	; 0
    28f8:	80 81       	ld	r24, Z
    28fa:	80 64       	ori	r24, 0x40	; 64
    28fc:	8c 93       	st	X, r24
	/* Enable I2C peripheral */
	SetBit(TWCR, TWEN);
    28fe:	a6 e5       	ldi	r26, 0x56	; 86
    2900:	b0 e0       	ldi	r27, 0x00	; 0
    2902:	e6 e5       	ldi	r30, 0x56	; 86
    2904:	f0 e0       	ldi	r31, 0x00	; 0
    2906:	80 81       	ld	r24, Z
    2908:	84 60       	ori	r24, 0x04	; 4
    290a:	8c 93       	st	X, r24
	/* Waiting for TWINT flag to be set */
	while ( !(GetBit(TWCR,TWINT)) );
    290c:	e6 e5       	ldi	r30, 0x56	; 86
    290e:	f0 e0       	ldi	r31, 0x00	; 0
    2910:	80 81       	ld	r24, Z
    2912:	88 23       	and	r24, r24
    2914:	dc f7       	brge	.-10     	; 0x290c <i2c_slave_check_slave_address_received_with_write_req+0x32>
	/* Waiting if this condition becoming true */
	while ( (TWSR & 0xF8) != SLAVE_ADD_RCVD_WR_REQ );
    2916:	e1 e2       	ldi	r30, 0x21	; 33
    2918:	f0 e0       	ldi	r31, 0x00	; 0
    291a:	80 81       	ld	r24, Z
    291c:	88 2f       	mov	r24, r24
    291e:	90 e0       	ldi	r25, 0x00	; 0
    2920:	88 7f       	andi	r24, 0xF8	; 248
    2922:	90 70       	andi	r25, 0x00	; 0
    2924:	80 36       	cpi	r24, 0x60	; 96
    2926:	91 05       	cpc	r25, r1
    2928:	b1 f7       	brne	.-20     	; 0x2916 <i2c_slave_check_slave_address_received_with_write_req+0x3c>
}
    292a:	cf 91       	pop	r28
    292c:	df 91       	pop	r29
    292e:	08 95       	ret

00002930 <i2c_slave_check_slave_address_received_with_read_req>:


void i2c_slave_check_slave_address_received_with_read_req(void)
{
    2930:	df 93       	push	r29
    2932:	cf 93       	push	r28
    2934:	cd b7       	in	r28, 0x3d	; 61
    2936:	de b7       	in	r29, 0x3e	; 62
	/* Clear TWINT flag */
	SetBit(TWCR, TWINT);
    2938:	a6 e5       	ldi	r26, 0x56	; 86
    293a:	b0 e0       	ldi	r27, 0x00	; 0
    293c:	e6 e5       	ldi	r30, 0x56	; 86
    293e:	f0 e0       	ldi	r31, 0x00	; 0
    2940:	80 81       	ld	r24, Z
    2942:	80 68       	ori	r24, 0x80	; 128
    2944:	8c 93       	st	X, r24
	/* Enable ACK bit */
	SetBit(TWCR, TWEA);
    2946:	a6 e5       	ldi	r26, 0x56	; 86
    2948:	b0 e0       	ldi	r27, 0x00	; 0
    294a:	e6 e5       	ldi	r30, 0x56	; 86
    294c:	f0 e0       	ldi	r31, 0x00	; 0
    294e:	80 81       	ld	r24, Z
    2950:	80 64       	ori	r24, 0x40	; 64
    2952:	8c 93       	st	X, r24
	/* Enable I2C peripheral */
	SetBit(TWCR, TWEN);
    2954:	a6 e5       	ldi	r26, 0x56	; 86
    2956:	b0 e0       	ldi	r27, 0x00	; 0
    2958:	e6 e5       	ldi	r30, 0x56	; 86
    295a:	f0 e0       	ldi	r31, 0x00	; 0
    295c:	80 81       	ld	r24, Z
    295e:	84 60       	ori	r24, 0x04	; 4
    2960:	8c 93       	st	X, r24
	/* Waiting for TWINT flag to be set */
	while ( !(GetBit(TWCR,TWINT)) );
    2962:	e6 e5       	ldi	r30, 0x56	; 86
    2964:	f0 e0       	ldi	r31, 0x00	; 0
    2966:	80 81       	ld	r24, Z
    2968:	88 23       	and	r24, r24
    296a:	dc f7       	brge	.-10     	; 0x2962 <i2c_slave_check_slave_address_received_with_read_req+0x32>
	/* Waiting if this condition becoming true */
	while ( (TWSR & 0xF8) != SLAVE_ADD_RCVD_RD_REQ );
    296c:	e1 e2       	ldi	r30, 0x21	; 33
    296e:	f0 e0       	ldi	r31, 0x00	; 0
    2970:	80 81       	ld	r24, Z
    2972:	88 2f       	mov	r24, r24
    2974:	90 e0       	ldi	r25, 0x00	; 0
    2976:	88 7f       	andi	r24, 0xF8	; 248
    2978:	90 70       	andi	r25, 0x00	; 0
    297a:	88 3a       	cpi	r24, 0xA8	; 168
    297c:	91 05       	cpc	r25, r1
    297e:	b1 f7       	brne	.-20     	; 0x296c <i2c_slave_check_slave_address_received_with_read_req+0x3c>
}
    2980:	cf 91       	pop	r28
    2982:	df 91       	pop	r29
    2984:	08 95       	ret

00002986 <i2c_slave_read_byte>:


Uint8_t i2c_slave_read_byte(void)
{
    2986:	df 93       	push	r29
    2988:	cf 93       	push	r28
    298a:	cd b7       	in	r28, 0x3d	; 61
    298c:	de b7       	in	r29, 0x3e	; 62
	/* Clear TWINT flag */
	SetBit(TWCR, TWINT);
    298e:	a6 e5       	ldi	r26, 0x56	; 86
    2990:	b0 e0       	ldi	r27, 0x00	; 0
    2992:	e6 e5       	ldi	r30, 0x56	; 86
    2994:	f0 e0       	ldi	r31, 0x00	; 0
    2996:	80 81       	ld	r24, Z
    2998:	80 68       	ori	r24, 0x80	; 128
    299a:	8c 93       	st	X, r24
	/* Enable ACK bit */
	SetBit(TWCR, TWEA);
    299c:	a6 e5       	ldi	r26, 0x56	; 86
    299e:	b0 e0       	ldi	r27, 0x00	; 0
    29a0:	e6 e5       	ldi	r30, 0x56	; 86
    29a2:	f0 e0       	ldi	r31, 0x00	; 0
    29a4:	80 81       	ld	r24, Z
    29a6:	80 64       	ori	r24, 0x40	; 64
    29a8:	8c 93       	st	X, r24
	/* Enable I2C peripheral */
	SetBit(TWCR, TWEN);
    29aa:	a6 e5       	ldi	r26, 0x56	; 86
    29ac:	b0 e0       	ldi	r27, 0x00	; 0
    29ae:	e6 e5       	ldi	r30, 0x56	; 86
    29b0:	f0 e0       	ldi	r31, 0x00	; 0
    29b2:	80 81       	ld	r24, Z
    29b4:	84 60       	ori	r24, 0x04	; 4
    29b6:	8c 93       	st	X, r24
	/* Waiting for TWINT flag to be set */
	while ( !(GetBit(TWCR,TWINT)) );
    29b8:	e6 e5       	ldi	r30, 0x56	; 86
    29ba:	f0 e0       	ldi	r31, 0x00	; 0
    29bc:	80 81       	ld	r24, Z
    29be:	88 23       	and	r24, r24
    29c0:	dc f7       	brge	.-10     	; 0x29b8 <i2c_slave_read_byte+0x32>
	/* Waiting if this condition becoming true */
	while ( (TWSR & 0xF8) != SLAVE_DATA_RECEIVED );
    29c2:	e1 e2       	ldi	r30, 0x21	; 33
    29c4:	f0 e0       	ldi	r31, 0x00	; 0
    29c6:	80 81       	ld	r24, Z
    29c8:	88 2f       	mov	r24, r24
    29ca:	90 e0       	ldi	r25, 0x00	; 0
    29cc:	88 7f       	andi	r24, 0xF8	; 248
    29ce:	90 70       	andi	r25, 0x00	; 0
    29d0:	80 38       	cpi	r24, 0x80	; 128
    29d2:	91 05       	cpc	r25, r1
    29d4:	b1 f7       	brne	.-20     	; 0x29c2 <i2c_slave_read_byte+0x3c>

	return TWDR;
    29d6:	e3 e2       	ldi	r30, 0x23	; 35
    29d8:	f0 e0       	ldi	r31, 0x00	; 0
    29da:	80 81       	ld	r24, Z
}
    29dc:	cf 91       	pop	r28
    29de:	df 91       	pop	r29
    29e0:	08 95       	ret

000029e2 <i2c_slave_write_byte>:


void i2c_slave_write_byte(Uint8_t byte)
{
    29e2:	df 93       	push	r29
    29e4:	cf 93       	push	r28
    29e6:	0f 92       	push	r0
    29e8:	cd b7       	in	r28, 0x3d	; 61
    29ea:	de b7       	in	r29, 0x3e	; 62
    29ec:	89 83       	std	Y+1, r24	; 0x01
	/* Putting data to TWDR register to be transmitted */
	TWDR = byte;
    29ee:	e3 e2       	ldi	r30, 0x23	; 35
    29f0:	f0 e0       	ldi	r31, 0x00	; 0
    29f2:	89 81       	ldd	r24, Y+1	; 0x01
    29f4:	80 83       	st	Z, r24
	/* Clear TWINT flag */
	SetBit(TWCR, TWINT);
    29f6:	a6 e5       	ldi	r26, 0x56	; 86
    29f8:	b0 e0       	ldi	r27, 0x00	; 0
    29fa:	e6 e5       	ldi	r30, 0x56	; 86
    29fc:	f0 e0       	ldi	r31, 0x00	; 0
    29fe:	80 81       	ld	r24, Z
    2a00:	80 68       	ori	r24, 0x80	; 128
    2a02:	8c 93       	st	X, r24
	/* Enable ACK bit */
	SetBit(TWCR, TWEA);
    2a04:	a6 e5       	ldi	r26, 0x56	; 86
    2a06:	b0 e0       	ldi	r27, 0x00	; 0
    2a08:	e6 e5       	ldi	r30, 0x56	; 86
    2a0a:	f0 e0       	ldi	r31, 0x00	; 0
    2a0c:	80 81       	ld	r24, Z
    2a0e:	80 64       	ori	r24, 0x40	; 64
    2a10:	8c 93       	st	X, r24
	/* Enable I2C peripheral */
	SetBit(TWCR, TWEN);
    2a12:	a6 e5       	ldi	r26, 0x56	; 86
    2a14:	b0 e0       	ldi	r27, 0x00	; 0
    2a16:	e6 e5       	ldi	r30, 0x56	; 86
    2a18:	f0 e0       	ldi	r31, 0x00	; 0
    2a1a:	80 81       	ld	r24, Z
    2a1c:	84 60       	ori	r24, 0x04	; 4
    2a1e:	8c 93       	st	X, r24
	/* Waiting for TWINT flag to be set */
	while ( !(GetBit(TWCR,TWINT)) );
    2a20:	e6 e5       	ldi	r30, 0x56	; 86
    2a22:	f0 e0       	ldi	r31, 0x00	; 0
    2a24:	80 81       	ld	r24, Z
    2a26:	88 23       	and	r24, r24
    2a28:	dc f7       	brge	.-10     	; 0x2a20 <i2c_slave_write_byte+0x3e>
	/* Waiting if this condition becoming true */
	while ( (TWSR & 0xF8) != SLAVE_BYTE_TRANSMITTED );
    2a2a:	e1 e2       	ldi	r30, 0x21	; 33
    2a2c:	f0 e0       	ldi	r31, 0x00	; 0
    2a2e:	80 81       	ld	r24, Z
    2a30:	88 2f       	mov	r24, r24
    2a32:	90 e0       	ldi	r25, 0x00	; 0
    2a34:	88 7f       	andi	r24, 0xF8	; 248
    2a36:	90 70       	andi	r25, 0x00	; 0
    2a38:	80 3c       	cpi	r24, 0xC0	; 192
    2a3a:	91 05       	cpc	r25, r1
    2a3c:	b1 f7       	brne	.-20     	; 0x2a2a <i2c_slave_write_byte+0x48>
}
    2a3e:	0f 90       	pop	r0
    2a40:	cf 91       	pop	r28
    2a42:	df 91       	pop	r29
    2a44:	08 95       	ret

00002a46 <vidExtInt_init>:

/************************************************************************************************/
/*									FUNCTION_IMPLEMENTATION										*/
/************************************************************************************************/
Uint8_t vidExtInt_init(enu_int_type_t enIntType, enu_sns_ctrl_t enSensControl)
{
    2a46:	df 93       	push	r29
    2a48:	cf 93       	push	r28
    2a4a:	cd b7       	in	r28, 0x3d	; 61
    2a4c:	de b7       	in	r29, 0x3e	; 62
    2a4e:	29 97       	sbiw	r28, 0x09	; 9
    2a50:	0f b6       	in	r0, 0x3f	; 63
    2a52:	f8 94       	cli
    2a54:	de bf       	out	0x3e, r29	; 62
    2a56:	0f be       	out	0x3f, r0	; 63
    2a58:	cd bf       	out	0x3d, r28	; 61
    2a5a:	8a 83       	std	Y+2, r24	; 0x02
    2a5c:	6b 83       	std	Y+3, r22	; 0x03

	Uint8_t err_status = E_INT_OK;
    2a5e:	81 e0       	ldi	r24, 0x01	; 1
    2a60:	89 83       	std	Y+1, r24	; 0x01
	if(enIntType < INT_TYPE_INVALID && enSensControl < SENS_CONTROL_INVALID)
    2a62:	8a 81       	ldd	r24, Y+2	; 0x02
    2a64:	83 30       	cpi	r24, 0x03	; 3
    2a66:	08 f0       	brcs	.+2      	; 0x2a6a <vidExtInt_init+0x24>
    2a68:	15 c1       	rjmp	.+554    	; 0x2c94 <vidExtInt_init+0x24e>
    2a6a:	8b 81       	ldd	r24, Y+3	; 0x03
    2a6c:	84 30       	cpi	r24, 0x04	; 4
    2a6e:	08 f0       	brcs	.+2      	; 0x2a72 <vidExtInt_init+0x2c>
    2a70:	11 c1       	rjmp	.+546    	; 0x2c94 <vidExtInt_init+0x24e>
	{
		if (enIntType == INT_0)
    2a72:	8a 81       	ldd	r24, Y+2	; 0x02
    2a74:	88 23       	and	r24, r24
    2a76:	09 f0       	breq	.+2      	; 0x2a7a <vidExtInt_init+0x34>
    2a78:	6b c0       	rjmp	.+214    	; 0x2b50 <vidExtInt_init+0x10a>
		{
			switch (enSensControl)
    2a7a:	8b 81       	ldd	r24, Y+3	; 0x03
    2a7c:	28 2f       	mov	r18, r24
    2a7e:	30 e0       	ldi	r19, 0x00	; 0
    2a80:	39 87       	std	Y+9, r19	; 0x09
    2a82:	28 87       	std	Y+8, r18	; 0x08
    2a84:	88 85       	ldd	r24, Y+8	; 0x08
    2a86:	99 85       	ldd	r25, Y+9	; 0x09
    2a88:	81 30       	cpi	r24, 0x01	; 1
    2a8a:	91 05       	cpc	r25, r1
    2a8c:	21 f1       	breq	.+72     	; 0x2ad6 <vidExtInt_init+0x90>
    2a8e:	28 85       	ldd	r18, Y+8	; 0x08
    2a90:	39 85       	ldd	r19, Y+9	; 0x09
    2a92:	22 30       	cpi	r18, 0x02	; 2
    2a94:	31 05       	cpc	r19, r1
    2a96:	2c f4       	brge	.+10     	; 0x2aa2 <vidExtInt_init+0x5c>
    2a98:	88 85       	ldd	r24, Y+8	; 0x08
    2a9a:	99 85       	ldd	r25, Y+9	; 0x09
    2a9c:	00 97       	sbiw	r24, 0x00	; 0
    2a9e:	61 f0       	breq	.+24     	; 0x2ab8 <vidExtInt_init+0x72>
    2aa0:	47 c0       	rjmp	.+142    	; 0x2b30 <vidExtInt_init+0xea>
    2aa2:	28 85       	ldd	r18, Y+8	; 0x08
    2aa4:	39 85       	ldd	r19, Y+9	; 0x09
    2aa6:	22 30       	cpi	r18, 0x02	; 2
    2aa8:	31 05       	cpc	r19, r1
    2aaa:	21 f1       	breq	.+72     	; 0x2af4 <vidExtInt_init+0xae>
    2aac:	88 85       	ldd	r24, Y+8	; 0x08
    2aae:	99 85       	ldd	r25, Y+9	; 0x09
    2ab0:	83 30       	cpi	r24, 0x03	; 3
    2ab2:	91 05       	cpc	r25, r1
    2ab4:	71 f1       	breq	.+92     	; 0x2b12 <vidExtInt_init+0xcc>
    2ab6:	3c c0       	rjmp	.+120    	; 0x2b30 <vidExtInt_init+0xea>
			{
				case LOW_LEVEL 	: ClrBit(MCUCR_REG, ISC00); ClrBit(MCUCR_REG, ISC01); break;
    2ab8:	a5 e5       	ldi	r26, 0x55	; 85
    2aba:	b0 e0       	ldi	r27, 0x00	; 0
    2abc:	e5 e5       	ldi	r30, 0x55	; 85
    2abe:	f0 e0       	ldi	r31, 0x00	; 0
    2ac0:	80 81       	ld	r24, Z
    2ac2:	8e 7f       	andi	r24, 0xFE	; 254
    2ac4:	8c 93       	st	X, r24
    2ac6:	a5 e5       	ldi	r26, 0x55	; 85
    2ac8:	b0 e0       	ldi	r27, 0x00	; 0
    2aca:	e5 e5       	ldi	r30, 0x55	; 85
    2acc:	f0 e0       	ldi	r31, 0x00	; 0
    2ace:	80 81       	ld	r24, Z
    2ad0:	8d 7f       	andi	r24, 0xFD	; 253
    2ad2:	8c 93       	st	X, r24
    2ad4:	2e c0       	rjmp	.+92     	; 0x2b32 <vidExtInt_init+0xec>
				case ANY_LOGICAL: SetBit(MCUCR_REG, ISC00); ClrBit(MCUCR_REG, ISC01); break;
    2ad6:	a5 e5       	ldi	r26, 0x55	; 85
    2ad8:	b0 e0       	ldi	r27, 0x00	; 0
    2ada:	e5 e5       	ldi	r30, 0x55	; 85
    2adc:	f0 e0       	ldi	r31, 0x00	; 0
    2ade:	80 81       	ld	r24, Z
    2ae0:	81 60       	ori	r24, 0x01	; 1
    2ae2:	8c 93       	st	X, r24
    2ae4:	a5 e5       	ldi	r26, 0x55	; 85
    2ae6:	b0 e0       	ldi	r27, 0x00	; 0
    2ae8:	e5 e5       	ldi	r30, 0x55	; 85
    2aea:	f0 e0       	ldi	r31, 0x00	; 0
    2aec:	80 81       	ld	r24, Z
    2aee:	8d 7f       	andi	r24, 0xFD	; 253
    2af0:	8c 93       	st	X, r24
    2af2:	1f c0       	rjmp	.+62     	; 0x2b32 <vidExtInt_init+0xec>
				case FALL_EDGE 	: ClrBit(MCUCR_REG, ISC00); SetBit(MCUCR_REG, ISC01); break;
    2af4:	a5 e5       	ldi	r26, 0x55	; 85
    2af6:	b0 e0       	ldi	r27, 0x00	; 0
    2af8:	e5 e5       	ldi	r30, 0x55	; 85
    2afa:	f0 e0       	ldi	r31, 0x00	; 0
    2afc:	80 81       	ld	r24, Z
    2afe:	8e 7f       	andi	r24, 0xFE	; 254
    2b00:	8c 93       	st	X, r24
    2b02:	a5 e5       	ldi	r26, 0x55	; 85
    2b04:	b0 e0       	ldi	r27, 0x00	; 0
    2b06:	e5 e5       	ldi	r30, 0x55	; 85
    2b08:	f0 e0       	ldi	r31, 0x00	; 0
    2b0a:	80 81       	ld	r24, Z
    2b0c:	82 60       	ori	r24, 0x02	; 2
    2b0e:	8c 93       	st	X, r24
    2b10:	10 c0       	rjmp	.+32     	; 0x2b32 <vidExtInt_init+0xec>
				case RISE_EDGE 	: SetBit(MCUCR_REG, ISC00); SetBit(MCUCR_REG, ISC01); break;
    2b12:	a5 e5       	ldi	r26, 0x55	; 85
    2b14:	b0 e0       	ldi	r27, 0x00	; 0
    2b16:	e5 e5       	ldi	r30, 0x55	; 85
    2b18:	f0 e0       	ldi	r31, 0x00	; 0
    2b1a:	80 81       	ld	r24, Z
    2b1c:	81 60       	ori	r24, 0x01	; 1
    2b1e:	8c 93       	st	X, r24
    2b20:	a5 e5       	ldi	r26, 0x55	; 85
    2b22:	b0 e0       	ldi	r27, 0x00	; 0
    2b24:	e5 e5       	ldi	r30, 0x55	; 85
    2b26:	f0 e0       	ldi	r31, 0x00	; 0
    2b28:	80 81       	ld	r24, Z
    2b2a:	82 60       	ori	r24, 0x02	; 2
    2b2c:	8c 93       	st	X, r24
    2b2e:	01 c0       	rjmp	.+2      	; 0x2b32 <vidExtInt_init+0xec>
				default : err_status = E_INT_NOK; break;
    2b30:	19 82       	std	Y+1, r1	; 0x01
			}

			SetBit(GICR_REG, INT0);
    2b32:	ab e5       	ldi	r26, 0x5B	; 91
    2b34:	b0 e0       	ldi	r27, 0x00	; 0
    2b36:	eb e5       	ldi	r30, 0x5B	; 91
    2b38:	f0 e0       	ldi	r31, 0x00	; 0
    2b3a:	80 81       	ld	r24, Z
    2b3c:	80 64       	ori	r24, 0x40	; 64
    2b3e:	8c 93       	st	X, r24
			SetBit(GIFR_REG, INTF0);	// to clear flag for Interrupt 0
    2b40:	aa e5       	ldi	r26, 0x5A	; 90
    2b42:	b0 e0       	ldi	r27, 0x00	; 0
    2b44:	ea e5       	ldi	r30, 0x5A	; 90
    2b46:	f0 e0       	ldi	r31, 0x00	; 0
    2b48:	80 81       	ld	r24, Z
    2b4a:	80 64       	ori	r24, 0x40	; 64
    2b4c:	8c 93       	st	X, r24
    2b4e:	a3 c0       	rjmp	.+326    	; 0x2c96 <vidExtInt_init+0x250>
		}
		else if (enIntType == INT_1)
    2b50:	8a 81       	ldd	r24, Y+2	; 0x02
    2b52:	81 30       	cpi	r24, 0x01	; 1
    2b54:	09 f0       	breq	.+2      	; 0x2b58 <vidExtInt_init+0x112>
    2b56:	6b c0       	rjmp	.+214    	; 0x2c2e <vidExtInt_init+0x1e8>
		{
//			DIO_s8SETPinVal(EXT_INT1, HIGH);
			switch (enSensControl)
    2b58:	8b 81       	ldd	r24, Y+3	; 0x03
    2b5a:	28 2f       	mov	r18, r24
    2b5c:	30 e0       	ldi	r19, 0x00	; 0
    2b5e:	3f 83       	std	Y+7, r19	; 0x07
    2b60:	2e 83       	std	Y+6, r18	; 0x06
    2b62:	8e 81       	ldd	r24, Y+6	; 0x06
    2b64:	9f 81       	ldd	r25, Y+7	; 0x07
    2b66:	81 30       	cpi	r24, 0x01	; 1
    2b68:	91 05       	cpc	r25, r1
    2b6a:	21 f1       	breq	.+72     	; 0x2bb4 <vidExtInt_init+0x16e>
    2b6c:	2e 81       	ldd	r18, Y+6	; 0x06
    2b6e:	3f 81       	ldd	r19, Y+7	; 0x07
    2b70:	22 30       	cpi	r18, 0x02	; 2
    2b72:	31 05       	cpc	r19, r1
    2b74:	2c f4       	brge	.+10     	; 0x2b80 <vidExtInt_init+0x13a>
    2b76:	8e 81       	ldd	r24, Y+6	; 0x06
    2b78:	9f 81       	ldd	r25, Y+7	; 0x07
    2b7a:	00 97       	sbiw	r24, 0x00	; 0
    2b7c:	61 f0       	breq	.+24     	; 0x2b96 <vidExtInt_init+0x150>
    2b7e:	47 c0       	rjmp	.+142    	; 0x2c0e <vidExtInt_init+0x1c8>
    2b80:	2e 81       	ldd	r18, Y+6	; 0x06
    2b82:	3f 81       	ldd	r19, Y+7	; 0x07
    2b84:	22 30       	cpi	r18, 0x02	; 2
    2b86:	31 05       	cpc	r19, r1
    2b88:	21 f1       	breq	.+72     	; 0x2bd2 <vidExtInt_init+0x18c>
    2b8a:	8e 81       	ldd	r24, Y+6	; 0x06
    2b8c:	9f 81       	ldd	r25, Y+7	; 0x07
    2b8e:	83 30       	cpi	r24, 0x03	; 3
    2b90:	91 05       	cpc	r25, r1
    2b92:	71 f1       	breq	.+92     	; 0x2bf0 <vidExtInt_init+0x1aa>
    2b94:	3c c0       	rjmp	.+120    	; 0x2c0e <vidExtInt_init+0x1c8>
			{
				case LOW_LEVEL 	: ClrBit(MCUCR_REG, ISC10); ClrBit(MCUCR_REG, ISC11); break;
    2b96:	a5 e5       	ldi	r26, 0x55	; 85
    2b98:	b0 e0       	ldi	r27, 0x00	; 0
    2b9a:	e5 e5       	ldi	r30, 0x55	; 85
    2b9c:	f0 e0       	ldi	r31, 0x00	; 0
    2b9e:	80 81       	ld	r24, Z
    2ba0:	8b 7f       	andi	r24, 0xFB	; 251
    2ba2:	8c 93       	st	X, r24
    2ba4:	a5 e5       	ldi	r26, 0x55	; 85
    2ba6:	b0 e0       	ldi	r27, 0x00	; 0
    2ba8:	e5 e5       	ldi	r30, 0x55	; 85
    2baa:	f0 e0       	ldi	r31, 0x00	; 0
    2bac:	80 81       	ld	r24, Z
    2bae:	87 7f       	andi	r24, 0xF7	; 247
    2bb0:	8c 93       	st	X, r24
    2bb2:	2e c0       	rjmp	.+92     	; 0x2c10 <vidExtInt_init+0x1ca>
				case ANY_LOGICAL: SetBit(MCUCR_REG, ISC10); ClrBit(MCUCR_REG, ISC11); break;
    2bb4:	a5 e5       	ldi	r26, 0x55	; 85
    2bb6:	b0 e0       	ldi	r27, 0x00	; 0
    2bb8:	e5 e5       	ldi	r30, 0x55	; 85
    2bba:	f0 e0       	ldi	r31, 0x00	; 0
    2bbc:	80 81       	ld	r24, Z
    2bbe:	84 60       	ori	r24, 0x04	; 4
    2bc0:	8c 93       	st	X, r24
    2bc2:	a5 e5       	ldi	r26, 0x55	; 85
    2bc4:	b0 e0       	ldi	r27, 0x00	; 0
    2bc6:	e5 e5       	ldi	r30, 0x55	; 85
    2bc8:	f0 e0       	ldi	r31, 0x00	; 0
    2bca:	80 81       	ld	r24, Z
    2bcc:	87 7f       	andi	r24, 0xF7	; 247
    2bce:	8c 93       	st	X, r24
    2bd0:	1f c0       	rjmp	.+62     	; 0x2c10 <vidExtInt_init+0x1ca>
				case FALL_EDGE 	: ClrBit(MCUCR_REG, ISC10); SetBit(MCUCR_REG, ISC11); break;
    2bd2:	a5 e5       	ldi	r26, 0x55	; 85
    2bd4:	b0 e0       	ldi	r27, 0x00	; 0
    2bd6:	e5 e5       	ldi	r30, 0x55	; 85
    2bd8:	f0 e0       	ldi	r31, 0x00	; 0
    2bda:	80 81       	ld	r24, Z
    2bdc:	8b 7f       	andi	r24, 0xFB	; 251
    2bde:	8c 93       	st	X, r24
    2be0:	a5 e5       	ldi	r26, 0x55	; 85
    2be2:	b0 e0       	ldi	r27, 0x00	; 0
    2be4:	e5 e5       	ldi	r30, 0x55	; 85
    2be6:	f0 e0       	ldi	r31, 0x00	; 0
    2be8:	80 81       	ld	r24, Z
    2bea:	88 60       	ori	r24, 0x08	; 8
    2bec:	8c 93       	st	X, r24
    2bee:	10 c0       	rjmp	.+32     	; 0x2c10 <vidExtInt_init+0x1ca>
				case RISE_EDGE 	: SetBit(MCUCR_REG, ISC10); SetBit(MCUCR_REG, ISC11); break;
    2bf0:	a5 e5       	ldi	r26, 0x55	; 85
    2bf2:	b0 e0       	ldi	r27, 0x00	; 0
    2bf4:	e5 e5       	ldi	r30, 0x55	; 85
    2bf6:	f0 e0       	ldi	r31, 0x00	; 0
    2bf8:	80 81       	ld	r24, Z
    2bfa:	84 60       	ori	r24, 0x04	; 4
    2bfc:	8c 93       	st	X, r24
    2bfe:	a5 e5       	ldi	r26, 0x55	; 85
    2c00:	b0 e0       	ldi	r27, 0x00	; 0
    2c02:	e5 e5       	ldi	r30, 0x55	; 85
    2c04:	f0 e0       	ldi	r31, 0x00	; 0
    2c06:	80 81       	ld	r24, Z
    2c08:	88 60       	ori	r24, 0x08	; 8
    2c0a:	8c 93       	st	X, r24
    2c0c:	01 c0       	rjmp	.+2      	; 0x2c10 <vidExtInt_init+0x1ca>
				default : err_status = E_INT_NOK; break;
    2c0e:	19 82       	std	Y+1, r1	; 0x01
			}
			SetBit(GICR_REG, INT1);
    2c10:	ab e5       	ldi	r26, 0x5B	; 91
    2c12:	b0 e0       	ldi	r27, 0x00	; 0
    2c14:	eb e5       	ldi	r30, 0x5B	; 91
    2c16:	f0 e0       	ldi	r31, 0x00	; 0
    2c18:	80 81       	ld	r24, Z
    2c1a:	80 68       	ori	r24, 0x80	; 128
    2c1c:	8c 93       	st	X, r24
			SetBit(GIFR_REG, INTF1);	// to clear flag for Interrupt 1
    2c1e:	aa e5       	ldi	r26, 0x5A	; 90
    2c20:	b0 e0       	ldi	r27, 0x00	; 0
    2c22:	ea e5       	ldi	r30, 0x5A	; 90
    2c24:	f0 e0       	ldi	r31, 0x00	; 0
    2c26:	80 81       	ld	r24, Z
    2c28:	80 68       	ori	r24, 0x80	; 128
    2c2a:	8c 93       	st	X, r24
    2c2c:	34 c0       	rjmp	.+104    	; 0x2c96 <vidExtInt_init+0x250>
		}
		else if (enIntType == INT_2)
    2c2e:	8a 81       	ldd	r24, Y+2	; 0x02
    2c30:	82 30       	cpi	r24, 0x02	; 2
    2c32:	89 f5       	brne	.+98     	; 0x2c96 <vidExtInt_init+0x250>
		{
//			DIO_s8SETPinVal(EXT_INT2, HIGH);
			switch (enSensControl)
    2c34:	8b 81       	ldd	r24, Y+3	; 0x03
    2c36:	28 2f       	mov	r18, r24
    2c38:	30 e0       	ldi	r19, 0x00	; 0
    2c3a:	3d 83       	std	Y+5, r19	; 0x05
    2c3c:	2c 83       	std	Y+4, r18	; 0x04
    2c3e:	8c 81       	ldd	r24, Y+4	; 0x04
    2c40:	9d 81       	ldd	r25, Y+5	; 0x05
    2c42:	82 30       	cpi	r24, 0x02	; 2
    2c44:	91 05       	cpc	r25, r1
    2c46:	31 f0       	breq	.+12     	; 0x2c54 <vidExtInt_init+0x20e>
    2c48:	2c 81       	ldd	r18, Y+4	; 0x04
    2c4a:	3d 81       	ldd	r19, Y+5	; 0x05
    2c4c:	23 30       	cpi	r18, 0x03	; 3
    2c4e:	31 05       	cpc	r19, r1
    2c50:	49 f0       	breq	.+18     	; 0x2c64 <vidExtInt_init+0x21e>
    2c52:	10 c0       	rjmp	.+32     	; 0x2c74 <vidExtInt_init+0x22e>
			{
				case FALL_EDGE 	: ClrBit(MCUCSR_REG, ISC2);  break;
    2c54:	a4 e5       	ldi	r26, 0x54	; 84
    2c56:	b0 e0       	ldi	r27, 0x00	; 0
    2c58:	e4 e5       	ldi	r30, 0x54	; 84
    2c5a:	f0 e0       	ldi	r31, 0x00	; 0
    2c5c:	80 81       	ld	r24, Z
    2c5e:	8f 7b       	andi	r24, 0xBF	; 191
    2c60:	8c 93       	st	X, r24
    2c62:	09 c0       	rjmp	.+18     	; 0x2c76 <vidExtInt_init+0x230>
				case RISE_EDGE 	: SetBit(MCUCSR_REG, ISC2);  break;
    2c64:	a4 e5       	ldi	r26, 0x54	; 84
    2c66:	b0 e0       	ldi	r27, 0x00	; 0
    2c68:	e4 e5       	ldi	r30, 0x54	; 84
    2c6a:	f0 e0       	ldi	r31, 0x00	; 0
    2c6c:	80 81       	ld	r24, Z
    2c6e:	80 64       	ori	r24, 0x40	; 64
    2c70:	8c 93       	st	X, r24
    2c72:	01 c0       	rjmp	.+2      	; 0x2c76 <vidExtInt_init+0x230>
				default : err_status = E_INT_NOK; break;
    2c74:	19 82       	std	Y+1, r1	; 0x01
			}
			SetBit(GICR_REG, INT2);
    2c76:	ab e5       	ldi	r26, 0x5B	; 91
    2c78:	b0 e0       	ldi	r27, 0x00	; 0
    2c7a:	eb e5       	ldi	r30, 0x5B	; 91
    2c7c:	f0 e0       	ldi	r31, 0x00	; 0
    2c7e:	80 81       	ld	r24, Z
    2c80:	80 62       	ori	r24, 0x20	; 32
    2c82:	8c 93       	st	X, r24
			SetBit(GIFR_REG, INTF2);  // to clear flag for Interrupt 2
    2c84:	aa e5       	ldi	r26, 0x5A	; 90
    2c86:	b0 e0       	ldi	r27, 0x00	; 0
    2c88:	ea e5       	ldi	r30, 0x5A	; 90
    2c8a:	f0 e0       	ldi	r31, 0x00	; 0
    2c8c:	80 81       	ld	r24, Z
    2c8e:	80 62       	ori	r24, 0x20	; 32
    2c90:	8c 93       	st	X, r24
    2c92:	01 c0       	rjmp	.+2      	; 0x2c96 <vidExtInt_init+0x250>
		}
	}
	else
	{
		err_status = E_INT_NOK;
    2c94:	19 82       	std	Y+1, r1	; 0x01

//	SetBit(SREG_REG, I); // enable global interrupt
//	ClrBit(SREG_REG, I);


	return err_status;
    2c96:	89 81       	ldd	r24, Y+1	; 0x01
}
    2c98:	29 96       	adiw	r28, 0x09	; 9
    2c9a:	0f b6       	in	r0, 0x3f	; 63
    2c9c:	f8 94       	cli
    2c9e:	de bf       	out	0x3e, r29	; 62
    2ca0:	0f be       	out	0x3f, r0	; 63
    2ca2:	cd bf       	out	0x3d, r28	; 61
    2ca4:	cf 91       	pop	r28
    2ca6:	df 91       	pop	r29
    2ca8:	08 95       	ret

00002caa <MEXTINT_vidCallBackFunc>:



void MEXTINT_vidCallBackFunc(ptr_func funcCopy)
{
    2caa:	df 93       	push	r29
    2cac:	cf 93       	push	r28
    2cae:	00 d0       	rcall	.+0      	; 0x2cb0 <MEXTINT_vidCallBackFunc+0x6>
    2cb0:	cd b7       	in	r28, 0x3d	; 61
    2cb2:	de b7       	in	r29, 0x3e	; 62
    2cb4:	9a 83       	std	Y+2, r25	; 0x02
    2cb6:	89 83       	std	Y+1, r24	; 0x01
	callBack = funcCopy;
    2cb8:	89 81       	ldd	r24, Y+1	; 0x01
    2cba:	9a 81       	ldd	r25, Y+2	; 0x02
    2cbc:	90 93 eb 03 	sts	0x03EB, r25
    2cc0:	80 93 ea 03 	sts	0x03EA, r24

}
    2cc4:	0f 90       	pop	r0
    2cc6:	0f 90       	pop	r0
    2cc8:	cf 91       	pop	r28
    2cca:	df 91       	pop	r29
    2ccc:	08 95       	ret

00002cce <MEXTINT_vidCallBackFuncInt1>:


void MEXTINT_vidCallBackFuncInt1(ptr_func funcCopy)
{
    2cce:	df 93       	push	r29
    2cd0:	cf 93       	push	r28
    2cd2:	00 d0       	rcall	.+0      	; 0x2cd4 <MEXTINT_vidCallBackFuncInt1+0x6>
    2cd4:	cd b7       	in	r28, 0x3d	; 61
    2cd6:	de b7       	in	r29, 0x3e	; 62
    2cd8:	9a 83       	std	Y+2, r25	; 0x02
    2cda:	89 83       	std	Y+1, r24	; 0x01
	callBackFunc = funcCopy;
    2cdc:	89 81       	ldd	r24, Y+1	; 0x01
    2cde:	9a 81       	ldd	r25, Y+2	; 0x02
    2ce0:	90 93 ed 03 	sts	0x03ED, r25
    2ce4:	80 93 ec 03 	sts	0x03EC, r24

}
    2ce8:	0f 90       	pop	r0
    2cea:	0f 90       	pop	r0
    2cec:	cf 91       	pop	r28
    2cee:	df 91       	pop	r29
    2cf0:	08 95       	ret

00002cf2 <MEXTINT_vidCallBackFuncInt2>:

void MEXTINT_vidCallBackFuncInt2(ptr_func funcCopy)
{
    2cf2:	df 93       	push	r29
    2cf4:	cf 93       	push	r28
    2cf6:	00 d0       	rcall	.+0      	; 0x2cf8 <MEXTINT_vidCallBackFuncInt2+0x6>
    2cf8:	cd b7       	in	r28, 0x3d	; 61
    2cfa:	de b7       	in	r29, 0x3e	; 62
    2cfc:	9a 83       	std	Y+2, r25	; 0x02
    2cfe:	89 83       	std	Y+1, r24	; 0x01
	if (funcCopy != NULL)
    2d00:	89 81       	ldd	r24, Y+1	; 0x01
    2d02:	9a 81       	ldd	r25, Y+2	; 0x02
    2d04:	00 97       	sbiw	r24, 0x00	; 0
    2d06:	31 f0       	breq	.+12     	; 0x2d14 <MEXTINT_vidCallBackFuncInt2+0x22>
	{
		gs_pfunc_cbf_int2 = funcCopy;
    2d08:	89 81       	ldd	r24, Y+1	; 0x01
    2d0a:	9a 81       	ldd	r25, Y+2	; 0x02
    2d0c:	90 93 ef 03 	sts	0x03EF, r25
    2d10:	80 93 ee 03 	sts	0x03EE, r24
	}
	return;
}
    2d14:	0f 90       	pop	r0
    2d16:	0f 90       	pop	r0
    2d18:	cf 91       	pop	r28
    2d1a:	df 91       	pop	r29
    2d1c:	08 95       	ret

00002d1e <MEXTINT_vidWaitFlag>:

void MEXTINT_vidWaitFlag(void)
{
    2d1e:	df 93       	push	r29
    2d20:	cf 93       	push	r28
    2d22:	cd b7       	in	r28, 0x3d	; 61
    2d24:	de b7       	in	r29, 0x3e	; 62
	while( !( GetBit(GIFR_REG, INTF0) ) );
    2d26:	ea e5       	ldi	r30, 0x5A	; 90
    2d28:	f0 e0       	ldi	r31, 0x00	; 0
    2d2a:	80 81       	ld	r24, Z
    2d2c:	82 95       	swap	r24
    2d2e:	86 95       	lsr	r24
    2d30:	86 95       	lsr	r24
    2d32:	83 70       	andi	r24, 0x03	; 3
    2d34:	88 2f       	mov	r24, r24
    2d36:	90 e0       	ldi	r25, 0x00	; 0
    2d38:	81 70       	andi	r24, 0x01	; 1
    2d3a:	90 70       	andi	r25, 0x00	; 0
    2d3c:	00 97       	sbiw	r24, 0x00	; 0
    2d3e:	99 f3       	breq	.-26     	; 0x2d26 <MEXTINT_vidWaitFlag+0x8>
}
    2d40:	cf 91       	pop	r28
    2d42:	df 91       	pop	r29
    2d44:	08 95       	ret

00002d46 <MEXTINT_vidDisableInterrupt>:


void MEXTINT_vidDisableInterrupt(void)
{
    2d46:	df 93       	push	r29
    2d48:	cf 93       	push	r28
    2d4a:	cd b7       	in	r28, 0x3d	; 61
    2d4c:	de b7       	in	r29, 0x3e	; 62
	ClrBit(GICR_REG, INT0);
    2d4e:	ab e5       	ldi	r26, 0x5B	; 91
    2d50:	b0 e0       	ldi	r27, 0x00	; 0
    2d52:	eb e5       	ldi	r30, 0x5B	; 91
    2d54:	f0 e0       	ldi	r31, 0x00	; 0
    2d56:	80 81       	ld	r24, Z
    2d58:	8f 7b       	andi	r24, 0xBF	; 191
    2d5a:	8c 93       	st	X, r24
//	ClrBit(SREG_REG, I);
}
    2d5c:	cf 91       	pop	r28
    2d5e:	df 91       	pop	r29
    2d60:	08 95       	ret

00002d62 <MEXTINT_vidEnableInterrupt>:

void MEXTINT_vidEnableInterrupt(void)
{
    2d62:	df 93       	push	r29
    2d64:	cf 93       	push	r28
    2d66:	cd b7       	in	r28, 0x3d	; 61
    2d68:	de b7       	in	r29, 0x3e	; 62
	SetBit(GIFR_REG, INTF1);
    2d6a:	aa e5       	ldi	r26, 0x5A	; 90
    2d6c:	b0 e0       	ldi	r27, 0x00	; 0
    2d6e:	ea e5       	ldi	r30, 0x5A	; 90
    2d70:	f0 e0       	ldi	r31, 0x00	; 0
    2d72:	80 81       	ld	r24, Z
    2d74:	80 68       	ori	r24, 0x80	; 128
    2d76:	8c 93       	st	X, r24
	SetBit(GICR_REG, INT0);
    2d78:	ab e5       	ldi	r26, 0x5B	; 91
    2d7a:	b0 e0       	ldi	r27, 0x00	; 0
    2d7c:	eb e5       	ldi	r30, 0x5B	; 91
    2d7e:	f0 e0       	ldi	r31, 0x00	; 0
    2d80:	80 81       	ld	r24, Z
    2d82:	80 64       	ori	r24, 0x40	; 64
    2d84:	8c 93       	st	X, r24
//	SetBit(SREG_REG, I);
}
    2d86:	cf 91       	pop	r28
    2d88:	df 91       	pop	r29
    2d8a:	08 95       	ret

00002d8c <__vector_1>:




ISR(INT0_vect)
{
    2d8c:	1f 92       	push	r1
    2d8e:	0f 92       	push	r0
    2d90:	0f b6       	in	r0, 0x3f	; 63
    2d92:	0f 92       	push	r0
    2d94:	11 24       	eor	r1, r1
    2d96:	2f 93       	push	r18
    2d98:	3f 93       	push	r19
    2d9a:	4f 93       	push	r20
    2d9c:	5f 93       	push	r21
    2d9e:	6f 93       	push	r22
    2da0:	7f 93       	push	r23
    2da2:	8f 93       	push	r24
    2da4:	9f 93       	push	r25
    2da6:	af 93       	push	r26
    2da8:	bf 93       	push	r27
    2daa:	ef 93       	push	r30
    2dac:	ff 93       	push	r31
    2dae:	df 93       	push	r29
    2db0:	cf 93       	push	r28
    2db2:	cd b7       	in	r28, 0x3d	; 61
    2db4:	de b7       	in	r29, 0x3e	; 62
	callBack();
    2db6:	e0 91 ea 03 	lds	r30, 0x03EA
    2dba:	f0 91 eb 03 	lds	r31, 0x03EB
    2dbe:	09 95       	icall
}
    2dc0:	cf 91       	pop	r28
    2dc2:	df 91       	pop	r29
    2dc4:	ff 91       	pop	r31
    2dc6:	ef 91       	pop	r30
    2dc8:	bf 91       	pop	r27
    2dca:	af 91       	pop	r26
    2dcc:	9f 91       	pop	r25
    2dce:	8f 91       	pop	r24
    2dd0:	7f 91       	pop	r23
    2dd2:	6f 91       	pop	r22
    2dd4:	5f 91       	pop	r21
    2dd6:	4f 91       	pop	r20
    2dd8:	3f 91       	pop	r19
    2dda:	2f 91       	pop	r18
    2ddc:	0f 90       	pop	r0
    2dde:	0f be       	out	0x3f, r0	; 63
    2de0:	0f 90       	pop	r0
    2de2:	1f 90       	pop	r1
    2de4:	18 95       	reti

00002de6 <__vector_2>:

ISR(INT1_vect)
{
    2de6:	1f 92       	push	r1
    2de8:	0f 92       	push	r0
    2dea:	0f b6       	in	r0, 0x3f	; 63
    2dec:	0f 92       	push	r0
    2dee:	11 24       	eor	r1, r1
    2df0:	2f 93       	push	r18
    2df2:	3f 93       	push	r19
    2df4:	4f 93       	push	r20
    2df6:	5f 93       	push	r21
    2df8:	6f 93       	push	r22
    2dfa:	7f 93       	push	r23
    2dfc:	8f 93       	push	r24
    2dfe:	9f 93       	push	r25
    2e00:	af 93       	push	r26
    2e02:	bf 93       	push	r27
    2e04:	ef 93       	push	r30
    2e06:	ff 93       	push	r31
    2e08:	df 93       	push	r29
    2e0a:	cf 93       	push	r28
    2e0c:	cd b7       	in	r28, 0x3d	; 61
    2e0e:	de b7       	in	r29, 0x3e	; 62
	callBackFunc();
    2e10:	e0 91 ec 03 	lds	r30, 0x03EC
    2e14:	f0 91 ed 03 	lds	r31, 0x03ED
    2e18:	09 95       	icall
}
    2e1a:	cf 91       	pop	r28
    2e1c:	df 91       	pop	r29
    2e1e:	ff 91       	pop	r31
    2e20:	ef 91       	pop	r30
    2e22:	bf 91       	pop	r27
    2e24:	af 91       	pop	r26
    2e26:	9f 91       	pop	r25
    2e28:	8f 91       	pop	r24
    2e2a:	7f 91       	pop	r23
    2e2c:	6f 91       	pop	r22
    2e2e:	5f 91       	pop	r21
    2e30:	4f 91       	pop	r20
    2e32:	3f 91       	pop	r19
    2e34:	2f 91       	pop	r18
    2e36:	0f 90       	pop	r0
    2e38:	0f be       	out	0x3f, r0	; 63
    2e3a:	0f 90       	pop	r0
    2e3c:	1f 90       	pop	r1
    2e3e:	18 95       	reti

00002e40 <__vector_3>:

ISR(INT2_vect)
{
    2e40:	1f 92       	push	r1
    2e42:	0f 92       	push	r0
    2e44:	0f b6       	in	r0, 0x3f	; 63
    2e46:	0f 92       	push	r0
    2e48:	11 24       	eor	r1, r1
    2e4a:	2f 93       	push	r18
    2e4c:	3f 93       	push	r19
    2e4e:	4f 93       	push	r20
    2e50:	5f 93       	push	r21
    2e52:	6f 93       	push	r22
    2e54:	7f 93       	push	r23
    2e56:	8f 93       	push	r24
    2e58:	9f 93       	push	r25
    2e5a:	af 93       	push	r26
    2e5c:	bf 93       	push	r27
    2e5e:	ef 93       	push	r30
    2e60:	ff 93       	push	r31
    2e62:	df 93       	push	r29
    2e64:	cf 93       	push	r28
    2e66:	cd b7       	in	r28, 0x3d	; 61
    2e68:	de b7       	in	r29, 0x3e	; 62
//	if(gs_pfunc_cbf_int2 != NULL)
//	{
		gs_pfunc_cbf_int2();
    2e6a:	e0 91 ee 03 	lds	r30, 0x03EE
    2e6e:	f0 91 ef 03 	lds	r31, 0x03EF
    2e72:	09 95       	icall
//	}
}
    2e74:	cf 91       	pop	r28
    2e76:	df 91       	pop	r29
    2e78:	ff 91       	pop	r31
    2e7a:	ef 91       	pop	r30
    2e7c:	bf 91       	pop	r27
    2e7e:	af 91       	pop	r26
    2e80:	9f 91       	pop	r25
    2e82:	8f 91       	pop	r24
    2e84:	7f 91       	pop	r23
    2e86:	6f 91       	pop	r22
    2e88:	5f 91       	pop	r21
    2e8a:	4f 91       	pop	r20
    2e8c:	3f 91       	pop	r19
    2e8e:	2f 91       	pop	r18
    2e90:	0f 90       	pop	r0
    2e92:	0f be       	out	0x3f, r0	; 63
    2e94:	0f 90       	pop	r0
    2e96:	1f 90       	pop	r1
    2e98:	18 95       	reti

00002e9a <DIO_s8SETPortDir>:
volatile Uint8_t* ddrReg[4] = { DDRA_REG, DDRB_REG, DDRC_REG, DDRD_REG };
volatile Uint8_t* pinReg[4] = { PINA_REG, PINB_REG, PINC_REG, PIND_REG };


Sint8_t DIO_s8SETPortDir(enu_port enPortCopy,  enu_dir enPortDir)
{
    2e9a:	df 93       	push	r29
    2e9c:	cf 93       	push	r28
    2e9e:	00 d0       	rcall	.+0      	; 0x2ea0 <DIO_s8SETPortDir+0x6>
    2ea0:	0f 92       	push	r0
    2ea2:	cd b7       	in	r28, 0x3d	; 61
    2ea4:	de b7       	in	r29, 0x3e	; 62
    2ea6:	8a 83       	std	Y+2, r24	; 0x02
    2ea8:	6b 83       	std	Y+3, r22	; 0x03
	Sint8_t errStatus = E_OK;
    2eaa:	19 82       	std	Y+1, r1	; 0x01

	if (enPortCopy < PORT_INVALID && enPortDir < DIR_INVALID)
    2eac:	8a 81       	ldd	r24, Y+2	; 0x02
    2eae:	84 30       	cpi	r24, 0x04	; 4
    2eb0:	20 f5       	brcc	.+72     	; 0x2efa <DIO_s8SETPortDir+0x60>
    2eb2:	8b 81       	ldd	r24, Y+3	; 0x03
    2eb4:	82 30       	cpi	r24, 0x02	; 2
    2eb6:	08 f5       	brcc	.+66     	; 0x2efa <DIO_s8SETPortDir+0x60>
	{
		if (enPortDir == INPUT)
    2eb8:	8b 81       	ldd	r24, Y+3	; 0x03
    2eba:	88 23       	and	r24, r24
    2ebc:	69 f4       	brne	.+26     	; 0x2ed8 <DIO_s8SETPortDir+0x3e>
		{
			*ddrReg[enPortCopy] = 0x00;
    2ebe:	8a 81       	ldd	r24, Y+2	; 0x02
    2ec0:	88 2f       	mov	r24, r24
    2ec2:	90 e0       	ldi	r25, 0x00	; 0
    2ec4:	88 0f       	add	r24, r24
    2ec6:	99 1f       	adc	r25, r25
    2ec8:	fc 01       	movw	r30, r24
    2eca:	ec 5c       	subi	r30, 0xCC	; 204
    2ecc:	fd 4f       	sbci	r31, 0xFD	; 253
    2ece:	01 90       	ld	r0, Z+
    2ed0:	f0 81       	ld	r31, Z
    2ed2:	e0 2d       	mov	r30, r0
    2ed4:	10 82       	st	Z, r1
    2ed6:	13 c0       	rjmp	.+38     	; 0x2efe <DIO_s8SETPortDir+0x64>
		}
		else if(enPortDir == OUTPUT)
    2ed8:	8b 81       	ldd	r24, Y+3	; 0x03
    2eda:	81 30       	cpi	r24, 0x01	; 1
    2edc:	81 f4       	brne	.+32     	; 0x2efe <DIO_s8SETPortDir+0x64>
		{
			*ddrReg[enPortCopy] = 0xff;
    2ede:	8a 81       	ldd	r24, Y+2	; 0x02
    2ee0:	88 2f       	mov	r24, r24
    2ee2:	90 e0       	ldi	r25, 0x00	; 0
    2ee4:	88 0f       	add	r24, r24
    2ee6:	99 1f       	adc	r25, r25
    2ee8:	fc 01       	movw	r30, r24
    2eea:	ec 5c       	subi	r30, 0xCC	; 204
    2eec:	fd 4f       	sbci	r31, 0xFD	; 253
    2eee:	01 90       	ld	r0, Z+
    2ef0:	f0 81       	ld	r31, Z
    2ef2:	e0 2d       	mov	r30, r0
    2ef4:	8f ef       	ldi	r24, 0xFF	; 255
    2ef6:	80 83       	st	Z, r24
    2ef8:	02 c0       	rjmp	.+4      	; 0x2efe <DIO_s8SETPortDir+0x64>
			/* do nothing */
		}
	}
	else
	{
		errStatus = E_NOK;
    2efa:	8f ef       	ldi	r24, 0xFF	; 255
    2efc:	89 83       	std	Y+1, r24	; 0x01
	}
	return errStatus;
    2efe:	89 81       	ldd	r24, Y+1	; 0x01
}
    2f00:	0f 90       	pop	r0
    2f02:	0f 90       	pop	r0
    2f04:	0f 90       	pop	r0
    2f06:	cf 91       	pop	r28
    2f08:	df 91       	pop	r29
    2f0a:	08 95       	ret

00002f0c <DIO_s8SETPortVal>:


Sint8_t DIO_s8SETPortVal(enu_port enPortCopy,  Uint8_t u8PortVal)
{
    2f0c:	df 93       	push	r29
    2f0e:	cf 93       	push	r28
    2f10:	00 d0       	rcall	.+0      	; 0x2f12 <DIO_s8SETPortVal+0x6>
    2f12:	0f 92       	push	r0
    2f14:	cd b7       	in	r28, 0x3d	; 61
    2f16:	de b7       	in	r29, 0x3e	; 62
    2f18:	8a 83       	std	Y+2, r24	; 0x02
    2f1a:	6b 83       	std	Y+3, r22	; 0x03
	Sint8_t errStatus = E_OK;
    2f1c:	19 82       	std	Y+1, r1	; 0x01
	if (enPortCopy < PORT_INVALID)
    2f1e:	8a 81       	ldd	r24, Y+2	; 0x02
    2f20:	84 30       	cpi	r24, 0x04	; 4
    2f22:	70 f4       	brcc	.+28     	; 0x2f40 <DIO_s8SETPortVal+0x34>
	{
		*portReg[enPortCopy] = u8PortVal;
    2f24:	8a 81       	ldd	r24, Y+2	; 0x02
    2f26:	88 2f       	mov	r24, r24
    2f28:	90 e0       	ldi	r25, 0x00	; 0
    2f2a:	88 0f       	add	r24, r24
    2f2c:	99 1f       	adc	r25, r25
    2f2e:	fc 01       	movw	r30, r24
    2f30:	e4 5d       	subi	r30, 0xD4	; 212
    2f32:	fd 4f       	sbci	r31, 0xFD	; 253
    2f34:	01 90       	ld	r0, Z+
    2f36:	f0 81       	ld	r31, Z
    2f38:	e0 2d       	mov	r30, r0
    2f3a:	8b 81       	ldd	r24, Y+3	; 0x03
    2f3c:	80 83       	st	Z, r24
    2f3e:	02 c0       	rjmp	.+4      	; 0x2f44 <DIO_s8SETPortVal+0x38>
	}
	else
	{
		errStatus = E_NOK;
    2f40:	8f ef       	ldi	r24, 0xFF	; 255
    2f42:	89 83       	std	Y+1, r24	; 0x01
	}


	return errStatus;
    2f44:	89 81       	ldd	r24, Y+1	; 0x01
}
    2f46:	0f 90       	pop	r0
    2f48:	0f 90       	pop	r0
    2f4a:	0f 90       	pop	r0
    2f4c:	cf 91       	pop	r28
    2f4e:	df 91       	pop	r29
    2f50:	08 95       	ret

00002f52 <DIO_s8GETPortVal>:



Sint8_t DIO_s8GETPortVal(enu_port enPortCopy,  Uint8_t* pu8Val)
{
    2f52:	df 93       	push	r29
    2f54:	cf 93       	push	r28
    2f56:	00 d0       	rcall	.+0      	; 0x2f58 <DIO_s8GETPortVal+0x6>
    2f58:	00 d0       	rcall	.+0      	; 0x2f5a <DIO_s8GETPortVal+0x8>
    2f5a:	cd b7       	in	r28, 0x3d	; 61
    2f5c:	de b7       	in	r29, 0x3e	; 62
    2f5e:	8a 83       	std	Y+2, r24	; 0x02
    2f60:	7c 83       	std	Y+4, r23	; 0x04
    2f62:	6b 83       	std	Y+3, r22	; 0x03
	Sint8_t errStatus = E_OK;
    2f64:	19 82       	std	Y+1, r1	; 0x01
	if (enPortCopy < PORT_INVALID )
    2f66:	8a 81       	ldd	r24, Y+2	; 0x02
    2f68:	84 30       	cpi	r24, 0x04	; 4
    2f6a:	80 f4       	brcc	.+32     	; 0x2f8c <DIO_s8GETPortVal+0x3a>
	{
		*pu8Val = *pinReg[enPortCopy];
    2f6c:	8a 81       	ldd	r24, Y+2	; 0x02
    2f6e:	88 2f       	mov	r24, r24
    2f70:	90 e0       	ldi	r25, 0x00	; 0
    2f72:	88 0f       	add	r24, r24
    2f74:	99 1f       	adc	r25, r25
    2f76:	fc 01       	movw	r30, r24
    2f78:	e4 5c       	subi	r30, 0xC4	; 196
    2f7a:	fd 4f       	sbci	r31, 0xFD	; 253
    2f7c:	01 90       	ld	r0, Z+
    2f7e:	f0 81       	ld	r31, Z
    2f80:	e0 2d       	mov	r30, r0
    2f82:	80 81       	ld	r24, Z
    2f84:	eb 81       	ldd	r30, Y+3	; 0x03
    2f86:	fc 81       	ldd	r31, Y+4	; 0x04
    2f88:	80 83       	st	Z, r24
    2f8a:	02 c0       	rjmp	.+4      	; 0x2f90 <DIO_s8GETPortVal+0x3e>
	}
	else
	{
		errStatus = E_NOK;
    2f8c:	8f ef       	ldi	r24, 0xFF	; 255
    2f8e:	89 83       	std	Y+1, r24	; 0x01
	}
	return errStatus;
    2f90:	89 81       	ldd	r24, Y+1	; 0x01
}
    2f92:	0f 90       	pop	r0
    2f94:	0f 90       	pop	r0
    2f96:	0f 90       	pop	r0
    2f98:	0f 90       	pop	r0
    2f9a:	cf 91       	pop	r28
    2f9c:	df 91       	pop	r29
    2f9e:	08 95       	ret

00002fa0 <DIO_s8SETPinDir>:
 * 					- enPortDir {INPUT , OUTPUT}
 * Return		:   Sint8_t
 */

Sint8_t DIO_s8SETPinDir (enu_pin enPinCopy, enu_dir enPortDir)
{
    2fa0:	df 93       	push	r29
    2fa2:	cf 93       	push	r28
    2fa4:	00 d0       	rcall	.+0      	; 0x2fa6 <DIO_s8SETPinDir+0x6>
    2fa6:	00 d0       	rcall	.+0      	; 0x2fa8 <DIO_s8SETPinDir+0x8>
    2fa8:	0f 92       	push	r0
    2faa:	cd b7       	in	r28, 0x3d	; 61
    2fac:	de b7       	in	r29, 0x3e	; 62
    2fae:	8c 83       	std	Y+4, r24	; 0x04
    2fb0:	6d 83       	std	Y+5, r22	; 0x05
	Sint8_t errStatus = E_OK;
    2fb2:	1b 82       	std	Y+3, r1	; 0x03
	Uint8_t portID;
	Uint8_t pinID;

	if (enPinCopy < PIN_INVALID && enPortDir< DIR_INVALID)
    2fb4:	8c 81       	ldd	r24, Y+4	; 0x04
    2fb6:	80 32       	cpi	r24, 0x20	; 32
    2fb8:	08 f0       	brcs	.+2      	; 0x2fbc <DIO_s8SETPinDir+0x1c>
    2fba:	5d c0       	rjmp	.+186    	; 0x3076 <DIO_s8SETPinDir+0xd6>
    2fbc:	8d 81       	ldd	r24, Y+5	; 0x05
    2fbe:	82 30       	cpi	r24, 0x02	; 2
    2fc0:	08 f0       	brcs	.+2      	; 0x2fc4 <DIO_s8SETPinDir+0x24>
    2fc2:	59 c0       	rjmp	.+178    	; 0x3076 <DIO_s8SETPinDir+0xd6>
	{
		portID = enPinCopy/8;
    2fc4:	8c 81       	ldd	r24, Y+4	; 0x04
    2fc6:	86 95       	lsr	r24
    2fc8:	86 95       	lsr	r24
    2fca:	86 95       	lsr	r24
    2fcc:	8a 83       	std	Y+2, r24	; 0x02
		pinID  = enPinCopy%8;
    2fce:	8c 81       	ldd	r24, Y+4	; 0x04
    2fd0:	87 70       	andi	r24, 0x07	; 7
    2fd2:	89 83       	std	Y+1, r24	; 0x01

		if (enPortDir == INPUT)
    2fd4:	8d 81       	ldd	r24, Y+5	; 0x05
    2fd6:	88 23       	and	r24, r24
    2fd8:	31 f5       	brne	.+76     	; 0x3026 <DIO_s8SETPinDir+0x86>
		{
			ClrBit(*ddrReg[portID],pinID);
    2fda:	8a 81       	ldd	r24, Y+2	; 0x02
    2fdc:	88 2f       	mov	r24, r24
    2fde:	90 e0       	ldi	r25, 0x00	; 0
    2fe0:	88 0f       	add	r24, r24
    2fe2:	99 1f       	adc	r25, r25
    2fe4:	fc 01       	movw	r30, r24
    2fe6:	ec 5c       	subi	r30, 0xCC	; 204
    2fe8:	fd 4f       	sbci	r31, 0xFD	; 253
    2fea:	a0 81       	ld	r26, Z
    2fec:	b1 81       	ldd	r27, Z+1	; 0x01
    2fee:	8a 81       	ldd	r24, Y+2	; 0x02
    2ff0:	88 2f       	mov	r24, r24
    2ff2:	90 e0       	ldi	r25, 0x00	; 0
    2ff4:	88 0f       	add	r24, r24
    2ff6:	99 1f       	adc	r25, r25
    2ff8:	fc 01       	movw	r30, r24
    2ffa:	ec 5c       	subi	r30, 0xCC	; 204
    2ffc:	fd 4f       	sbci	r31, 0xFD	; 253
    2ffe:	01 90       	ld	r0, Z+
    3000:	f0 81       	ld	r31, Z
    3002:	e0 2d       	mov	r30, r0
    3004:	80 81       	ld	r24, Z
    3006:	48 2f       	mov	r20, r24
    3008:	89 81       	ldd	r24, Y+1	; 0x01
    300a:	28 2f       	mov	r18, r24
    300c:	30 e0       	ldi	r19, 0x00	; 0
    300e:	81 e0       	ldi	r24, 0x01	; 1
    3010:	90 e0       	ldi	r25, 0x00	; 0
    3012:	02 2e       	mov	r0, r18
    3014:	02 c0       	rjmp	.+4      	; 0x301a <DIO_s8SETPinDir+0x7a>
    3016:	88 0f       	add	r24, r24
    3018:	99 1f       	adc	r25, r25
    301a:	0a 94       	dec	r0
    301c:	e2 f7       	brpl	.-8      	; 0x3016 <DIO_s8SETPinDir+0x76>
    301e:	80 95       	com	r24
    3020:	84 23       	and	r24, r20
    3022:	8c 93       	st	X, r24
    3024:	2a c0       	rjmp	.+84     	; 0x307a <DIO_s8SETPinDir+0xda>
		}
		else if(enPortDir == OUTPUT)
    3026:	8d 81       	ldd	r24, Y+5	; 0x05
    3028:	81 30       	cpi	r24, 0x01	; 1
    302a:	39 f5       	brne	.+78     	; 0x307a <DIO_s8SETPinDir+0xda>
		{
			SetBit(*ddrReg[portID],pinID);
    302c:	8a 81       	ldd	r24, Y+2	; 0x02
    302e:	88 2f       	mov	r24, r24
    3030:	90 e0       	ldi	r25, 0x00	; 0
    3032:	88 0f       	add	r24, r24
    3034:	99 1f       	adc	r25, r25
    3036:	fc 01       	movw	r30, r24
    3038:	ec 5c       	subi	r30, 0xCC	; 204
    303a:	fd 4f       	sbci	r31, 0xFD	; 253
    303c:	a0 81       	ld	r26, Z
    303e:	b1 81       	ldd	r27, Z+1	; 0x01
    3040:	8a 81       	ldd	r24, Y+2	; 0x02
    3042:	88 2f       	mov	r24, r24
    3044:	90 e0       	ldi	r25, 0x00	; 0
    3046:	88 0f       	add	r24, r24
    3048:	99 1f       	adc	r25, r25
    304a:	fc 01       	movw	r30, r24
    304c:	ec 5c       	subi	r30, 0xCC	; 204
    304e:	fd 4f       	sbci	r31, 0xFD	; 253
    3050:	01 90       	ld	r0, Z+
    3052:	f0 81       	ld	r31, Z
    3054:	e0 2d       	mov	r30, r0
    3056:	80 81       	ld	r24, Z
    3058:	48 2f       	mov	r20, r24
    305a:	89 81       	ldd	r24, Y+1	; 0x01
    305c:	28 2f       	mov	r18, r24
    305e:	30 e0       	ldi	r19, 0x00	; 0
    3060:	81 e0       	ldi	r24, 0x01	; 1
    3062:	90 e0       	ldi	r25, 0x00	; 0
    3064:	02 2e       	mov	r0, r18
    3066:	02 c0       	rjmp	.+4      	; 0x306c <DIO_s8SETPinDir+0xcc>
    3068:	88 0f       	add	r24, r24
    306a:	99 1f       	adc	r25, r25
    306c:	0a 94       	dec	r0
    306e:	e2 f7       	brpl	.-8      	; 0x3068 <DIO_s8SETPinDir+0xc8>
    3070:	84 2b       	or	r24, r20
    3072:	8c 93       	st	X, r24
    3074:	02 c0       	rjmp	.+4      	; 0x307a <DIO_s8SETPinDir+0xda>
			/* do nothing */
		}
	}
	else
	{
		errStatus = E_NOK;
    3076:	8f ef       	ldi	r24, 0xFF	; 255
    3078:	8b 83       	std	Y+3, r24	; 0x03
	}
	return errStatus;
    307a:	8b 81       	ldd	r24, Y+3	; 0x03
}
    307c:	0f 90       	pop	r0
    307e:	0f 90       	pop	r0
    3080:	0f 90       	pop	r0
    3082:	0f 90       	pop	r0
    3084:	0f 90       	pop	r0
    3086:	cf 91       	pop	r28
    3088:	df 91       	pop	r29
    308a:	08 95       	ret

0000308c <DIO_s8SETPinVal>:
 * 					- enPinCopy {DIO_PINA_0...., DIO_PIND_7}
 * 					- enPortDir {HIGH , LOW}
 * Return		:   Sint8_t
 */
Sint8_t DIO_s8SETPinVal (enu_pin enPinCopy, enu_val enPortVal)
{
    308c:	df 93       	push	r29
    308e:	cf 93       	push	r28
    3090:	00 d0       	rcall	.+0      	; 0x3092 <DIO_s8SETPinVal+0x6>
    3092:	00 d0       	rcall	.+0      	; 0x3094 <DIO_s8SETPinVal+0x8>
    3094:	0f 92       	push	r0
    3096:	cd b7       	in	r28, 0x3d	; 61
    3098:	de b7       	in	r29, 0x3e	; 62
    309a:	8c 83       	std	Y+4, r24	; 0x04
    309c:	6d 83       	std	Y+5, r22	; 0x05
	Sint8_t errStatus = E_OK;
    309e:	1b 82       	std	Y+3, r1	; 0x03
	Uint8_t portID;
	Uint8_t pinID;

	if (enPinCopy < PIN_INVALID && enPortVal< VAL_INVALID)
    30a0:	8c 81       	ldd	r24, Y+4	; 0x04
    30a2:	80 32       	cpi	r24, 0x20	; 32
    30a4:	08 f0       	brcs	.+2      	; 0x30a8 <DIO_s8SETPinVal+0x1c>
    30a6:	5d c0       	rjmp	.+186    	; 0x3162 <DIO_s8SETPinVal+0xd6>
    30a8:	8d 81       	ldd	r24, Y+5	; 0x05
    30aa:	82 30       	cpi	r24, 0x02	; 2
    30ac:	08 f0       	brcs	.+2      	; 0x30b0 <DIO_s8SETPinVal+0x24>
    30ae:	59 c0       	rjmp	.+178    	; 0x3162 <DIO_s8SETPinVal+0xd6>
	{
		portID = enPinCopy/8;
    30b0:	8c 81       	ldd	r24, Y+4	; 0x04
    30b2:	86 95       	lsr	r24
    30b4:	86 95       	lsr	r24
    30b6:	86 95       	lsr	r24
    30b8:	8a 83       	std	Y+2, r24	; 0x02
		pinID  = enPinCopy%8;
    30ba:	8c 81       	ldd	r24, Y+4	; 0x04
    30bc:	87 70       	andi	r24, 0x07	; 7
    30be:	89 83       	std	Y+1, r24	; 0x01

		if (enPortVal == LOW)
    30c0:	8d 81       	ldd	r24, Y+5	; 0x05
    30c2:	88 23       	and	r24, r24
    30c4:	31 f5       	brne	.+76     	; 0x3112 <DIO_s8SETPinVal+0x86>
		{
			ClrBit(*portReg[portID],pinID);
    30c6:	8a 81       	ldd	r24, Y+2	; 0x02
    30c8:	88 2f       	mov	r24, r24
    30ca:	90 e0       	ldi	r25, 0x00	; 0
    30cc:	88 0f       	add	r24, r24
    30ce:	99 1f       	adc	r25, r25
    30d0:	fc 01       	movw	r30, r24
    30d2:	e4 5d       	subi	r30, 0xD4	; 212
    30d4:	fd 4f       	sbci	r31, 0xFD	; 253
    30d6:	a0 81       	ld	r26, Z
    30d8:	b1 81       	ldd	r27, Z+1	; 0x01
    30da:	8a 81       	ldd	r24, Y+2	; 0x02
    30dc:	88 2f       	mov	r24, r24
    30de:	90 e0       	ldi	r25, 0x00	; 0
    30e0:	88 0f       	add	r24, r24
    30e2:	99 1f       	adc	r25, r25
    30e4:	fc 01       	movw	r30, r24
    30e6:	e4 5d       	subi	r30, 0xD4	; 212
    30e8:	fd 4f       	sbci	r31, 0xFD	; 253
    30ea:	01 90       	ld	r0, Z+
    30ec:	f0 81       	ld	r31, Z
    30ee:	e0 2d       	mov	r30, r0
    30f0:	80 81       	ld	r24, Z
    30f2:	48 2f       	mov	r20, r24
    30f4:	89 81       	ldd	r24, Y+1	; 0x01
    30f6:	28 2f       	mov	r18, r24
    30f8:	30 e0       	ldi	r19, 0x00	; 0
    30fa:	81 e0       	ldi	r24, 0x01	; 1
    30fc:	90 e0       	ldi	r25, 0x00	; 0
    30fe:	02 2e       	mov	r0, r18
    3100:	02 c0       	rjmp	.+4      	; 0x3106 <DIO_s8SETPinVal+0x7a>
    3102:	88 0f       	add	r24, r24
    3104:	99 1f       	adc	r25, r25
    3106:	0a 94       	dec	r0
    3108:	e2 f7       	brpl	.-8      	; 0x3102 <DIO_s8SETPinVal+0x76>
    310a:	80 95       	com	r24
    310c:	84 23       	and	r24, r20
    310e:	8c 93       	st	X, r24
    3110:	2a c0       	rjmp	.+84     	; 0x3166 <DIO_s8SETPinVal+0xda>
		}
		else if(enPortVal == HIGH)
    3112:	8d 81       	ldd	r24, Y+5	; 0x05
    3114:	81 30       	cpi	r24, 0x01	; 1
    3116:	39 f5       	brne	.+78     	; 0x3166 <DIO_s8SETPinVal+0xda>
		{
			SetBit(*portReg[portID],pinID);
    3118:	8a 81       	ldd	r24, Y+2	; 0x02
    311a:	88 2f       	mov	r24, r24
    311c:	90 e0       	ldi	r25, 0x00	; 0
    311e:	88 0f       	add	r24, r24
    3120:	99 1f       	adc	r25, r25
    3122:	fc 01       	movw	r30, r24
    3124:	e4 5d       	subi	r30, 0xD4	; 212
    3126:	fd 4f       	sbci	r31, 0xFD	; 253
    3128:	a0 81       	ld	r26, Z
    312a:	b1 81       	ldd	r27, Z+1	; 0x01
    312c:	8a 81       	ldd	r24, Y+2	; 0x02
    312e:	88 2f       	mov	r24, r24
    3130:	90 e0       	ldi	r25, 0x00	; 0
    3132:	88 0f       	add	r24, r24
    3134:	99 1f       	adc	r25, r25
    3136:	fc 01       	movw	r30, r24
    3138:	e4 5d       	subi	r30, 0xD4	; 212
    313a:	fd 4f       	sbci	r31, 0xFD	; 253
    313c:	01 90       	ld	r0, Z+
    313e:	f0 81       	ld	r31, Z
    3140:	e0 2d       	mov	r30, r0
    3142:	80 81       	ld	r24, Z
    3144:	48 2f       	mov	r20, r24
    3146:	89 81       	ldd	r24, Y+1	; 0x01
    3148:	28 2f       	mov	r18, r24
    314a:	30 e0       	ldi	r19, 0x00	; 0
    314c:	81 e0       	ldi	r24, 0x01	; 1
    314e:	90 e0       	ldi	r25, 0x00	; 0
    3150:	02 2e       	mov	r0, r18
    3152:	02 c0       	rjmp	.+4      	; 0x3158 <DIO_s8SETPinVal+0xcc>
    3154:	88 0f       	add	r24, r24
    3156:	99 1f       	adc	r25, r25
    3158:	0a 94       	dec	r0
    315a:	e2 f7       	brpl	.-8      	; 0x3154 <DIO_s8SETPinVal+0xc8>
    315c:	84 2b       	or	r24, r20
    315e:	8c 93       	st	X, r24
    3160:	02 c0       	rjmp	.+4      	; 0x3166 <DIO_s8SETPinVal+0xda>
			/* do nothing */
		}
	}
	else
	{
		errStatus = E_NOK;
    3162:	8f ef       	ldi	r24, 0xFF	; 255
    3164:	8b 83       	std	Y+3, r24	; 0x03
	}
	return errStatus;
    3166:	8b 81       	ldd	r24, Y+3	; 0x03
}
    3168:	0f 90       	pop	r0
    316a:	0f 90       	pop	r0
    316c:	0f 90       	pop	r0
    316e:	0f 90       	pop	r0
    3170:	0f 90       	pop	r0
    3172:	cf 91       	pop	r28
    3174:	df 91       	pop	r29
    3176:	08 95       	ret

00003178 <DIO_s8TOGPinVal>:


Sint8_t DIO_s8TOGPinVal (enu_pin enPinCopy)
{
    3178:	df 93       	push	r29
    317a:	cf 93       	push	r28
    317c:	00 d0       	rcall	.+0      	; 0x317e <DIO_s8TOGPinVal+0x6>
    317e:	00 d0       	rcall	.+0      	; 0x3180 <DIO_s8TOGPinVal+0x8>
    3180:	cd b7       	in	r28, 0x3d	; 61
    3182:	de b7       	in	r29, 0x3e	; 62
    3184:	8c 83       	std	Y+4, r24	; 0x04
	Sint8_t errStatus = E_OK;
    3186:	1b 82       	std	Y+3, r1	; 0x03
	Uint8_t portID;
	Uint8_t pinID;

	if (enPinCopy < PIN_INVALID)
    3188:	8c 81       	ldd	r24, Y+4	; 0x04
    318a:	80 32       	cpi	r24, 0x20	; 32
    318c:	68 f5       	brcc	.+90     	; 0x31e8 <DIO_s8TOGPinVal+0x70>
	{
		portID = enPinCopy/8;
    318e:	8c 81       	ldd	r24, Y+4	; 0x04
    3190:	86 95       	lsr	r24
    3192:	86 95       	lsr	r24
    3194:	86 95       	lsr	r24
    3196:	8a 83       	std	Y+2, r24	; 0x02
		pinID  = enPinCopy%8;
    3198:	8c 81       	ldd	r24, Y+4	; 0x04
    319a:	87 70       	andi	r24, 0x07	; 7
    319c:	89 83       	std	Y+1, r24	; 0x01

		TogBit(*portReg[portID],pinID);
    319e:	8a 81       	ldd	r24, Y+2	; 0x02
    31a0:	88 2f       	mov	r24, r24
    31a2:	90 e0       	ldi	r25, 0x00	; 0
    31a4:	88 0f       	add	r24, r24
    31a6:	99 1f       	adc	r25, r25
    31a8:	fc 01       	movw	r30, r24
    31aa:	e4 5d       	subi	r30, 0xD4	; 212
    31ac:	fd 4f       	sbci	r31, 0xFD	; 253
    31ae:	a0 81       	ld	r26, Z
    31b0:	b1 81       	ldd	r27, Z+1	; 0x01
    31b2:	8a 81       	ldd	r24, Y+2	; 0x02
    31b4:	88 2f       	mov	r24, r24
    31b6:	90 e0       	ldi	r25, 0x00	; 0
    31b8:	88 0f       	add	r24, r24
    31ba:	99 1f       	adc	r25, r25
    31bc:	fc 01       	movw	r30, r24
    31be:	e4 5d       	subi	r30, 0xD4	; 212
    31c0:	fd 4f       	sbci	r31, 0xFD	; 253
    31c2:	01 90       	ld	r0, Z+
    31c4:	f0 81       	ld	r31, Z
    31c6:	e0 2d       	mov	r30, r0
    31c8:	80 81       	ld	r24, Z
    31ca:	48 2f       	mov	r20, r24
    31cc:	89 81       	ldd	r24, Y+1	; 0x01
    31ce:	28 2f       	mov	r18, r24
    31d0:	30 e0       	ldi	r19, 0x00	; 0
    31d2:	81 e0       	ldi	r24, 0x01	; 1
    31d4:	90 e0       	ldi	r25, 0x00	; 0
    31d6:	02 2e       	mov	r0, r18
    31d8:	02 c0       	rjmp	.+4      	; 0x31de <DIO_s8TOGPinVal+0x66>
    31da:	88 0f       	add	r24, r24
    31dc:	99 1f       	adc	r25, r25
    31de:	0a 94       	dec	r0
    31e0:	e2 f7       	brpl	.-8      	; 0x31da <DIO_s8TOGPinVal+0x62>
    31e2:	84 27       	eor	r24, r20
    31e4:	8c 93       	st	X, r24
    31e6:	02 c0       	rjmp	.+4      	; 0x31ec <DIO_s8TOGPinVal+0x74>
	}
	else
	{
		errStatus = E_NOK;
    31e8:	8f ef       	ldi	r24, 0xFF	; 255
    31ea:	8b 83       	std	Y+3, r24	; 0x03
	}
	return errStatus;
    31ec:	8b 81       	ldd	r24, Y+3	; 0x03

}
    31ee:	0f 90       	pop	r0
    31f0:	0f 90       	pop	r0
    31f2:	0f 90       	pop	r0
    31f4:	0f 90       	pop	r0
    31f6:	cf 91       	pop	r28
    31f8:	df 91       	pop	r29
    31fa:	08 95       	ret

000031fc <DIO_s8GETPinVal>:
 * 					- enPinCopy {DIO_PINA_0...., DIO_PIND_7}
 * 					- pu8Val address of variable that u want to save value on it
 * Return		:   Sint8_t
 */
Sint8_t DIO_s8GETPinVal (enu_pin enPinCopy, Uint8_t* pu8Val)
{
    31fc:	df 93       	push	r29
    31fe:	cf 93       	push	r28
    3200:	00 d0       	rcall	.+0      	; 0x3202 <DIO_s8GETPinVal+0x6>
    3202:	00 d0       	rcall	.+0      	; 0x3204 <DIO_s8GETPinVal+0x8>
    3204:	00 d0       	rcall	.+0      	; 0x3206 <DIO_s8GETPinVal+0xa>
    3206:	cd b7       	in	r28, 0x3d	; 61
    3208:	de b7       	in	r29, 0x3e	; 62
    320a:	8c 83       	std	Y+4, r24	; 0x04
    320c:	7e 83       	std	Y+6, r23	; 0x06
    320e:	6d 83       	std	Y+5, r22	; 0x05
	Sint8_t errStatus = E_OK;
    3210:	1b 82       	std	Y+3, r1	; 0x03
	Uint8_t portID;
	Uint8_t pinID;
	if (enPinCopy < PIN_INVALID)
    3212:	8c 81       	ldd	r24, Y+4	; 0x04
    3214:	80 32       	cpi	r24, 0x20	; 32
    3216:	28 f5       	brcc	.+74     	; 0x3262 <DIO_s8GETPinVal+0x66>
	{
		portID = enPinCopy/8;
    3218:	8c 81       	ldd	r24, Y+4	; 0x04
    321a:	86 95       	lsr	r24
    321c:	86 95       	lsr	r24
    321e:	86 95       	lsr	r24
    3220:	8a 83       	std	Y+2, r24	; 0x02
		pinID  = enPinCopy%8;
    3222:	8c 81       	ldd	r24, Y+4	; 0x04
    3224:	87 70       	andi	r24, 0x07	; 7
    3226:	89 83       	std	Y+1, r24	; 0x01

		*pu8Val = GetBit(*pinReg[portID], pinID);
    3228:	8a 81       	ldd	r24, Y+2	; 0x02
    322a:	88 2f       	mov	r24, r24
    322c:	90 e0       	ldi	r25, 0x00	; 0
    322e:	88 0f       	add	r24, r24
    3230:	99 1f       	adc	r25, r25
    3232:	fc 01       	movw	r30, r24
    3234:	e4 5c       	subi	r30, 0xC4	; 196
    3236:	fd 4f       	sbci	r31, 0xFD	; 253
    3238:	01 90       	ld	r0, Z+
    323a:	f0 81       	ld	r31, Z
    323c:	e0 2d       	mov	r30, r0
    323e:	80 81       	ld	r24, Z
    3240:	28 2f       	mov	r18, r24
    3242:	30 e0       	ldi	r19, 0x00	; 0
    3244:	89 81       	ldd	r24, Y+1	; 0x01
    3246:	88 2f       	mov	r24, r24
    3248:	90 e0       	ldi	r25, 0x00	; 0
    324a:	a9 01       	movw	r20, r18
    324c:	02 c0       	rjmp	.+4      	; 0x3252 <DIO_s8GETPinVal+0x56>
    324e:	55 95       	asr	r21
    3250:	47 95       	ror	r20
    3252:	8a 95       	dec	r24
    3254:	e2 f7       	brpl	.-8      	; 0x324e <DIO_s8GETPinVal+0x52>
    3256:	ca 01       	movw	r24, r20
    3258:	81 70       	andi	r24, 0x01	; 1
    325a:	ed 81       	ldd	r30, Y+5	; 0x05
    325c:	fe 81       	ldd	r31, Y+6	; 0x06
    325e:	80 83       	st	Z, r24
    3260:	02 c0       	rjmp	.+4      	; 0x3266 <DIO_s8GETPinVal+0x6a>

	}
	else
	{
		errStatus = E_NOK;
    3262:	8f ef       	ldi	r24, 0xFF	; 255
    3264:	8b 83       	std	Y+3, r24	; 0x03
	}
	return errStatus;
    3266:	8b 81       	ldd	r24, Y+3	; 0x03
}
    3268:	26 96       	adiw	r28, 0x06	; 6
    326a:	0f b6       	in	r0, 0x3f	; 63
    326c:	f8 94       	cli
    326e:	de bf       	out	0x3e, r29	; 62
    3270:	0f be       	out	0x3f, r0	; 63
    3272:	cd bf       	out	0x3d, r28	; 61
    3274:	cf 91       	pop	r28
    3276:	df 91       	pop	r29
    3278:	08 95       	ret

0000327a <HLed_Init>:
//#include "../../MCAL/DIO/DIO_Interface.h"
#include "led.h"


enu_ledError_t HLed_Init(enu_pin en_pinNum)
{
    327a:	df 93       	push	r29
    327c:	cf 93       	push	r28
    327e:	00 d0       	rcall	.+0      	; 0x3280 <HLed_Init+0x6>
    3280:	cd b7       	in	r28, 0x3d	; 61
    3282:	de b7       	in	r29, 0x3e	; 62
    3284:	8a 83       	std	Y+2, r24	; 0x02
	enu_ledError_t errorStatus = LED_OK;
    3286:	81 e0       	ldi	r24, 0x01	; 1
    3288:	89 83       	std	Y+1, r24	; 0x01

	if ( en_pinNum < PIN_INVALID )
    328a:	8a 81       	ldd	r24, Y+2	; 0x02
    328c:	80 32       	cpi	r24, 0x20	; 32
    328e:	28 f4       	brcc	.+10     	; 0x329a <HLed_Init+0x20>
	{
		DIO_s8SETPinDir(en_pinNum, OUTPUT);
    3290:	8a 81       	ldd	r24, Y+2	; 0x02
    3292:	61 e0       	ldi	r22, 0x01	; 1
    3294:	0e 94 d0 17 	call	0x2fa0	; 0x2fa0 <DIO_s8SETPinDir>
    3298:	01 c0       	rjmp	.+2      	; 0x329c <HLed_Init+0x22>
	}
	else
	{
		errorStatus = LED_NOK;
    329a:	19 82       	std	Y+1, r1	; 0x01
	}



	return errorStatus;
    329c:	89 81       	ldd	r24, Y+1	; 0x01

}
    329e:	0f 90       	pop	r0
    32a0:	0f 90       	pop	r0
    32a2:	cf 91       	pop	r28
    32a4:	df 91       	pop	r29
    32a6:	08 95       	ret

000032a8 <HLed_on>:

enu_ledError_t HLed_on(enu_pin en_pinx)
{
    32a8:	df 93       	push	r29
    32aa:	cf 93       	push	r28
    32ac:	00 d0       	rcall	.+0      	; 0x32ae <HLed_on+0x6>
    32ae:	cd b7       	in	r28, 0x3d	; 61
    32b0:	de b7       	in	r29, 0x3e	; 62
    32b2:	8a 83       	std	Y+2, r24	; 0x02
	enu_ledError_t errorStatus = LED_OK;
    32b4:	81 e0       	ldi	r24, 0x01	; 1
    32b6:	89 83       	std	Y+1, r24	; 0x01

	if ( en_pinx < PIN_INVALID )
    32b8:	8a 81       	ldd	r24, Y+2	; 0x02
    32ba:	80 32       	cpi	r24, 0x20	; 32
    32bc:	28 f4       	brcc	.+10     	; 0x32c8 <HLed_on+0x20>
	{
		DIO_s8SETPinVal(en_pinx, HIGH);
    32be:	8a 81       	ldd	r24, Y+2	; 0x02
    32c0:	61 e0       	ldi	r22, 0x01	; 1
    32c2:	0e 94 46 18 	call	0x308c	; 0x308c <DIO_s8SETPinVal>
    32c6:	01 c0       	rjmp	.+2      	; 0x32ca <HLed_on+0x22>
	}
	else
	{
		errorStatus = LED_NOK;
    32c8:	19 82       	std	Y+1, r1	; 0x01
	}



	return errorStatus;
    32ca:	89 81       	ldd	r24, Y+1	; 0x01

}
    32cc:	0f 90       	pop	r0
    32ce:	0f 90       	pop	r0
    32d0:	cf 91       	pop	r28
    32d2:	df 91       	pop	r29
    32d4:	08 95       	ret

000032d6 <HLed_off>:



enu_ledError_t HLed_off(enu_pin en_pinx)
{
    32d6:	df 93       	push	r29
    32d8:	cf 93       	push	r28
    32da:	00 d0       	rcall	.+0      	; 0x32dc <HLed_off+0x6>
    32dc:	cd b7       	in	r28, 0x3d	; 61
    32de:	de b7       	in	r29, 0x3e	; 62
    32e0:	8a 83       	std	Y+2, r24	; 0x02
	enu_ledError_t errorStatus = LED_OK;
    32e2:	81 e0       	ldi	r24, 0x01	; 1
    32e4:	89 83       	std	Y+1, r24	; 0x01

	if ( en_pinx < PIN_INVALID )
    32e6:	8a 81       	ldd	r24, Y+2	; 0x02
    32e8:	80 32       	cpi	r24, 0x20	; 32
    32ea:	28 f4       	brcc	.+10     	; 0x32f6 <HLed_off+0x20>
	{
		DIO_s8SETPinVal(en_pinx, LOW);
    32ec:	8a 81       	ldd	r24, Y+2	; 0x02
    32ee:	60 e0       	ldi	r22, 0x00	; 0
    32f0:	0e 94 46 18 	call	0x308c	; 0x308c <DIO_s8SETPinVal>
    32f4:	01 c0       	rjmp	.+2      	; 0x32f8 <HLed_off+0x22>
	}
	else
	{
		errorStatus = LED_NOK;
    32f6:	19 82       	std	Y+1, r1	; 0x01
	}



	return errorStatus;
    32f8:	89 81       	ldd	r24, Y+1	; 0x01

}
    32fa:	0f 90       	pop	r0
    32fc:	0f 90       	pop	r0
    32fe:	cf 91       	pop	r28
    3300:	df 91       	pop	r29
    3302:	08 95       	ret

00003304 <HLed_toggle>:


enu_ledError_t HLed_toggle(enu_pin en_pinx)
{
    3304:	df 93       	push	r29
    3306:	cf 93       	push	r28
    3308:	00 d0       	rcall	.+0      	; 0x330a <HLed_toggle+0x6>
    330a:	cd b7       	in	r28, 0x3d	; 61
    330c:	de b7       	in	r29, 0x3e	; 62
    330e:	8a 83       	std	Y+2, r24	; 0x02
	enu_ledError_t errorStatus = LED_OK;
    3310:	81 e0       	ldi	r24, 0x01	; 1
    3312:	89 83       	std	Y+1, r24	; 0x01

	if ( en_pinx < PIN_INVALID )
    3314:	8a 81       	ldd	r24, Y+2	; 0x02
    3316:	80 32       	cpi	r24, 0x20	; 32
    3318:	20 f4       	brcc	.+8      	; 0x3322 <HLed_toggle+0x1e>
	{
		DIO_s8TOGPinVal(en_pinx);
    331a:	8a 81       	ldd	r24, Y+2	; 0x02
    331c:	0e 94 bc 18 	call	0x3178	; 0x3178 <DIO_s8TOGPinVal>
    3320:	01 c0       	rjmp	.+2      	; 0x3324 <HLed_toggle+0x20>

	}
	else
	{
		errorStatus = LED_NOK;
    3322:	19 82       	std	Y+1, r1	; 0x01
	}

	return errorStatus;
    3324:	89 81       	ldd	r24, Y+1	; 0x01

}
    3326:	0f 90       	pop	r0
    3328:	0f 90       	pop	r0
    332a:	cf 91       	pop	r28
    332c:	df 91       	pop	r29
    332e:	08 95       	ret

00003330 <KEYPAD_vidInit_V2>:
 * Description	: KEYPAD Initialization
 * in[1]		: void
 * Return		: void
 */
void KEYPAD_vidInit_V2()
{
    3330:	df 93       	push	r29
    3332:	cf 93       	push	r28
    3334:	00 d0       	rcall	.+0      	; 0x3336 <KEYPAD_vidInit_V2+0x6>
    3336:	cd b7       	in	r28, 0x3d	; 61
    3338:	de b7       	in	r29, 0x3e	; 62
	Uint8_t local_u8Col;
	Uint8_t local_u8Row;

	for (local_u8Col = 0; local_u8Col <KEYPAD_NO_COL ; local_u8Col++)
    333a:	1a 82       	std	Y+2, r1	; 0x02
    333c:	0d c0       	rjmp	.+26     	; 0x3358 <KEYPAD_vidInit_V2+0x28>
	{
		DIO_s8SETPinDir(KEYPAD_strColPins[local_u8Col].key_pin ,OUTPUT);
    333e:	8a 81       	ldd	r24, Y+2	; 0x02
    3340:	88 2f       	mov	r24, r24
    3342:	90 e0       	ldi	r25, 0x00	; 0
    3344:	fc 01       	movw	r30, r24
    3346:	e3 5b       	subi	r30, 0xB3	; 179
    3348:	fd 4f       	sbci	r31, 0xFD	; 253
    334a:	80 81       	ld	r24, Z
    334c:	61 e0       	ldi	r22, 0x01	; 1
    334e:	0e 94 d0 17 	call	0x2fa0	; 0x2fa0 <DIO_s8SETPinDir>
void KEYPAD_vidInit_V2()
{
	Uint8_t local_u8Col;
	Uint8_t local_u8Row;

	for (local_u8Col = 0; local_u8Col <KEYPAD_NO_COL ; local_u8Col++)
    3352:	8a 81       	ldd	r24, Y+2	; 0x02
    3354:	8f 5f       	subi	r24, 0xFF	; 255
    3356:	8a 83       	std	Y+2, r24	; 0x02
    3358:	8a 81       	ldd	r24, Y+2	; 0x02
    335a:	83 30       	cpi	r24, 0x03	; 3
    335c:	80 f3       	brcs	.-32     	; 0x333e <KEYPAD_vidInit_V2+0xe>
	{
		DIO_s8SETPinDir(KEYPAD_strColPins[local_u8Col].key_pin ,OUTPUT);
	}
	for (local_u8Row = 0; local_u8Row <KEYPAD_NO_ROW ; local_u8Row++)
    335e:	19 82       	std	Y+1, r1	; 0x01
    3360:	0d c0       	rjmp	.+26     	; 0x337c <KEYPAD_vidInit_V2+0x4c>
	{
		DIO_s8SETPinDir(KEYPAD_strRowPins[local_u8Row].key_pin ,INPUT);
    3362:	89 81       	ldd	r24, Y+1	; 0x01
    3364:	88 2f       	mov	r24, r24
    3366:	90 e0       	ldi	r25, 0x00	; 0
    3368:	fc 01       	movw	r30, r24
    336a:	e0 5b       	subi	r30, 0xB0	; 176
    336c:	fd 4f       	sbci	r31, 0xFD	; 253
    336e:	80 81       	ld	r24, Z
    3370:	60 e0       	ldi	r22, 0x00	; 0
    3372:	0e 94 d0 17 	call	0x2fa0	; 0x2fa0 <DIO_s8SETPinDir>

	for (local_u8Col = 0; local_u8Col <KEYPAD_NO_COL ; local_u8Col++)
	{
		DIO_s8SETPinDir(KEYPAD_strColPins[local_u8Col].key_pin ,OUTPUT);
	}
	for (local_u8Row = 0; local_u8Row <KEYPAD_NO_ROW ; local_u8Row++)
    3376:	89 81       	ldd	r24, Y+1	; 0x01
    3378:	8f 5f       	subi	r24, 0xFF	; 255
    337a:	89 83       	std	Y+1, r24	; 0x01
    337c:	89 81       	ldd	r24, Y+1	; 0x01
    337e:	83 30       	cpi	r24, 0x03	; 3
    3380:	80 f3       	brcs	.-32     	; 0x3362 <KEYPAD_vidInit_V2+0x32>
	{
		DIO_s8SETPinDir(KEYPAD_strRowPins[local_u8Row].key_pin ,INPUT);
	}
	for (local_u8Col = 0; local_u8Col <KEYPAD_NO_COL ; local_u8Col++)
    3382:	1a 82       	std	Y+2, r1	; 0x02
    3384:	0d c0       	rjmp	.+26     	; 0x33a0 <KEYPAD_vidInit_V2+0x70>
	{
		DIO_s8SETPinVal(KEYPAD_strColPins[local_u8Col].key_pin ,HIGH);
    3386:	8a 81       	ldd	r24, Y+2	; 0x02
    3388:	88 2f       	mov	r24, r24
    338a:	90 e0       	ldi	r25, 0x00	; 0
    338c:	fc 01       	movw	r30, r24
    338e:	e3 5b       	subi	r30, 0xB3	; 179
    3390:	fd 4f       	sbci	r31, 0xFD	; 253
    3392:	80 81       	ld	r24, Z
    3394:	61 e0       	ldi	r22, 0x01	; 1
    3396:	0e 94 46 18 	call	0x308c	; 0x308c <DIO_s8SETPinVal>
	}
	for (local_u8Row = 0; local_u8Row <KEYPAD_NO_ROW ; local_u8Row++)
	{
		DIO_s8SETPinDir(KEYPAD_strRowPins[local_u8Row].key_pin ,INPUT);
	}
	for (local_u8Col = 0; local_u8Col <KEYPAD_NO_COL ; local_u8Col++)
    339a:	8a 81       	ldd	r24, Y+2	; 0x02
    339c:	8f 5f       	subi	r24, 0xFF	; 255
    339e:	8a 83       	std	Y+2, r24	; 0x02
    33a0:	8a 81       	ldd	r24, Y+2	; 0x02
    33a2:	83 30       	cpi	r24, 0x03	; 3
    33a4:	80 f3       	brcs	.-32     	; 0x3386 <KEYPAD_vidInit_V2+0x56>
	{
		DIO_s8SETPinVal(KEYPAD_strColPins[local_u8Col].key_pin ,HIGH);
	}
	for (local_u8Row = 0; local_u8Row <KEYPAD_NO_ROW ; local_u8Row++)
    33a6:	19 82       	std	Y+1, r1	; 0x01
    33a8:	0d c0       	rjmp	.+26     	; 0x33c4 <KEYPAD_vidInit_V2+0x94>
	{
		DIO_s8SETPinVal(KEYPAD_strRowPins[local_u8Row].key_pin ,HIGH);
    33aa:	89 81       	ldd	r24, Y+1	; 0x01
    33ac:	88 2f       	mov	r24, r24
    33ae:	90 e0       	ldi	r25, 0x00	; 0
    33b0:	fc 01       	movw	r30, r24
    33b2:	e0 5b       	subi	r30, 0xB0	; 176
    33b4:	fd 4f       	sbci	r31, 0xFD	; 253
    33b6:	80 81       	ld	r24, Z
    33b8:	61 e0       	ldi	r22, 0x01	; 1
    33ba:	0e 94 46 18 	call	0x308c	; 0x308c <DIO_s8SETPinVal>
	}
	for (local_u8Col = 0; local_u8Col <KEYPAD_NO_COL ; local_u8Col++)
	{
		DIO_s8SETPinVal(KEYPAD_strColPins[local_u8Col].key_pin ,HIGH);
	}
	for (local_u8Row = 0; local_u8Row <KEYPAD_NO_ROW ; local_u8Row++)
    33be:	89 81       	ldd	r24, Y+1	; 0x01
    33c0:	8f 5f       	subi	r24, 0xFF	; 255
    33c2:	89 83       	std	Y+1, r24	; 0x01
    33c4:	89 81       	ldd	r24, Y+1	; 0x01
    33c6:	83 30       	cpi	r24, 0x03	; 3
    33c8:	80 f3       	brcs	.-32     	; 0x33aa <KEYPAD_vidInit_V2+0x7a>
	{
		DIO_s8SETPinVal(KEYPAD_strRowPins[local_u8Row].key_pin ,HIGH);
	}
}
    33ca:	0f 90       	pop	r0
    33cc:	0f 90       	pop	r0
    33ce:	cf 91       	pop	r28
    33d0:	df 91       	pop	r29
    33d2:	08 95       	ret

000033d4 <KEYPAD_u8GetPressed_V2>:
 * Description	: KEYPAG get pin status
 * in[1]		: void
 * Return		: Uint8_t {Pin Status}
 */
Uint8_t KEYPAD_u8GetPressed_V2(void)
{
    33d4:	df 93       	push	r29
    33d6:	cf 93       	push	r28
    33d8:	cd b7       	in	r28, 0x3d	; 61
    33da:	de b7       	in	r29, 0x3e	; 62
    33dc:	e8 97       	sbiw	r28, 0x38	; 56
    33de:	0f b6       	in	r0, 0x3f	; 63
    33e0:	f8 94       	cli
    33e2:	de bf       	out	0x3e, r29	; 62
    33e4:	0f be       	out	0x3f, r0	; 63
    33e6:	cd bf       	out	0x3d, r28	; 61
	Uint8_t local_u8KeyPressed = NO_KEY_PRESSED;
    33e8:	1f aa       	std	Y+55, r1	; 0x37
	Uint8_t local_u8RowStatus;
	Uint8_t local_u8Col;
	Uint8_t local_u8Row;

	for(local_u8Col = 0; local_u8Col < KEYPAD_NO_COL ;local_u8Col++)
    33ea:	1e aa       	std	Y+54, r1	; 0x36
    33ec:	ee c1       	rjmp	.+988    	; 0x37ca <KEYPAD_u8GetPressed_V2+0x3f6>
	{
		DIO_s8SETPinVal(KEYPAD_strColPins[local_u8Col].key_pin ,LOW);
    33ee:	8e a9       	ldd	r24, Y+54	; 0x36
    33f0:	88 2f       	mov	r24, r24
    33f2:	90 e0       	ldi	r25, 0x00	; 0
    33f4:	fc 01       	movw	r30, r24
    33f6:	e3 5b       	subi	r30, 0xB3	; 179
    33f8:	fd 4f       	sbci	r31, 0xFD	; 253
    33fa:	80 81       	ld	r24, Z
    33fc:	60 e0       	ldi	r22, 0x00	; 0
    33fe:	0e 94 46 18 	call	0x308c	; 0x308c <DIO_s8SETPinVal>
    3402:	80 e0       	ldi	r24, 0x00	; 0
    3404:	90 e0       	ldi	r25, 0x00	; 0
    3406:	a0 e0       	ldi	r26, 0x00	; 0
    3408:	b0 e4       	ldi	r27, 0x40	; 64
    340a:	89 ab       	std	Y+49, r24	; 0x31
    340c:	9a ab       	std	Y+50, r25	; 0x32
    340e:	ab ab       	std	Y+51, r26	; 0x33
    3410:	bc ab       	std	Y+52, r27	; 0x34
 */
void
_delay_us(double __us)
{
	uint8_t __ticks;
	double __tmp = ((F_CPU) / 3e6) * __us;
    3412:	69 a9       	ldd	r22, Y+49	; 0x31
    3414:	7a a9       	ldd	r23, Y+50	; 0x32
    3416:	8b a9       	ldd	r24, Y+51	; 0x33
    3418:	9c a9       	ldd	r25, Y+52	; 0x34
    341a:	2b ea       	ldi	r18, 0xAB	; 171
    341c:	3a ea       	ldi	r19, 0xAA	; 170
    341e:	4a e2       	ldi	r20, 0x2A	; 42
    3420:	50 e4       	ldi	r21, 0x40	; 64
    3422:	0e 94 1f 02 	call	0x43e	; 0x43e <__mulsf3>
    3426:	dc 01       	movw	r26, r24
    3428:	cb 01       	movw	r24, r22
    342a:	8d a7       	std	Y+45, r24	; 0x2d
    342c:	9e a7       	std	Y+46, r25	; 0x2e
    342e:	af a7       	std	Y+47, r26	; 0x2f
    3430:	b8 ab       	std	Y+48, r27	; 0x30
	if (__tmp < 1.0)
    3432:	6d a5       	ldd	r22, Y+45	; 0x2d
    3434:	7e a5       	ldd	r23, Y+46	; 0x2e
    3436:	8f a5       	ldd	r24, Y+47	; 0x2f
    3438:	98 a9       	ldd	r25, Y+48	; 0x30
    343a:	20 e0       	ldi	r18, 0x00	; 0
    343c:	30 e0       	ldi	r19, 0x00	; 0
    343e:	40 e8       	ldi	r20, 0x80	; 128
    3440:	5f e3       	ldi	r21, 0x3F	; 63
    3442:	0e 94 25 04 	call	0x84a	; 0x84a <__ltsf2>
    3446:	88 23       	and	r24, r24
    3448:	1c f4       	brge	.+6      	; 0x3450 <KEYPAD_u8GetPressed_V2+0x7c>
		__ticks = 1;
    344a:	81 e0       	ldi	r24, 0x01	; 1
    344c:	8c a7       	std	Y+44, r24	; 0x2c
    344e:	91 c0       	rjmp	.+290    	; 0x3572 <KEYPAD_u8GetPressed_V2+0x19e>
	else if (__tmp > 255)
    3450:	6d a5       	ldd	r22, Y+45	; 0x2d
    3452:	7e a5       	ldd	r23, Y+46	; 0x2e
    3454:	8f a5       	ldd	r24, Y+47	; 0x2f
    3456:	98 a9       	ldd	r25, Y+48	; 0x30
    3458:	20 e0       	ldi	r18, 0x00	; 0
    345a:	30 e0       	ldi	r19, 0x00	; 0
    345c:	4f e7       	ldi	r20, 0x7F	; 127
    345e:	53 e4       	ldi	r21, 0x43	; 67
    3460:	0e 94 c5 03 	call	0x78a	; 0x78a <__gtsf2>
    3464:	18 16       	cp	r1, r24
    3466:	0c f0       	brlt	.+2      	; 0x346a <KEYPAD_u8GetPressed_V2+0x96>
    3468:	7b c0       	rjmp	.+246    	; 0x3560 <KEYPAD_u8GetPressed_V2+0x18c>
	{
		_delay_ms(__us / 1000.0);
    346a:	69 a9       	ldd	r22, Y+49	; 0x31
    346c:	7a a9       	ldd	r23, Y+50	; 0x32
    346e:	8b a9       	ldd	r24, Y+51	; 0x33
    3470:	9c a9       	ldd	r25, Y+52	; 0x34
    3472:	20 e0       	ldi	r18, 0x00	; 0
    3474:	30 e0       	ldi	r19, 0x00	; 0
    3476:	4a e7       	ldi	r20, 0x7A	; 122
    3478:	54 e4       	ldi	r21, 0x44	; 68
    347a:	0e 94 19 03 	call	0x632	; 0x632 <__divsf3>
    347e:	dc 01       	movw	r26, r24
    3480:	cb 01       	movw	r24, r22
    3482:	88 a7       	std	Y+40, r24	; 0x28
    3484:	99 a7       	std	Y+41, r25	; 0x29
    3486:	aa a7       	std	Y+42, r26	; 0x2a
    3488:	bb a7       	std	Y+43, r27	; 0x2b
 */
void
_delay_ms(double __ms)
{
	uint16_t __ticks;
	double __tmp = ((F_CPU) / 4e3) * __ms;
    348a:	68 a5       	ldd	r22, Y+40	; 0x28
    348c:	79 a5       	ldd	r23, Y+41	; 0x29
    348e:	8a a5       	ldd	r24, Y+42	; 0x2a
    3490:	9b a5       	ldd	r25, Y+43	; 0x2b
    3492:	20 e0       	ldi	r18, 0x00	; 0
    3494:	30 e0       	ldi	r19, 0x00	; 0
    3496:	4a ef       	ldi	r20, 0xFA	; 250
    3498:	54 e4       	ldi	r21, 0x44	; 68
    349a:	0e 94 1f 02 	call	0x43e	; 0x43e <__mulsf3>
    349e:	dc 01       	movw	r26, r24
    34a0:	cb 01       	movw	r24, r22
    34a2:	8c a3       	std	Y+36, r24	; 0x24
    34a4:	9d a3       	std	Y+37, r25	; 0x25
    34a6:	ae a3       	std	Y+38, r26	; 0x26
    34a8:	bf a3       	std	Y+39, r27	; 0x27
	if (__tmp < 1.0)
    34aa:	6c a1       	ldd	r22, Y+36	; 0x24
    34ac:	7d a1       	ldd	r23, Y+37	; 0x25
    34ae:	8e a1       	ldd	r24, Y+38	; 0x26
    34b0:	9f a1       	ldd	r25, Y+39	; 0x27
    34b2:	20 e0       	ldi	r18, 0x00	; 0
    34b4:	30 e0       	ldi	r19, 0x00	; 0
    34b6:	40 e8       	ldi	r20, 0x80	; 128
    34b8:	5f e3       	ldi	r21, 0x3F	; 63
    34ba:	0e 94 25 04 	call	0x84a	; 0x84a <__ltsf2>
    34be:	88 23       	and	r24, r24
    34c0:	2c f4       	brge	.+10     	; 0x34cc <KEYPAD_u8GetPressed_V2+0xf8>
		__ticks = 1;
    34c2:	81 e0       	ldi	r24, 0x01	; 1
    34c4:	90 e0       	ldi	r25, 0x00	; 0
    34c6:	9b a3       	std	Y+35, r25	; 0x23
    34c8:	8a a3       	std	Y+34, r24	; 0x22
    34ca:	3f c0       	rjmp	.+126    	; 0x354a <KEYPAD_u8GetPressed_V2+0x176>
	else if (__tmp > 65535)
    34cc:	6c a1       	ldd	r22, Y+36	; 0x24
    34ce:	7d a1       	ldd	r23, Y+37	; 0x25
    34d0:	8e a1       	ldd	r24, Y+38	; 0x26
    34d2:	9f a1       	ldd	r25, Y+39	; 0x27
    34d4:	20 e0       	ldi	r18, 0x00	; 0
    34d6:	3f ef       	ldi	r19, 0xFF	; 255
    34d8:	4f e7       	ldi	r20, 0x7F	; 127
    34da:	57 e4       	ldi	r21, 0x47	; 71
    34dc:	0e 94 c5 03 	call	0x78a	; 0x78a <__gtsf2>
    34e0:	18 16       	cp	r1, r24
    34e2:	4c f5       	brge	.+82     	; 0x3536 <KEYPAD_u8GetPressed_V2+0x162>
	{
		//	__ticks = requested delay in 1/10 ms
		__ticks = (uint16_t) (__ms * 10.0);
    34e4:	68 a5       	ldd	r22, Y+40	; 0x28
    34e6:	79 a5       	ldd	r23, Y+41	; 0x29
    34e8:	8a a5       	ldd	r24, Y+42	; 0x2a
    34ea:	9b a5       	ldd	r25, Y+43	; 0x2b
    34ec:	20 e0       	ldi	r18, 0x00	; 0
    34ee:	30 e0       	ldi	r19, 0x00	; 0
    34f0:	40 e2       	ldi	r20, 0x20	; 32
    34f2:	51 e4       	ldi	r21, 0x41	; 65
    34f4:	0e 94 1f 02 	call	0x43e	; 0x43e <__mulsf3>
    34f8:	dc 01       	movw	r26, r24
    34fa:	cb 01       	movw	r24, r22
    34fc:	bc 01       	movw	r22, r24
    34fe:	cd 01       	movw	r24, r26
    3500:	0e 94 49 00 	call	0x92	; 0x92 <__fixunssfsi>
    3504:	dc 01       	movw	r26, r24
    3506:	cb 01       	movw	r24, r22
    3508:	9b a3       	std	Y+35, r25	; 0x23
    350a:	8a a3       	std	Y+34, r24	; 0x22
    350c:	0f c0       	rjmp	.+30     	; 0x352c <KEYPAD_u8GetPressed_V2+0x158>
    350e:	88 ec       	ldi	r24, 0xC8	; 200
    3510:	90 e0       	ldi	r25, 0x00	; 0
    3512:	99 a3       	std	Y+33, r25	; 0x21
    3514:	88 a3       	std	Y+32, r24	; 0x20
    milliseconds can be achieved.
 */
void
_delay_loop_2(uint16_t __count)
{
	__asm__ volatile (
    3516:	88 a1       	ldd	r24, Y+32	; 0x20
    3518:	99 a1       	ldd	r25, Y+33	; 0x21
    351a:	01 97       	sbiw	r24, 0x01	; 1
    351c:	f1 f7       	brne	.-4      	; 0x351a <KEYPAD_u8GetPressed_V2+0x146>
    351e:	99 a3       	std	Y+33, r25	; 0x21
    3520:	88 a3       	std	Y+32, r24	; 0x20
		while(__ticks)
		{
			// wait 1/10 ms
			_delay_loop_2(((F_CPU) / 4e3) / 10);
			__ticks --;
    3522:	8a a1       	ldd	r24, Y+34	; 0x22
    3524:	9b a1       	ldd	r25, Y+35	; 0x23
    3526:	01 97       	sbiw	r24, 0x01	; 1
    3528:	9b a3       	std	Y+35, r25	; 0x23
    352a:	8a a3       	std	Y+34, r24	; 0x22
		__ticks = 1;
	else if (__tmp > 65535)
	{
		//	__ticks = requested delay in 1/10 ms
		__ticks = (uint16_t) (__ms * 10.0);
		while(__ticks)
    352c:	8a a1       	ldd	r24, Y+34	; 0x22
    352e:	9b a1       	ldd	r25, Y+35	; 0x23
    3530:	00 97       	sbiw	r24, 0x00	; 0
    3532:	69 f7       	brne	.-38     	; 0x350e <KEYPAD_u8GetPressed_V2+0x13a>
    3534:	24 c0       	rjmp	.+72     	; 0x357e <KEYPAD_u8GetPressed_V2+0x1aa>
			__ticks --;
		}
		return;
	}
	else
		__ticks = (uint16_t)__tmp;
    3536:	6c a1       	ldd	r22, Y+36	; 0x24
    3538:	7d a1       	ldd	r23, Y+37	; 0x25
    353a:	8e a1       	ldd	r24, Y+38	; 0x26
    353c:	9f a1       	ldd	r25, Y+39	; 0x27
    353e:	0e 94 49 00 	call	0x92	; 0x92 <__fixunssfsi>
    3542:	dc 01       	movw	r26, r24
    3544:	cb 01       	movw	r24, r22
    3546:	9b a3       	std	Y+35, r25	; 0x23
    3548:	8a a3       	std	Y+34, r24	; 0x22
    354a:	8a a1       	ldd	r24, Y+34	; 0x22
    354c:	9b a1       	ldd	r25, Y+35	; 0x23
    354e:	9f 8f       	std	Y+31, r25	; 0x1f
    3550:	8e 8f       	std	Y+30, r24	; 0x1e
    3552:	8e 8d       	ldd	r24, Y+30	; 0x1e
    3554:	9f 8d       	ldd	r25, Y+31	; 0x1f
    3556:	01 97       	sbiw	r24, 0x01	; 1
    3558:	f1 f7       	brne	.-4      	; 0x3556 <KEYPAD_u8GetPressed_V2+0x182>
    355a:	9f 8f       	std	Y+31, r25	; 0x1f
    355c:	8e 8f       	std	Y+30, r24	; 0x1e
    355e:	0f c0       	rjmp	.+30     	; 0x357e <KEYPAD_u8GetPressed_V2+0x1aa>
	{
		_delay_ms(__us / 1000.0);
		return;
	}
	else
		__ticks = (uint8_t)__tmp;
    3560:	6d a5       	ldd	r22, Y+45	; 0x2d
    3562:	7e a5       	ldd	r23, Y+46	; 0x2e
    3564:	8f a5       	ldd	r24, Y+47	; 0x2f
    3566:	98 a9       	ldd	r25, Y+48	; 0x30
    3568:	0e 94 49 00 	call	0x92	; 0x92 <__fixunssfsi>
    356c:	dc 01       	movw	r26, r24
    356e:	cb 01       	movw	r24, r22
    3570:	8c a7       	std	Y+44, r24	; 0x2c
    3572:	8c a5       	ldd	r24, Y+44	; 0x2c
    3574:	8d 8f       	std	Y+29, r24	; 0x1d
    can be achieved.
*/
void
_delay_loop_1(uint8_t __count)
{
	__asm__ volatile (
    3576:	8d 8d       	ldd	r24, Y+29	; 0x1d
    3578:	8a 95       	dec	r24
    357a:	f1 f7       	brne	.-4      	; 0x3578 <KEYPAD_u8GetPressed_V2+0x1a4>
    357c:	8d 8f       	std	Y+29, r24	; 0x1d
		_delay_us(2);
		for(local_u8Row = 0;local_u8Row < KEYPAD_NO_ROW;local_u8Row++)
    357e:	1d aa       	std	Y+53, r1	; 0x35
    3580:	13 c1       	rjmp	.+550    	; 0x37a8 <KEYPAD_u8GetPressed_V2+0x3d4>
		{
			DIO_s8GETPinVal(KEYPAD_strRowPins[local_u8Row].key_pin, &local_u8RowStatus);
    3582:	8d a9       	ldd	r24, Y+53	; 0x35
    3584:	88 2f       	mov	r24, r24
    3586:	90 e0       	ldi	r25, 0x00	; 0
    3588:	fc 01       	movw	r30, r24
    358a:	e0 5b       	subi	r30, 0xB0	; 176
    358c:	fd 4f       	sbci	r31, 0xFD	; 253
    358e:	80 81       	ld	r24, Z
    3590:	9e 01       	movw	r18, r28
    3592:	28 5c       	subi	r18, 0xC8	; 200
    3594:	3f 4f       	sbci	r19, 0xFF	; 255
    3596:	b9 01       	movw	r22, r18
    3598:	0e 94 fe 18 	call	0x31fc	; 0x31fc <DIO_s8GETPinVal>
			if(!local_u8RowStatus)
    359c:	88 ad       	ldd	r24, Y+56	; 0x38
    359e:	88 23       	and	r24, r24
    35a0:	09 f0       	breq	.+2      	; 0x35a4 <KEYPAD_u8GetPressed_V2+0x1d0>
    35a2:	ff c0       	rjmp	.+510    	; 0x37a2 <KEYPAD_u8GetPressed_V2+0x3ce>
    35a4:	80 e0       	ldi	r24, 0x00	; 0
    35a6:	90 e0       	ldi	r25, 0x00	; 0
    35a8:	a8 ec       	ldi	r26, 0xC8	; 200
    35aa:	b2 e4       	ldi	r27, 0x42	; 66
    35ac:	89 8f       	std	Y+25, r24	; 0x19
    35ae:	9a 8f       	std	Y+26, r25	; 0x1a
    35b0:	ab 8f       	std	Y+27, r26	; 0x1b
    35b2:	bc 8f       	std	Y+28, r27	; 0x1c
 */
void
_delay_ms(double __ms)
{
	uint16_t __ticks;
	double __tmp = ((F_CPU) / 4e3) * __ms;
    35b4:	69 8d       	ldd	r22, Y+25	; 0x19
    35b6:	7a 8d       	ldd	r23, Y+26	; 0x1a
    35b8:	8b 8d       	ldd	r24, Y+27	; 0x1b
    35ba:	9c 8d       	ldd	r25, Y+28	; 0x1c
    35bc:	20 e0       	ldi	r18, 0x00	; 0
    35be:	30 e0       	ldi	r19, 0x00	; 0
    35c0:	4a ef       	ldi	r20, 0xFA	; 250
    35c2:	54 e4       	ldi	r21, 0x44	; 68
    35c4:	0e 94 1f 02 	call	0x43e	; 0x43e <__mulsf3>
    35c8:	dc 01       	movw	r26, r24
    35ca:	cb 01       	movw	r24, r22
    35cc:	8d 8b       	std	Y+21, r24	; 0x15
    35ce:	9e 8b       	std	Y+22, r25	; 0x16
    35d0:	af 8b       	std	Y+23, r26	; 0x17
    35d2:	b8 8f       	std	Y+24, r27	; 0x18
	if (__tmp < 1.0)
    35d4:	6d 89       	ldd	r22, Y+21	; 0x15
    35d6:	7e 89       	ldd	r23, Y+22	; 0x16
    35d8:	8f 89       	ldd	r24, Y+23	; 0x17
    35da:	98 8d       	ldd	r25, Y+24	; 0x18
    35dc:	20 e0       	ldi	r18, 0x00	; 0
    35de:	30 e0       	ldi	r19, 0x00	; 0
    35e0:	40 e8       	ldi	r20, 0x80	; 128
    35e2:	5f e3       	ldi	r21, 0x3F	; 63
    35e4:	0e 94 25 04 	call	0x84a	; 0x84a <__ltsf2>
    35e8:	88 23       	and	r24, r24
    35ea:	2c f4       	brge	.+10     	; 0x35f6 <KEYPAD_u8GetPressed_V2+0x222>
		__ticks = 1;
    35ec:	81 e0       	ldi	r24, 0x01	; 1
    35ee:	90 e0       	ldi	r25, 0x00	; 0
    35f0:	9c 8b       	std	Y+20, r25	; 0x14
    35f2:	8b 8b       	std	Y+19, r24	; 0x13
    35f4:	3f c0       	rjmp	.+126    	; 0x3674 <KEYPAD_u8GetPressed_V2+0x2a0>
	else if (__tmp > 65535)
    35f6:	6d 89       	ldd	r22, Y+21	; 0x15
    35f8:	7e 89       	ldd	r23, Y+22	; 0x16
    35fa:	8f 89       	ldd	r24, Y+23	; 0x17
    35fc:	98 8d       	ldd	r25, Y+24	; 0x18
    35fe:	20 e0       	ldi	r18, 0x00	; 0
    3600:	3f ef       	ldi	r19, 0xFF	; 255
    3602:	4f e7       	ldi	r20, 0x7F	; 127
    3604:	57 e4       	ldi	r21, 0x47	; 71
    3606:	0e 94 c5 03 	call	0x78a	; 0x78a <__gtsf2>
    360a:	18 16       	cp	r1, r24
    360c:	4c f5       	brge	.+82     	; 0x3660 <KEYPAD_u8GetPressed_V2+0x28c>
	{
		//	__ticks = requested delay in 1/10 ms
		__ticks = (uint16_t) (__ms * 10.0);
    360e:	69 8d       	ldd	r22, Y+25	; 0x19
    3610:	7a 8d       	ldd	r23, Y+26	; 0x1a
    3612:	8b 8d       	ldd	r24, Y+27	; 0x1b
    3614:	9c 8d       	ldd	r25, Y+28	; 0x1c
    3616:	20 e0       	ldi	r18, 0x00	; 0
    3618:	30 e0       	ldi	r19, 0x00	; 0
    361a:	40 e2       	ldi	r20, 0x20	; 32
    361c:	51 e4       	ldi	r21, 0x41	; 65
    361e:	0e 94 1f 02 	call	0x43e	; 0x43e <__mulsf3>
    3622:	dc 01       	movw	r26, r24
    3624:	cb 01       	movw	r24, r22
    3626:	bc 01       	movw	r22, r24
    3628:	cd 01       	movw	r24, r26
    362a:	0e 94 49 00 	call	0x92	; 0x92 <__fixunssfsi>
    362e:	dc 01       	movw	r26, r24
    3630:	cb 01       	movw	r24, r22
    3632:	9c 8b       	std	Y+20, r25	; 0x14
    3634:	8b 8b       	std	Y+19, r24	; 0x13
    3636:	0f c0       	rjmp	.+30     	; 0x3656 <KEYPAD_u8GetPressed_V2+0x282>
    3638:	88 ec       	ldi	r24, 0xC8	; 200
    363a:	90 e0       	ldi	r25, 0x00	; 0
    363c:	9a 8b       	std	Y+18, r25	; 0x12
    363e:	89 8b       	std	Y+17, r24	; 0x11
    milliseconds can be achieved.
 */
void
_delay_loop_2(uint16_t __count)
{
	__asm__ volatile (
    3640:	89 89       	ldd	r24, Y+17	; 0x11
    3642:	9a 89       	ldd	r25, Y+18	; 0x12
    3644:	01 97       	sbiw	r24, 0x01	; 1
    3646:	f1 f7       	brne	.-4      	; 0x3644 <KEYPAD_u8GetPressed_V2+0x270>
    3648:	9a 8b       	std	Y+18, r25	; 0x12
    364a:	89 8b       	std	Y+17, r24	; 0x11
		while(__ticks)
		{
			// wait 1/10 ms
			_delay_loop_2(((F_CPU) / 4e3) / 10);
			__ticks --;
    364c:	8b 89       	ldd	r24, Y+19	; 0x13
    364e:	9c 89       	ldd	r25, Y+20	; 0x14
    3650:	01 97       	sbiw	r24, 0x01	; 1
    3652:	9c 8b       	std	Y+20, r25	; 0x14
    3654:	8b 8b       	std	Y+19, r24	; 0x13
		__ticks = 1;
	else if (__tmp > 65535)
	{
		//	__ticks = requested delay in 1/10 ms
		__ticks = (uint16_t) (__ms * 10.0);
		while(__ticks)
    3656:	8b 89       	ldd	r24, Y+19	; 0x13
    3658:	9c 89       	ldd	r25, Y+20	; 0x14
    365a:	00 97       	sbiw	r24, 0x00	; 0
    365c:	69 f7       	brne	.-38     	; 0x3638 <KEYPAD_u8GetPressed_V2+0x264>
    365e:	14 c0       	rjmp	.+40     	; 0x3688 <KEYPAD_u8GetPressed_V2+0x2b4>
			__ticks --;
		}
		return;
	}
	else
		__ticks = (uint16_t)__tmp;
    3660:	6d 89       	ldd	r22, Y+21	; 0x15
    3662:	7e 89       	ldd	r23, Y+22	; 0x16
    3664:	8f 89       	ldd	r24, Y+23	; 0x17
    3666:	98 8d       	ldd	r25, Y+24	; 0x18
    3668:	0e 94 49 00 	call	0x92	; 0x92 <__fixunssfsi>
    366c:	dc 01       	movw	r26, r24
    366e:	cb 01       	movw	r24, r22
    3670:	9c 8b       	std	Y+20, r25	; 0x14
    3672:	8b 8b       	std	Y+19, r24	; 0x13
    3674:	8b 89       	ldd	r24, Y+19	; 0x13
    3676:	9c 89       	ldd	r25, Y+20	; 0x14
    3678:	98 8b       	std	Y+16, r25	; 0x10
    367a:	8f 87       	std	Y+15, r24	; 0x0f
    367c:	8f 85       	ldd	r24, Y+15	; 0x0f
    367e:	98 89       	ldd	r25, Y+16	; 0x10
    3680:	01 97       	sbiw	r24, 0x01	; 1
    3682:	f1 f7       	brne	.-4      	; 0x3680 <KEYPAD_u8GetPressed_V2+0x2ac>
    3684:	98 8b       	std	Y+16, r25	; 0x10
    3686:	8f 87       	std	Y+15, r24	; 0x0f
			{
				_delay_ms(100);
				//DIO_s8GETPinVal(KEYPAD_strRowPins[local_u8Row].key_pin, &local_u8RowStatus);
				while (!(KEYPAD_strRowPins[local_u8Row].key_pin));
    3688:	8d a9       	ldd	r24, Y+53	; 0x35
    368a:	88 2f       	mov	r24, r24
    368c:	90 e0       	ldi	r25, 0x00	; 0
    368e:	fc 01       	movw	r30, r24
    3690:	e0 5b       	subi	r30, 0xB0	; 176
    3692:	fd 4f       	sbci	r31, 0xFD	; 253
    3694:	80 81       	ld	r24, Z
    3696:	88 23       	and	r24, r24
    3698:	b9 f3       	breq	.-18     	; 0x3688 <KEYPAD_u8GetPressed_V2+0x2b4>
				//{
					local_u8KeyPressed = KEYPAD_au8KeyValV2[local_u8Row][local_u8Col];
    369a:	8d a9       	ldd	r24, Y+53	; 0x35
    369c:	28 2f       	mov	r18, r24
    369e:	30 e0       	ldi	r19, 0x00	; 0
    36a0:	8e a9       	ldd	r24, Y+54	; 0x36
    36a2:	48 2f       	mov	r20, r24
    36a4:	50 e0       	ldi	r21, 0x00	; 0
    36a6:	c9 01       	movw	r24, r18
    36a8:	88 0f       	add	r24, r24
    36aa:	99 1f       	adc	r25, r25
    36ac:	82 0f       	add	r24, r18
    36ae:	93 1f       	adc	r25, r19
    36b0:	84 0f       	add	r24, r20
    36b2:	95 1f       	adc	r25, r21
    36b4:	fc 01       	movw	r30, r24
    36b6:	ec 5b       	subi	r30, 0xBC	; 188
    36b8:	fd 4f       	sbci	r31, 0xFD	; 253
    36ba:	80 81       	ld	r24, Z
    36bc:	8f ab       	std	Y+55, r24	; 0x37
    36be:	80 e0       	ldi	r24, 0x00	; 0
    36c0:	90 e0       	ldi	r25, 0x00	; 0
    36c2:	a6 e1       	ldi	r26, 0x16	; 22
    36c4:	b3 e4       	ldi	r27, 0x43	; 67
    36c6:	8b 87       	std	Y+11, r24	; 0x0b
    36c8:	9c 87       	std	Y+12, r25	; 0x0c
    36ca:	ad 87       	std	Y+13, r26	; 0x0d
    36cc:	be 87       	std	Y+14, r27	; 0x0e
 */
void
_delay_ms(double __ms)
{
	uint16_t __ticks;
	double __tmp = ((F_CPU) / 4e3) * __ms;
    36ce:	6b 85       	ldd	r22, Y+11	; 0x0b
    36d0:	7c 85       	ldd	r23, Y+12	; 0x0c
    36d2:	8d 85       	ldd	r24, Y+13	; 0x0d
    36d4:	9e 85       	ldd	r25, Y+14	; 0x0e
    36d6:	20 e0       	ldi	r18, 0x00	; 0
    36d8:	30 e0       	ldi	r19, 0x00	; 0
    36da:	4a ef       	ldi	r20, 0xFA	; 250
    36dc:	54 e4       	ldi	r21, 0x44	; 68
    36de:	0e 94 1f 02 	call	0x43e	; 0x43e <__mulsf3>
    36e2:	dc 01       	movw	r26, r24
    36e4:	cb 01       	movw	r24, r22
    36e6:	8f 83       	std	Y+7, r24	; 0x07
    36e8:	98 87       	std	Y+8, r25	; 0x08
    36ea:	a9 87       	std	Y+9, r26	; 0x09
    36ec:	ba 87       	std	Y+10, r27	; 0x0a
	if (__tmp < 1.0)
    36ee:	6f 81       	ldd	r22, Y+7	; 0x07
    36f0:	78 85       	ldd	r23, Y+8	; 0x08
    36f2:	89 85       	ldd	r24, Y+9	; 0x09
    36f4:	9a 85       	ldd	r25, Y+10	; 0x0a
    36f6:	20 e0       	ldi	r18, 0x00	; 0
    36f8:	30 e0       	ldi	r19, 0x00	; 0
    36fa:	40 e8       	ldi	r20, 0x80	; 128
    36fc:	5f e3       	ldi	r21, 0x3F	; 63
    36fe:	0e 94 25 04 	call	0x84a	; 0x84a <__ltsf2>
    3702:	88 23       	and	r24, r24
    3704:	2c f4       	brge	.+10     	; 0x3710 <KEYPAD_u8GetPressed_V2+0x33c>
		__ticks = 1;
    3706:	81 e0       	ldi	r24, 0x01	; 1
    3708:	90 e0       	ldi	r25, 0x00	; 0
    370a:	9e 83       	std	Y+6, r25	; 0x06
    370c:	8d 83       	std	Y+5, r24	; 0x05
    370e:	3f c0       	rjmp	.+126    	; 0x378e <KEYPAD_u8GetPressed_V2+0x3ba>
	else if (__tmp > 65535)
    3710:	6f 81       	ldd	r22, Y+7	; 0x07
    3712:	78 85       	ldd	r23, Y+8	; 0x08
    3714:	89 85       	ldd	r24, Y+9	; 0x09
    3716:	9a 85       	ldd	r25, Y+10	; 0x0a
    3718:	20 e0       	ldi	r18, 0x00	; 0
    371a:	3f ef       	ldi	r19, 0xFF	; 255
    371c:	4f e7       	ldi	r20, 0x7F	; 127
    371e:	57 e4       	ldi	r21, 0x47	; 71
    3720:	0e 94 c5 03 	call	0x78a	; 0x78a <__gtsf2>
    3724:	18 16       	cp	r1, r24
    3726:	4c f5       	brge	.+82     	; 0x377a <KEYPAD_u8GetPressed_V2+0x3a6>
	{
		//	__ticks = requested delay in 1/10 ms
		__ticks = (uint16_t) (__ms * 10.0);
    3728:	6b 85       	ldd	r22, Y+11	; 0x0b
    372a:	7c 85       	ldd	r23, Y+12	; 0x0c
    372c:	8d 85       	ldd	r24, Y+13	; 0x0d
    372e:	9e 85       	ldd	r25, Y+14	; 0x0e
    3730:	20 e0       	ldi	r18, 0x00	; 0
    3732:	30 e0       	ldi	r19, 0x00	; 0
    3734:	40 e2       	ldi	r20, 0x20	; 32
    3736:	51 e4       	ldi	r21, 0x41	; 65
    3738:	0e 94 1f 02 	call	0x43e	; 0x43e <__mulsf3>
    373c:	dc 01       	movw	r26, r24
    373e:	cb 01       	movw	r24, r22
    3740:	bc 01       	movw	r22, r24
    3742:	cd 01       	movw	r24, r26
    3744:	0e 94 49 00 	call	0x92	; 0x92 <__fixunssfsi>
    3748:	dc 01       	movw	r26, r24
    374a:	cb 01       	movw	r24, r22
    374c:	9e 83       	std	Y+6, r25	; 0x06
    374e:	8d 83       	std	Y+5, r24	; 0x05
    3750:	0f c0       	rjmp	.+30     	; 0x3770 <KEYPAD_u8GetPressed_V2+0x39c>
    3752:	88 ec       	ldi	r24, 0xC8	; 200
    3754:	90 e0       	ldi	r25, 0x00	; 0
    3756:	9c 83       	std	Y+4, r25	; 0x04
    3758:	8b 83       	std	Y+3, r24	; 0x03
    375a:	8b 81       	ldd	r24, Y+3	; 0x03
    375c:	9c 81       	ldd	r25, Y+4	; 0x04
    375e:	01 97       	sbiw	r24, 0x01	; 1
    3760:	f1 f7       	brne	.-4      	; 0x375e <KEYPAD_u8GetPressed_V2+0x38a>
    3762:	9c 83       	std	Y+4, r25	; 0x04
    3764:	8b 83       	std	Y+3, r24	; 0x03
		while(__ticks)
		{
			// wait 1/10 ms
			_delay_loop_2(((F_CPU) / 4e3) / 10);
			__ticks --;
    3766:	8d 81       	ldd	r24, Y+5	; 0x05
    3768:	9e 81       	ldd	r25, Y+6	; 0x06
    376a:	01 97       	sbiw	r24, 0x01	; 1
    376c:	9e 83       	std	Y+6, r25	; 0x06
    376e:	8d 83       	std	Y+5, r24	; 0x05
		__ticks = 1;
	else if (__tmp > 65535)
	{
		//	__ticks = requested delay in 1/10 ms
		__ticks = (uint16_t) (__ms * 10.0);
		while(__ticks)
    3770:	8d 81       	ldd	r24, Y+5	; 0x05
    3772:	9e 81       	ldd	r25, Y+6	; 0x06
    3774:	00 97       	sbiw	r24, 0x00	; 0
    3776:	69 f7       	brne	.-38     	; 0x3752 <KEYPAD_u8GetPressed_V2+0x37e>
    3778:	14 c0       	rjmp	.+40     	; 0x37a2 <KEYPAD_u8GetPressed_V2+0x3ce>
			__ticks --;
		}
		return;
	}
	else
		__ticks = (uint16_t)__tmp;
    377a:	6f 81       	ldd	r22, Y+7	; 0x07
    377c:	78 85       	ldd	r23, Y+8	; 0x08
    377e:	89 85       	ldd	r24, Y+9	; 0x09
    3780:	9a 85       	ldd	r25, Y+10	; 0x0a
    3782:	0e 94 49 00 	call	0x92	; 0x92 <__fixunssfsi>
    3786:	dc 01       	movw	r26, r24
    3788:	cb 01       	movw	r24, r22
    378a:	9e 83       	std	Y+6, r25	; 0x06
    378c:	8d 83       	std	Y+5, r24	; 0x05
    378e:	8d 81       	ldd	r24, Y+5	; 0x05
    3790:	9e 81       	ldd	r25, Y+6	; 0x06
    3792:	9a 83       	std	Y+2, r25	; 0x02
    3794:	89 83       	std	Y+1, r24	; 0x01
    3796:	89 81       	ldd	r24, Y+1	; 0x01
    3798:	9a 81       	ldd	r25, Y+2	; 0x02
    379a:	01 97       	sbiw	r24, 0x01	; 1
    379c:	f1 f7       	brne	.-4      	; 0x379a <KEYPAD_u8GetPressed_V2+0x3c6>
    379e:	9a 83       	std	Y+2, r25	; 0x02
    37a0:	89 83       	std	Y+1, r24	; 0x01

	for(local_u8Col = 0; local_u8Col < KEYPAD_NO_COL ;local_u8Col++)
	{
		DIO_s8SETPinVal(KEYPAD_strColPins[local_u8Col].key_pin ,LOW);
		_delay_us(2);
		for(local_u8Row = 0;local_u8Row < KEYPAD_NO_ROW;local_u8Row++)
    37a2:	8d a9       	ldd	r24, Y+53	; 0x35
    37a4:	8f 5f       	subi	r24, 0xFF	; 255
    37a6:	8d ab       	std	Y+53, r24	; 0x35
    37a8:	8d a9       	ldd	r24, Y+53	; 0x35
    37aa:	83 30       	cpi	r24, 0x03	; 3
    37ac:	08 f4       	brcc	.+2      	; 0x37b0 <KEYPAD_u8GetPressed_V2+0x3dc>
    37ae:	e9 ce       	rjmp	.-558    	; 0x3582 <KEYPAD_u8GetPressed_V2+0x1ae>
				//}

				_delay_ms(150);
			}
		}
		DIO_s8SETPinVal(KEYPAD_strColPins[local_u8Col].key_pin ,HIGH);
    37b0:	8e a9       	ldd	r24, Y+54	; 0x36
    37b2:	88 2f       	mov	r24, r24
    37b4:	90 e0       	ldi	r25, 0x00	; 0
    37b6:	fc 01       	movw	r30, r24
    37b8:	e3 5b       	subi	r30, 0xB3	; 179
    37ba:	fd 4f       	sbci	r31, 0xFD	; 253
    37bc:	80 81       	ld	r24, Z
    37be:	61 e0       	ldi	r22, 0x01	; 1
    37c0:	0e 94 46 18 	call	0x308c	; 0x308c <DIO_s8SETPinVal>
	Uint8_t local_u8KeyPressed = NO_KEY_PRESSED;
	Uint8_t local_u8RowStatus;
	Uint8_t local_u8Col;
	Uint8_t local_u8Row;

	for(local_u8Col = 0; local_u8Col < KEYPAD_NO_COL ;local_u8Col++)
    37c4:	8e a9       	ldd	r24, Y+54	; 0x36
    37c6:	8f 5f       	subi	r24, 0xFF	; 255
    37c8:	8e ab       	std	Y+54, r24	; 0x36
    37ca:	8e a9       	ldd	r24, Y+54	; 0x36
    37cc:	83 30       	cpi	r24, 0x03	; 3
    37ce:	08 f4       	brcc	.+2      	; 0x37d2 <KEYPAD_u8GetPressed_V2+0x3fe>
    37d0:	0e ce       	rjmp	.-996    	; 0x33ee <KEYPAD_u8GetPressed_V2+0x1a>
				_delay_ms(150);
			}
		}
		DIO_s8SETPinVal(KEYPAD_strColPins[local_u8Col].key_pin ,HIGH);
	}
	return local_u8KeyPressed ;
    37d2:	8f a9       	ldd	r24, Y+55	; 0x37
}
    37d4:	e8 96       	adiw	r28, 0x38	; 56
    37d6:	0f b6       	in	r0, 0x3f	; 63
    37d8:	f8 94       	cli
    37da:	de bf       	out	0x3e, r29	; 62
    37dc:	0f be       	out	0x3f, r0	; 63
    37de:	cd bf       	out	0x3d, r28	; 61
    37e0:	cf 91       	pop	r28
    37e2:	df 91       	pop	r29
    37e4:	08 95       	ret

000037e6 <HUART_enInit>:
#include "../../MCAL/UART/MUART_Interface.h"
#include "../../MCAL/DIO/DIO_Interface.h"
#include "HUART_Interface.h"

en_huartErrStat_t HUART_enInit(Uint32_t copy_u32BaudRateH)
{
    37e6:	df 93       	push	r29
    37e8:	cf 93       	push	r28
    37ea:	00 d0       	rcall	.+0      	; 0x37ec <HUART_enInit+0x6>
    37ec:	00 d0       	rcall	.+0      	; 0x37ee <HUART_enInit+0x8>
    37ee:	0f 92       	push	r0
    37f0:	cd b7       	in	r28, 0x3d	; 61
    37f2:	de b7       	in	r29, 0x3e	; 62
    37f4:	6a 83       	std	Y+2, r22	; 0x02
    37f6:	7b 83       	std	Y+3, r23	; 0x03
    37f8:	8c 83       	std	Y+4, r24	; 0x04
    37fa:	9d 83       	std	Y+5, r25	; 0x05

	en_huartErrStat_t local_enErrorStatus = HUART_OK;
    37fc:	19 82       	std	Y+1, r1	; 0x01

	local_enErrorStatus = MUART_enInit(copy_u32BaudRateH);
    37fe:	8a 81       	ldd	r24, Y+2	; 0x02
    3800:	9b 81       	ldd	r25, Y+3	; 0x03
    3802:	ac 81       	ldd	r26, Y+4	; 0x04
    3804:	bd 81       	ldd	r27, Y+5	; 0x05
    3806:	bc 01       	movw	r22, r24
    3808:	cd 01       	movw	r24, r26
    380a:	0e 94 4f 0b 	call	0x169e	; 0x169e <MUART_enInit>
    380e:	89 83       	std	Y+1, r24	; 0x01

	return local_enErrorStatus;
    3810:	89 81       	ldd	r24, Y+1	; 0x01
}
    3812:	0f 90       	pop	r0
    3814:	0f 90       	pop	r0
    3816:	0f 90       	pop	r0
    3818:	0f 90       	pop	r0
    381a:	0f 90       	pop	r0
    381c:	cf 91       	pop	r28
    381e:	df 91       	pop	r29
    3820:	08 95       	ret

00003822 <HUART_enSendData>:



en_huartErrStat_t HUART_enSendData(Uint8_t Copy_u8DataH)
{
    3822:	df 93       	push	r29
    3824:	cf 93       	push	r28
    3826:	00 d0       	rcall	.+0      	; 0x3828 <HUART_enSendData+0x6>
    3828:	cd b7       	in	r28, 0x3d	; 61
    382a:	de b7       	in	r29, 0x3e	; 62
    382c:	8a 83       	std	Y+2, r24	; 0x02
	en_huartErrStat_t local_enErrorStatus = HUART_OK;
    382e:	19 82       	std	Y+1, r1	; 0x01

	local_enErrorStatus = MUART_enSendData(Copy_u8DataH);
    3830:	8a 81       	ldd	r24, Y+2	; 0x02
    3832:	0e 94 2a 0c 	call	0x1854	; 0x1854 <MUART_enSendData>
    3836:	89 83       	std	Y+1, r24	; 0x01

	return local_enErrorStatus;
    3838:	89 81       	ldd	r24, Y+1	; 0x01
}
    383a:	0f 90       	pop	r0
    383c:	0f 90       	pop	r0
    383e:	cf 91       	pop	r28
    3840:	df 91       	pop	r29
    3842:	08 95       	ret

00003844 <HUART_enRecieveData>:



en_huartErrStat_t HUART_enRecieveData(Uint8_t* Ref_u8DataH)
{
    3844:	df 93       	push	r29
    3846:	cf 93       	push	r28
    3848:	00 d0       	rcall	.+0      	; 0x384a <HUART_enRecieveData+0x6>
    384a:	0f 92       	push	r0
    384c:	cd b7       	in	r28, 0x3d	; 61
    384e:	de b7       	in	r29, 0x3e	; 62
    3850:	9b 83       	std	Y+3, r25	; 0x03
    3852:	8a 83       	std	Y+2, r24	; 0x02
	en_huartErrStat_t local_enErrorStatus = HUART_OK;
    3854:	19 82       	std	Y+1, r1	; 0x01

	local_enErrorStatus = MUART_enRecieveData(Ref_u8DataH);
    3856:	8a 81       	ldd	r24, Y+2	; 0x02
    3858:	9b 81       	ldd	r25, Y+3	; 0x03
    385a:	0e 94 54 0c 	call	0x18a8	; 0x18a8 <MUART_enRecieveData>
    385e:	89 83       	std	Y+1, r24	; 0x01

	return local_enErrorStatus;
    3860:	89 81       	ldd	r24, Y+1	; 0x01
}
    3862:	0f 90       	pop	r0
    3864:	0f 90       	pop	r0
    3866:	0f 90       	pop	r0
    3868:	cf 91       	pop	r28
    386a:	df 91       	pop	r29
    386c:	08 95       	ret

0000386e <HUART_sendSTRING>:




void HUART_sendSTRING(Uint8_t * Hstr)
{
    386e:	df 93       	push	r29
    3870:	cf 93       	push	r28
    3872:	00 d0       	rcall	.+0      	; 0x3874 <HUART_sendSTRING+0x6>
    3874:	cd b7       	in	r28, 0x3d	; 61
    3876:	de b7       	in	r29, 0x3e	; 62
    3878:	9a 83       	std	Y+2, r25	; 0x02
    387a:	89 83       	std	Y+1, r24	; 0x01
	MUART_sendSTRING(Hstr);
    387c:	89 81       	ldd	r24, Y+1	; 0x01
    387e:	9a 81       	ldd	r25, Y+2	; 0x02
    3880:	0e 94 7f 0c 	call	0x18fe	; 0x18fe <MUART_sendSTRING>
}
    3884:	0f 90       	pop	r0
    3886:	0f 90       	pop	r0
    3888:	cf 91       	pop	r28
    388a:	df 91       	pop	r29
    388c:	08 95       	ret

0000388e <HUART_ClearScreen>:


void HUART_ClearScreen() {
    388e:	df 93       	push	r29
    3890:	cf 93       	push	r28
    3892:	cd b7       	in	r28, 0x3d	; 61
    3894:	de b7       	in	r29, 0x3e	; 62
    // ANSI escape sequence for clearing the screen
	MUART_sendSTRING( (const Uint8_t*) "\033[2J\033[H");  // ESC[2J
    3896:	80 e6       	ldi	r24, 0x60	; 96
    3898:	90 e0       	ldi	r25, 0x00	; 0
    389a:	0e 94 7f 0c 	call	0x18fe	; 0x18fe <MUART_sendSTRING>
}
    389e:	cf 91       	pop	r28
    38a0:	df 91       	pop	r29
    38a2:	08 95       	ret

000038a4 <HUART_receiveSTRING>:


void HUART_receiveSTRING(Uint8_t * Hstr ,Uint8_t Hsize )
{
    38a4:	df 93       	push	r29
    38a6:	cf 93       	push	r28
    38a8:	00 d0       	rcall	.+0      	; 0x38aa <HUART_receiveSTRING+0x6>
    38aa:	0f 92       	push	r0
    38ac:	cd b7       	in	r28, 0x3d	; 61
    38ae:	de b7       	in	r29, 0x3e	; 62
    38b0:	9a 83       	std	Y+2, r25	; 0x02
    38b2:	89 83       	std	Y+1, r24	; 0x01
    38b4:	6b 83       	std	Y+3, r22	; 0x03
	MUART_receiveSTRING(Hstr ,Hsize );
    38b6:	89 81       	ldd	r24, Y+1	; 0x01
    38b8:	9a 81       	ldd	r25, Y+2	; 0x02
    38ba:	6b 81       	ldd	r22, Y+3	; 0x03
    38bc:	0e 94 9b 0c 	call	0x1936	; 0x1936 <MUART_receiveSTRING>
}
    38c0:	0f 90       	pop	r0
    38c2:	0f 90       	pop	r0
    38c4:	0f 90       	pop	r0
    38c6:	cf 91       	pop	r28
    38c8:	df 91       	pop	r29
    38ca:	08 95       	ret

000038cc <HTimer_enInit>:
#endif
/*************************************************************************************************************
 * 							Function Implementation
 ************************************************************************************************************/
enu_HTimerError_t HTimer_enInit(void)
{
    38cc:	df 93       	push	r29
    38ce:	cf 93       	push	r28
    38d0:	0f 92       	push	r0
    38d2:	cd b7       	in	r28, 0x3d	; 61
    38d4:	de b7       	in	r29, 0x3e	; 62
	enu_HTimerError_t errorStatus = TIMER_OK;
    38d6:	81 e0       	ldi	r24, 0x01	; 1
    38d8:	89 83       	std	Y+1, r24	; 0x01

	(void)enuTimer2_init (OVF_MODE);
    38da:	80 e0       	ldi	r24, 0x00	; 0
    38dc:	0e 94 e3 0c 	call	0x19c6	; 0x19c6 <enuTimer2_init>
	(void)u8Timer2_setPrescallar(TIMER_PRE_128);
    38e0:	85 e0       	ldi	r24, 0x05	; 5
    38e2:	0e 94 59 0d 	call	0x1ab2	; 0x1ab2 <u8Timer2_setPrescallar>
	//(void)vidTimer2_OvfIrqEnable();
	(void)vidTimer2_OvfIrqDisable();
    38e6:	0e 94 a3 0d 	call	0x1b46	; 0x1b46 <vidTimer2_OvfIrqDisable>

	return errorStatus;
    38ea:	89 81       	ldd	r24, Y+1	; 0x01

}
    38ec:	0f 90       	pop	r0
    38ee:	cf 91       	pop	r28
    38f0:	df 91       	pop	r29
    38f2:	08 95       	ret

000038f4 <HTimer_vidDelayMs>:
/*************************************************************************************************************/
void HTimer_vidDelayMs( Uint32_t u32_delay )
{
    38f4:	df 93       	push	r29
    38f6:	cf 93       	push	r28
    38f8:	00 d0       	rcall	.+0      	; 0x38fa <HTimer_vidDelayMs+0x6>
    38fa:	00 d0       	rcall	.+0      	; 0x38fc <HTimer_vidDelayMs+0x8>
    38fc:	cd b7       	in	r28, 0x3d	; 61
    38fe:	de b7       	in	r29, 0x3e	; 62
    3900:	69 83       	std	Y+1, r22	; 0x01
    3902:	7a 83       	std	Y+2, r23	; 0x02
    3904:	8b 83       	std	Y+3, r24	; 0x03
    3906:	9c 83       	std	Y+4, r25	; 0x04
	(void)u8Timer2_setTime_ms(u32_delay);
    3908:	89 81       	ldd	r24, Y+1	; 0x01
    390a:	9a 81       	ldd	r25, Y+2	; 0x02
    390c:	ab 81       	ldd	r26, Y+3	; 0x03
    390e:	bc 81       	ldd	r27, Y+4	; 0x04
    3910:	bc 01       	movw	r22, r24
    3912:	cd 01       	movw	r24, r26
    3914:	0e 94 e3 0d 	call	0x1bc6	; 0x1bc6 <u8Timer2_setTime_ms>
	(void)vidTimer2_start();
    3918:	0e 94 b6 0d 	call	0x1b6c	; 0x1b6c <vidTimer2_start>
	MTIMER2_vidSynch();
    391c:	0e 94 ad 0e 	call	0x1d5a	; 0x1d5a <MTIMER2_vidSynch>
}
    3920:	0f 90       	pop	r0
    3922:	0f 90       	pop	r0
    3924:	0f 90       	pop	r0
    3926:	0f 90       	pop	r0
    3928:	cf 91       	pop	r28
    392a:	df 91       	pop	r29
    392c:	08 95       	ret

0000392e <HTimer_enStop>:
/*************************************************************************************************************/

enu_HTimerError_t HTimer_enStop(void)
{
    392e:	df 93       	push	r29
    3930:	cf 93       	push	r28
    3932:	0f 92       	push	r0
    3934:	cd b7       	in	r28, 0x3d	; 61
    3936:	de b7       	in	r29, 0x3e	; 62
	enu_HTimerError_t errorStatus;

	errorStatus = vidTimer2_stop();
    3938:	0e 94 ce 0d 	call	0x1b9c	; 0x1b9c <vidTimer2_stop>
    393c:	89 83       	std	Y+1, r24	; 0x01

	return errorStatus;
    393e:	89 81       	ldd	r24, Y+1	; 0x01

}
    3940:	0f 90       	pop	r0
    3942:	cf 91       	pop	r28
    3944:	df 91       	pop	r29
    3946:	08 95       	ret

00003948 <HTimer_enCBF>:
/*************************************************************************************************************/
enu_HTimerError_t HTimer_enCBF(ptr_funcc pFunc)
{
    3948:	df 93       	push	r29
    394a:	cf 93       	push	r28
    394c:	00 d0       	rcall	.+0      	; 0x394e <HTimer_enCBF+0x6>
    394e:	0f 92       	push	r0
    3950:	cd b7       	in	r28, 0x3d	; 61
    3952:	de b7       	in	r29, 0x3e	; 62
    3954:	9b 83       	std	Y+3, r25	; 0x03
    3956:	8a 83       	std	Y+2, r24	; 0x02
	enu_HTimerError_t errorStatus = TIMER_OK;
    3958:	81 e0       	ldi	r24, 0x01	; 1
    395a:	89 83       	std	Y+1, r24	; 0x01

	if(pFunc != NULL)
    395c:	8a 81       	ldd	r24, Y+2	; 0x02
    395e:	9b 81       	ldd	r25, Y+3	; 0x03
    3960:	00 97       	sbiw	r24, 0x00	; 0
    3962:	29 f0       	breq	.+10     	; 0x396e <HTimer_enCBF+0x26>
	{
		vidTimer2_setcbf_OVF(pFunc);
    3964:	8a 81       	ldd	r24, Y+2	; 0x02
    3966:	9b 81       	ldd	r25, Y+3	; 0x03
    3968:	0e 94 d4 0e 	call	0x1da8	; 0x1da8 <vidTimer2_setcbf_OVF>
    396c:	01 c0       	rjmp	.+2      	; 0x3970 <HTimer_enCBF+0x28>

	}else{
		errorStatus = TIMER_NOK;
    396e:	19 82       	std	Y+1, r1	; 0x01
	}
	return errorStatus;
    3970:	89 81       	ldd	r24, Y+1	; 0x01
}
    3972:	0f 90       	pop	r0
    3974:	0f 90       	pop	r0
    3976:	0f 90       	pop	r0
    3978:	cf 91       	pop	r28
    397a:	df 91       	pop	r29
    397c:	08 95       	ret

0000397e <HGPT0_enInit>:
 ************************************************************************************************************/
/*************************************************************************************************************
 * 							Function Prototype
 ************************************************************************************************************/
enu_HTimerError_t HGPT0_enInit(void)
{
    397e:	df 93       	push	r29
    3980:	cf 93       	push	r28
    3982:	0f 92       	push	r0
    3984:	cd b7       	in	r28, 0x3d	; 61
    3986:	de b7       	in	r29, 0x3e	; 62
	enu_HTimerError_t enu_HTimerError = HTIMER_OK;
    3988:	81 e0       	ldi	r24, 0x01	; 1
    398a:	89 83       	std	Y+1, r24	; 0x01
	GPT0_vidOvfInit ();
    398c:	0e 94 fe 0e 	call	0x1dfc	; 0x1dfc <GPT0_vidOvfInit>
	enu_HTimerError &= GPT0_enuSetPrescallar(GPT0_PRE_64);
    3990:	83 e0       	ldi	r24, 0x03	; 3
    3992:	0e 94 16 0f 	call	0x1e2c	; 0x1e2c <GPT0_enuSetPrescallar>
    3996:	98 2f       	mov	r25, r24
    3998:	89 81       	ldd	r24, Y+1	; 0x01
    399a:	89 23       	and	r24, r25
    399c:	89 83       	std	Y+1, r24	; 0x01
	GPT0_vidOvfIrqEnable();
    399e:	0e 94 46 0f 	call	0x1e8c	; 0x1e8c <GPT0_vidOvfIrqEnable>

	return enu_HTimerError;
    39a2:	89 81       	ldd	r24, Y+1	; 0x01
}
    39a4:	0f 90       	pop	r0
    39a6:	cf 91       	pop	r28
    39a8:	df 91       	pop	r29
    39aa:	08 95       	ret

000039ac <HGPT0_vidDelayMs>:


void HGPT0_vidDelayMs( Uint32_t u32_delay )
{
    39ac:	df 93       	push	r29
    39ae:	cf 93       	push	r28
    39b0:	00 d0       	rcall	.+0      	; 0x39b2 <HGPT0_vidDelayMs+0x6>
    39b2:	00 d0       	rcall	.+0      	; 0x39b4 <HGPT0_vidDelayMs+0x8>
    39b4:	cd b7       	in	r28, 0x3d	; 61
    39b6:	de b7       	in	r29, 0x3e	; 62
    39b8:	69 83       	std	Y+1, r22	; 0x01
    39ba:	7a 83       	std	Y+2, r23	; 0x02
    39bc:	8b 83       	std	Y+3, r24	; 0x03
    39be:	9c 83       	std	Y+4, r25	; 0x04
	GPT0_enuSetTime_ms( u32_delay);
    39c0:	89 81       	ldd	r24, Y+1	; 0x01
    39c2:	9a 81       	ldd	r25, Y+2	; 0x02
    39c4:	ab 81       	ldd	r26, Y+3	; 0x03
    39c6:	bc 81       	ldd	r27, Y+4	; 0x04
    39c8:	bc 01       	movw	r22, r24
    39ca:	cd 01       	movw	r24, r26
    39cc:	0e 94 85 0f 	call	0x1f0a	; 0x1f0a <GPT0_enuSetTime_ms>
}
    39d0:	0f 90       	pop	r0
    39d2:	0f 90       	pop	r0
    39d4:	0f 90       	pop	r0
    39d6:	0f 90       	pop	r0
    39d8:	cf 91       	pop	r28
    39da:	df 91       	pop	r29
    39dc:	08 95       	ret

000039de <HGPT0_vidStart>:


void HGPT0_vidStart(void)
{
    39de:	df 93       	push	r29
    39e0:	cf 93       	push	r28
    39e2:	cd b7       	in	r28, 0x3d	; 61
    39e4:	de b7       	in	r29, 0x3e	; 62
	GPT0_vidStart();
    39e6:	0e 94 5b 0f 	call	0x1eb6	; 0x1eb6 <GPT0_vidStart>
}
    39ea:	cf 91       	pop	r28
    39ec:	df 91       	pop	r29
    39ee:	08 95       	ret

000039f0 <HGPT0_vidStop>:


void HGPT0_vidStop(void)
{
    39f0:	df 93       	push	r29
    39f2:	cf 93       	push	r28
    39f4:	cd b7       	in	r28, 0x3d	; 61
    39f6:	de b7       	in	r29, 0x3e	; 62
	GPT0_vidStop();
    39f8:	0e 94 6e 0f 	call	0x1edc	; 0x1edc <GPT0_vidStop>
}
    39fc:	cf 91       	pop	r28
    39fe:	df 91       	pop	r29
    3a00:	08 95       	ret

00003a02 <HGPT0_enCBF>:


enu_HTimerError_t HGPT0_enCBF(ptr_funcc pFunc)
{
    3a02:	df 93       	push	r29
    3a04:	cf 93       	push	r28
    3a06:	00 d0       	rcall	.+0      	; 0x3a08 <HGPT0_enCBF+0x6>
    3a08:	0f 92       	push	r0
    3a0a:	cd b7       	in	r28, 0x3d	; 61
    3a0c:	de b7       	in	r29, 0x3e	; 62
    3a0e:	9b 83       	std	Y+3, r25	; 0x03
    3a10:	8a 83       	std	Y+2, r24	; 0x02
	enu_HTimerError_t errorStatus = TIMER_OK;
    3a12:	81 e0       	ldi	r24, 0x01	; 1
    3a14:	89 83       	std	Y+1, r24	; 0x01

	if(pFunc != NULL)
    3a16:	8a 81       	ldd	r24, Y+2	; 0x02
    3a18:	9b 81       	ldd	r25, Y+3	; 0x03
    3a1a:	00 97       	sbiw	r24, 0x00	; 0
    3a1c:	29 f0       	breq	.+10     	; 0x3a28 <HGPT0_enCBF+0x26>
	{
		GPT0_vidSetCbfOvf(pFunc);
    3a1e:	8a 81       	ldd	r24, Y+2	; 0x02
    3a20:	9b 81       	ldd	r25, Y+3	; 0x03
    3a22:	0e 94 4f 10 	call	0x209e	; 0x209e <GPT0_vidSetCbfOvf>
    3a26:	01 c0       	rjmp	.+2      	; 0x3a2a <HGPT0_enCBF+0x28>

	}else{
		errorStatus = TIMER_NOK;
    3a28:	19 82       	std	Y+1, r1	; 0x01
	}
	return errorStatus;
    3a2a:	89 81       	ldd	r24, Y+1	; 0x01
}
    3a2c:	0f 90       	pop	r0
    3a2e:	0f 90       	pop	r0
    3a30:	0f 90       	pop	r0
    3a32:	cf 91       	pop	r28
    3a34:	df 91       	pop	r29
    3a36:	08 95       	ret

00003a38 <HSPI_enMasterInit>:
#define NULL	(void*)0

en_masterSlave_t g_en_master_slave_sel = SPI_INVALID;

enu_HSPI_status_t HSPI_enMasterInit(enu_spiPrescalar_t copy_enPrecalar)
{
    3a38:	df 93       	push	r29
    3a3a:	cf 93       	push	r28
    3a3c:	00 d0       	rcall	.+0      	; 0x3a3e <HSPI_enMasterInit+0x6>
    3a3e:	cd b7       	in	r28, 0x3d	; 61
    3a40:	de b7       	in	r29, 0x3e	; 62
    3a42:	8a 83       	std	Y+2, r24	; 0x02
	enu_HSPI_status_t HSPI_status = HSPI_OK;
    3a44:	81 e0       	ldi	r24, 0x01	; 1
    3a46:	89 83       	std	Y+1, r24	; 0x01



	(void)DIO_s8SETPinDir (SS_PIN	, OUTPUT);
    3a48:	8c e0       	ldi	r24, 0x0C	; 12
    3a4a:	61 e0       	ldi	r22, 0x01	; 1
    3a4c:	0e 94 d0 17 	call	0x2fa0	; 0x2fa0 <DIO_s8SETPinDir>
	(void)DIO_s8SETPinDir (MOSI_PIN	, OUTPUT);
    3a50:	8d e0       	ldi	r24, 0x0D	; 13
    3a52:	61 e0       	ldi	r22, 0x01	; 1
    3a54:	0e 94 d0 17 	call	0x2fa0	; 0x2fa0 <DIO_s8SETPinDir>
	(void)DIO_s8SETPinDir (MISO_PIN	, INPUT	);
    3a58:	8e e0       	ldi	r24, 0x0E	; 14
    3a5a:	60 e0       	ldi	r22, 0x00	; 0
    3a5c:	0e 94 d0 17 	call	0x2fa0	; 0x2fa0 <DIO_s8SETPinDir>
	(void)DIO_s8SETPinDir (SCK_PIN	, OUTPUT);
    3a60:	8f e0       	ldi	r24, 0x0F	; 15
    3a62:	61 e0       	ldi	r22, 0x01	; 1
    3a64:	0e 94 d0 17 	call	0x2fa0	; 0x2fa0 <DIO_s8SETPinDir>

	(void)DIO_s8SETPinVal (SS_PIN	, HIGH);
    3a68:	8c e0       	ldi	r24, 0x0C	; 12
    3a6a:	61 e0       	ldi	r22, 0x01	; 1
    3a6c:	0e 94 46 18 	call	0x308c	; 0x308c <DIO_s8SETPinVal>

	HSPI_status &= MSPI_enMasterInit(copy_enPrecalar);
    3a70:	8a 81       	ldd	r24, Y+2	; 0x02
    3a72:	0e 94 dd 10 	call	0x21ba	; 0x21ba <MSPI_enMasterInit>
    3a76:	98 2f       	mov	r25, r24
    3a78:	89 81       	ldd	r24, Y+1	; 0x01
    3a7a:	89 23       	and	r24, r25
    3a7c:	89 83       	std	Y+1, r24	; 0x01

	return HSPI_status;
    3a7e:	89 81       	ldd	r24, Y+1	; 0x01
}
    3a80:	0f 90       	pop	r0
    3a82:	0f 90       	pop	r0
    3a84:	cf 91       	pop	r28
    3a86:	df 91       	pop	r29
    3a88:	08 95       	ret

00003a8a <HSPI_enSlaveInit>:



enu_HSPI_status_t HSPI_enSlaveInit(void)
{
    3a8a:	df 93       	push	r29
    3a8c:	cf 93       	push	r28
    3a8e:	0f 92       	push	r0
    3a90:	cd b7       	in	r28, 0x3d	; 61
    3a92:	de b7       	in	r29, 0x3e	; 62
	enu_HSPI_status_t HSPI_status = HSPI_OK;
    3a94:	81 e0       	ldi	r24, 0x01	; 1
    3a96:	89 83       	std	Y+1, r24	; 0x01



	(void)DIO_s8SETPinDir (SS_PIN	, INPUT	);
    3a98:	8c e0       	ldi	r24, 0x0C	; 12
    3a9a:	60 e0       	ldi	r22, 0x00	; 0
    3a9c:	0e 94 d0 17 	call	0x2fa0	; 0x2fa0 <DIO_s8SETPinDir>
	(void)DIO_s8SETPinDir (MOSI_PIN	, INPUT	);
    3aa0:	8d e0       	ldi	r24, 0x0D	; 13
    3aa2:	60 e0       	ldi	r22, 0x00	; 0
    3aa4:	0e 94 d0 17 	call	0x2fa0	; 0x2fa0 <DIO_s8SETPinDir>
	(void)DIO_s8SETPinDir (MISO_PIN	, OUTPUT);
    3aa8:	8e e0       	ldi	r24, 0x0E	; 14
    3aaa:	61 e0       	ldi	r22, 0x01	; 1
    3aac:	0e 94 d0 17 	call	0x2fa0	; 0x2fa0 <DIO_s8SETPinDir>
	(void)DIO_s8SETPinDir (SCK_PIN	, INPUT	);
    3ab0:	8f e0       	ldi	r24, 0x0F	; 15
    3ab2:	60 e0       	ldi	r22, 0x00	; 0
    3ab4:	0e 94 d0 17 	call	0x2fa0	; 0x2fa0 <DIO_s8SETPinDir>

	HSPI_status &= MSPI_enSlaveInit();
    3ab8:	0e 94 06 12 	call	0x240c	; 0x240c <MSPI_enSlaveInit>
    3abc:	98 2f       	mov	r25, r24
    3abe:	89 81       	ldd	r24, Y+1	; 0x01
    3ac0:	89 23       	and	r24, r25
    3ac2:	89 83       	std	Y+1, r24	; 0x01

	return HSPI_status;
    3ac4:	89 81       	ldd	r24, Y+1	; 0x01
}
    3ac6:	0f 90       	pop	r0
    3ac8:	cf 91       	pop	r28
    3aca:	df 91       	pop	r29
    3acc:	08 95       	ret

00003ace <HSPI_vidTransmitChar>:



void HSPI_vidTransmitChar(Uint8_t copy_u8_data)
{
    3ace:	df 93       	push	r29
    3ad0:	cf 93       	push	r28
    3ad2:	0f 92       	push	r0
    3ad4:	cd b7       	in	r28, 0x3d	; 61
    3ad6:	de b7       	in	r29, 0x3e	; 62
    3ad8:	89 83       	std	Y+1, r24	; 0x01
	if (g_en_master_slave_sel == SPI_MASTER)
    3ada:	80 91 53 02 	lds	r24, 0x0253
    3ade:	88 23       	and	r24, r24
    3ae0:	21 f4       	brne	.+8      	; 0x3aea <HSPI_vidTransmitChar+0x1c>
	{
		(void)DIO_s8SETPinVal (SS_PIN	, LOW);
    3ae2:	8c e0       	ldi	r24, 0x0C	; 12
    3ae4:	60 e0       	ldi	r22, 0x00	; 0
    3ae6:	0e 94 46 18 	call	0x308c	; 0x308c <DIO_s8SETPinVal>
	}
	MSPI_vidTransmitChar(copy_u8_data);
    3aea:	89 81       	ldd	r24, Y+1	; 0x01
    3aec:	0e 94 40 12 	call	0x2480	; 0x2480 <MSPI_vidTransmitChar>
}
    3af0:	0f 90       	pop	r0
    3af2:	cf 91       	pop	r28
    3af4:	df 91       	pop	r29
    3af6:	08 95       	ret

00003af8 <HSPI_enReceiveChar>:



enu_HSPI_status_t HSPI_enReceiveChar(Uint8_t* ref_u8_data)
{
    3af8:	df 93       	push	r29
    3afa:	cf 93       	push	r28
    3afc:	00 d0       	rcall	.+0      	; 0x3afe <HSPI_enReceiveChar+0x6>
    3afe:	0f 92       	push	r0
    3b00:	cd b7       	in	r28, 0x3d	; 61
    3b02:	de b7       	in	r29, 0x3e	; 62
    3b04:	9b 83       	std	Y+3, r25	; 0x03
    3b06:	8a 83       	std	Y+2, r24	; 0x02
	enu_HSPI_status_t HSPI_status = HSPI_OK;
    3b08:	81 e0       	ldi	r24, 0x01	; 1
    3b0a:	89 83       	std	Y+1, r24	; 0x01

	HSPI_status &= MSPI_enReceiveChar(ref_u8_data);
    3b0c:	8a 81       	ldd	r24, Y+2	; 0x02
    3b0e:	9b 81       	ldd	r25, Y+3	; 0x03
    3b10:	0e 94 58 12 	call	0x24b0	; 0x24b0 <MSPI_enReceiveChar>
    3b14:	98 2f       	mov	r25, r24
    3b16:	89 81       	ldd	r24, Y+1	; 0x01
    3b18:	89 23       	and	r24, r25
    3b1a:	89 83       	std	Y+1, r24	; 0x01

	return HSPI_status;
    3b1c:	89 81       	ldd	r24, Y+1	; 0x01
}
    3b1e:	0f 90       	pop	r0
    3b20:	0f 90       	pop	r0
    3b22:	0f 90       	pop	r0
    3b24:	cf 91       	pop	r28
    3b26:	df 91       	pop	r29
    3b28:	08 95       	ret

00003b2a <HSPI_vidTransmitString>:




void HSPI_vidTransmitString(const Uint8_t* copy_ref_u8_str)
{
    3b2a:	df 93       	push	r29
    3b2c:	cf 93       	push	r28
    3b2e:	00 d0       	rcall	.+0      	; 0x3b30 <HSPI_vidTransmitString+0x6>
    3b30:	cd b7       	in	r28, 0x3d	; 61
    3b32:	de b7       	in	r29, 0x3e	; 62
    3b34:	9a 83       	std	Y+2, r25	; 0x02
    3b36:	89 83       	std	Y+1, r24	; 0x01
	if (copy_ref_u8_str != NULL)
    3b38:	89 81       	ldd	r24, Y+1	; 0x01
    3b3a:	9a 81       	ldd	r25, Y+2	; 0x02
    3b3c:	00 97       	sbiw	r24, 0x00	; 0
    3b3e:	d9 f0       	breq	.+54     	; 0x3b76 <HSPI_vidTransmitString+0x4c>
    3b40:	12 c0       	rjmp	.+36     	; 0x3b66 <HSPI_vidTransmitString+0x3c>
	{
		while(*copy_ref_u8_str)
		{
			if (g_en_master_slave_sel == SPI_MASTER)
    3b42:	80 91 53 02 	lds	r24, 0x0253
    3b46:	88 23       	and	r24, r24
    3b48:	21 f4       	brne	.+8      	; 0x3b52 <HSPI_vidTransmitString+0x28>
			{
				(void)DIO_s8SETPinVal (SS_PIN	, LOW);
    3b4a:	8c e0       	ldi	r24, 0x0C	; 12
    3b4c:	60 e0       	ldi	r22, 0x00	; 0
    3b4e:	0e 94 46 18 	call	0x308c	; 0x308c <DIO_s8SETPinVal>
			}
			MSPI_vidTransmitChar(*copy_ref_u8_str);
    3b52:	e9 81       	ldd	r30, Y+1	; 0x01
    3b54:	fa 81       	ldd	r31, Y+2	; 0x02
    3b56:	80 81       	ld	r24, Z
    3b58:	0e 94 40 12 	call	0x2480	; 0x2480 <MSPI_vidTransmitChar>
			copy_ref_u8_str++;
    3b5c:	89 81       	ldd	r24, Y+1	; 0x01
    3b5e:	9a 81       	ldd	r25, Y+2	; 0x02
    3b60:	01 96       	adiw	r24, 0x01	; 1
    3b62:	9a 83       	std	Y+2, r25	; 0x02
    3b64:	89 83       	std	Y+1, r24	; 0x01

void HSPI_vidTransmitString(const Uint8_t* copy_ref_u8_str)
{
	if (copy_ref_u8_str != NULL)
	{
		while(*copy_ref_u8_str)
    3b66:	e9 81       	ldd	r30, Y+1	; 0x01
    3b68:	fa 81       	ldd	r31, Y+2	; 0x02
    3b6a:	80 81       	ld	r24, Z
    3b6c:	88 23       	and	r24, r24
    3b6e:	49 f7       	brne	.-46     	; 0x3b42 <HSPI_vidTransmitString+0x18>
			}
			MSPI_vidTransmitChar(*copy_ref_u8_str);
			copy_ref_u8_str++;
		}

		MSPI_vidTransmitChar('\0');
    3b70:	80 e0       	ldi	r24, 0x00	; 0
    3b72:	0e 94 40 12 	call	0x2480	; 0x2480 <MSPI_vidTransmitChar>
	}
}
    3b76:	0f 90       	pop	r0
    3b78:	0f 90       	pop	r0
    3b7a:	cf 91       	pop	r28
    3b7c:	df 91       	pop	r29
    3b7e:	08 95       	ret

00003b80 <HSPI_enReceiveString>:




enu_HSPI_status_t HSPI_enReceiveString(Uint8_t* ref_u8_buffer, Uint8_t length)
{
    3b80:	df 93       	push	r29
    3b82:	cf 93       	push	r28
    3b84:	cd b7       	in	r28, 0x3d	; 61
    3b86:	de b7       	in	r29, 0x3e	; 62
    3b88:	28 97       	sbiw	r28, 0x08	; 8
    3b8a:	0f b6       	in	r0, 0x3f	; 63
    3b8c:	f8 94       	cli
    3b8e:	de bf       	out	0x3e, r29	; 62
    3b90:	0f be       	out	0x3f, r0	; 63
    3b92:	cd bf       	out	0x3d, r28	; 61
    3b94:	9f 83       	std	Y+7, r25	; 0x07
    3b96:	8e 83       	std	Y+6, r24	; 0x06
    3b98:	68 87       	std	Y+8, r22	; 0x08
	enu_HSPI_status_t HSPI_status = HSPI_OK;
    3b9a:	81 e0       	ldi	r24, 0x01	; 1
    3b9c:	8d 83       	std	Y+5, r24	; 0x05
	Uint32_t buffer_index = 0 ;
    3b9e:	19 82       	std	Y+1, r1	; 0x01
    3ba0:	1a 82       	std	Y+2, r1	; 0x02
    3ba2:	1b 82       	std	Y+3, r1	; 0x03
    3ba4:	1c 82       	std	Y+4, r1	; 0x04

	if (ref_u8_buffer != NULL && length > 0)
    3ba6:	8e 81       	ldd	r24, Y+6	; 0x06
    3ba8:	9f 81       	ldd	r25, Y+7	; 0x07
    3baa:	00 97       	sbiw	r24, 0x00	; 0
    3bac:	09 f4       	brne	.+2      	; 0x3bb0 <HSPI_enReceiveString+0x30>
    3bae:	4d c0       	rjmp	.+154    	; 0x3c4a <HSPI_enReceiveString+0xca>
    3bb0:	88 85       	ldd	r24, Y+8	; 0x08
    3bb2:	88 23       	and	r24, r24
    3bb4:	09 f4       	brne	.+2      	; 0x3bb8 <HSPI_enReceiveString+0x38>
    3bb6:	49 c0       	rjmp	.+146    	; 0x3c4a <HSPI_enReceiveString+0xca>
	{

		for (buffer_index = 0; buffer_index < length ; buffer_index++)
    3bb8:	19 82       	std	Y+1, r1	; 0x01
    3bba:	1a 82       	std	Y+2, r1	; 0x02
    3bbc:	1b 82       	std	Y+3, r1	; 0x03
    3bbe:	1c 82       	std	Y+4, r1	; 0x04
    3bc0:	2d c0       	rjmp	.+90     	; 0x3c1c <HSPI_enReceiveString+0x9c>
		{
			HSPI_status &= MSPI_enReceiveChar(&ref_u8_buffer[buffer_index]);
    3bc2:	29 81       	ldd	r18, Y+1	; 0x01
    3bc4:	3a 81       	ldd	r19, Y+2	; 0x02
    3bc6:	8e 81       	ldd	r24, Y+6	; 0x06
    3bc8:	9f 81       	ldd	r25, Y+7	; 0x07
    3bca:	82 0f       	add	r24, r18
    3bcc:	93 1f       	adc	r25, r19
    3bce:	0e 94 58 12 	call	0x24b0	; 0x24b0 <MSPI_enReceiveChar>
    3bd2:	98 2f       	mov	r25, r24
    3bd4:	8d 81       	ldd	r24, Y+5	; 0x05
    3bd6:	89 23       	and	r24, r25
    3bd8:	8d 83       	std	Y+5, r24	; 0x05

			if (ref_u8_buffer[buffer_index] == '\0')
    3bda:	29 81       	ldd	r18, Y+1	; 0x01
    3bdc:	3a 81       	ldd	r19, Y+2	; 0x02
    3bde:	8e 81       	ldd	r24, Y+6	; 0x06
    3be0:	9f 81       	ldd	r25, Y+7	; 0x07
    3be2:	fc 01       	movw	r30, r24
    3be4:	e2 0f       	add	r30, r18
    3be6:	f3 1f       	adc	r31, r19
    3be8:	80 81       	ld	r24, Z
    3bea:	88 23       	and	r24, r24
    3bec:	61 f4       	brne	.+24     	; 0x3c06 <HSPI_enReceiveString+0x86>
			{
				buffer_index = length + 1;
    3bee:	88 85       	ldd	r24, Y+8	; 0x08
    3bf0:	88 2f       	mov	r24, r24
    3bf2:	90 e0       	ldi	r25, 0x00	; 0
    3bf4:	01 96       	adiw	r24, 0x01	; 1
    3bf6:	aa 27       	eor	r26, r26
    3bf8:	97 fd       	sbrc	r25, 7
    3bfa:	a0 95       	com	r26
    3bfc:	ba 2f       	mov	r27, r26
    3bfe:	89 83       	std	Y+1, r24	; 0x01
    3c00:	9a 83       	std	Y+2, r25	; 0x02
    3c02:	ab 83       	std	Y+3, r26	; 0x03
    3c04:	bc 83       	std	Y+4, r27	; 0x04
	Uint32_t buffer_index = 0 ;

	if (ref_u8_buffer != NULL && length > 0)
	{

		for (buffer_index = 0; buffer_index < length ; buffer_index++)
    3c06:	89 81       	ldd	r24, Y+1	; 0x01
    3c08:	9a 81       	ldd	r25, Y+2	; 0x02
    3c0a:	ab 81       	ldd	r26, Y+3	; 0x03
    3c0c:	bc 81       	ldd	r27, Y+4	; 0x04
    3c0e:	01 96       	adiw	r24, 0x01	; 1
    3c10:	a1 1d       	adc	r26, r1
    3c12:	b1 1d       	adc	r27, r1
    3c14:	89 83       	std	Y+1, r24	; 0x01
    3c16:	9a 83       	std	Y+2, r25	; 0x02
    3c18:	ab 83       	std	Y+3, r26	; 0x03
    3c1a:	bc 83       	std	Y+4, r27	; 0x04
    3c1c:	88 85       	ldd	r24, Y+8	; 0x08
    3c1e:	28 2f       	mov	r18, r24
    3c20:	30 e0       	ldi	r19, 0x00	; 0
    3c22:	40 e0       	ldi	r20, 0x00	; 0
    3c24:	50 e0       	ldi	r21, 0x00	; 0
    3c26:	89 81       	ldd	r24, Y+1	; 0x01
    3c28:	9a 81       	ldd	r25, Y+2	; 0x02
    3c2a:	ab 81       	ldd	r26, Y+3	; 0x03
    3c2c:	bc 81       	ldd	r27, Y+4	; 0x04
    3c2e:	82 17       	cp	r24, r18
    3c30:	93 07       	cpc	r25, r19
    3c32:	a4 07       	cpc	r26, r20
    3c34:	b5 07       	cpc	r27, r21
    3c36:	28 f2       	brcs	.-118    	; 0x3bc2 <HSPI_enReceiveString+0x42>
			{
				buffer_index = length + 1;
			}
		}

		ref_u8_buffer[buffer_index] = '\0';
    3c38:	89 81       	ldd	r24, Y+1	; 0x01
    3c3a:	9a 81       	ldd	r25, Y+2	; 0x02
    3c3c:	2e 81       	ldd	r18, Y+6	; 0x06
    3c3e:	3f 81       	ldd	r19, Y+7	; 0x07
    3c40:	f9 01       	movw	r30, r18
    3c42:	e8 0f       	add	r30, r24
    3c44:	f9 1f       	adc	r31, r25
    3c46:	10 82       	st	Z, r1
    3c48:	01 c0       	rjmp	.+2      	; 0x3c4c <HSPI_enReceiveString+0xcc>

//		HSPI_status &= MSPI_enReceiveString(ref_u8_buffer, length);
	}
	else
	{
	   HSPI_status = HSPI_NOK;
    3c4a:	1d 82       	std	Y+5, r1	; 0x05
	}
	return HSPI_status;
    3c4c:	8d 81       	ldd	r24, Y+5	; 0x05
}
    3c4e:	28 96       	adiw	r28, 0x08	; 8
    3c50:	0f b6       	in	r0, 0x3f	; 63
    3c52:	f8 94       	cli
    3c54:	de bf       	out	0x3e, r29	; 62
    3c56:	0f be       	out	0x3f, r0	; 63
    3c58:	cd bf       	out	0x3d, r28	; 61
    3c5a:	cf 91       	pop	r28
    3c5c:	df 91       	pop	r29
    3c5e:	08 95       	ret

00003c60 <HLCD_vidInit>:
 * description 	: func to set LCD initialization
 * input param 	: void
 * return		: void
 **/
void HLCD_vidInit(void)
{
    3c60:	0f 93       	push	r16
    3c62:	1f 93       	push	r17
    3c64:	df 93       	push	r29
    3c66:	cf 93       	push	r28
    3c68:	cd b7       	in	r28, 0x3d	; 61
    3c6a:	de b7       	in	r29, 0x3e	; 62
    3c6c:	c5 55       	subi	r28, 0x55	; 85
    3c6e:	d0 40       	sbci	r29, 0x00	; 0
    3c70:	0f b6       	in	r0, 0x3f	; 63
    3c72:	f8 94       	cli
    3c74:	de bf       	out	0x3e, r29	; 62
    3c76:	0f be       	out	0x3f, r0	; 63
    3c78:	cd bf       	out	0x3d, r28	; 61
	for (Uint8_t i = 0; i < DATA_PIN_NUMBER; i++)
    3c7a:	fe 01       	movw	r30, r28
    3c7c:	eb 5a       	subi	r30, 0xAB	; 171
    3c7e:	ff 4f       	sbci	r31, 0xFF	; 255
    3c80:	10 82       	st	Z, r1
    3c82:	16 c0       	rjmp	.+44     	; 0x3cb0 <HLCD_vidInit+0x50>
	{
		DIO_s8SETPinDir(dataPin[i].en_dataPin,OUTPUT);
    3c84:	fe 01       	movw	r30, r28
    3c86:	eb 5a       	subi	r30, 0xAB	; 171
    3c88:	ff 4f       	sbci	r31, 0xFF	; 255
    3c8a:	80 81       	ld	r24, Z
    3c8c:	88 2f       	mov	r24, r24
    3c8e:	90 e0       	ldi	r25, 0x00	; 0
    3c90:	fc 01       	movw	r30, r24
    3c92:	ec 5a       	subi	r30, 0xAC	; 172
    3c94:	fd 4f       	sbci	r31, 0xFD	; 253
    3c96:	80 81       	ld	r24, Z
    3c98:	61 e0       	ldi	r22, 0x01	; 1
    3c9a:	0e 94 d0 17 	call	0x2fa0	; 0x2fa0 <DIO_s8SETPinDir>
 * input param 	: void
 * return		: void
 **/
void HLCD_vidInit(void)
{
	for (Uint8_t i = 0; i < DATA_PIN_NUMBER; i++)
    3c9e:	de 01       	movw	r26, r28
    3ca0:	ab 5a       	subi	r26, 0xAB	; 171
    3ca2:	bf 4f       	sbci	r27, 0xFF	; 255
    3ca4:	fe 01       	movw	r30, r28
    3ca6:	eb 5a       	subi	r30, 0xAB	; 171
    3ca8:	ff 4f       	sbci	r31, 0xFF	; 255
    3caa:	80 81       	ld	r24, Z
    3cac:	8f 5f       	subi	r24, 0xFF	; 255
    3cae:	8c 93       	st	X, r24
    3cb0:	fe 01       	movw	r30, r28
    3cb2:	eb 5a       	subi	r30, 0xAB	; 171
    3cb4:	ff 4f       	sbci	r31, 0xFF	; 255
    3cb6:	80 81       	ld	r24, Z
    3cb8:	84 30       	cpi	r24, 0x04	; 4
    3cba:	20 f3       	brcs	.-56     	; 0x3c84 <HLCD_vidInit+0x24>
	{
		DIO_s8SETPinDir(dataPin[i].en_dataPin,OUTPUT);
	}

	DIO_s8SETPinDir(LCD_RS_PORT_PIN,OUTPUT);
    3cbc:	81 e0       	ldi	r24, 0x01	; 1
    3cbe:	61 e0       	ldi	r22, 0x01	; 1
    3cc0:	0e 94 d0 17 	call	0x2fa0	; 0x2fa0 <DIO_s8SETPinDir>
	DIO_s8SETPinDir(LCD_RW_PORT_PIN,OUTPUT);
    3cc4:	82 e0       	ldi	r24, 0x02	; 2
    3cc6:	61 e0       	ldi	r22, 0x01	; 1
    3cc8:	0e 94 d0 17 	call	0x2fa0	; 0x2fa0 <DIO_s8SETPinDir>
	DIO_s8SETPinDir(LCD_EN_PORT_PIN,OUTPUT);
    3ccc:	83 e0       	ldi	r24, 0x03	; 3
    3cce:	61 e0       	ldi	r22, 0x01	; 1
    3cd0:	0e 94 d0 17 	call	0x2fa0	; 0x2fa0 <DIO_s8SETPinDir>
    3cd4:	fe 01       	movw	r30, r28
    3cd6:	ef 5a       	subi	r30, 0xAF	; 175
    3cd8:	ff 4f       	sbci	r31, 0xFF	; 255
    3cda:	80 e0       	ldi	r24, 0x00	; 0
    3cdc:	90 e0       	ldi	r25, 0x00	; 0
    3cde:	a0 e2       	ldi	r26, 0x20	; 32
    3ce0:	b2 e4       	ldi	r27, 0x42	; 66
    3ce2:	80 83       	st	Z, r24
    3ce4:	91 83       	std	Z+1, r25	; 0x01
    3ce6:	a2 83       	std	Z+2, r26	; 0x02
    3ce8:	b3 83       	std	Z+3, r27	; 0x03
 */
void
_delay_ms(double __ms)
{
	uint16_t __ticks;
	double __tmp = ((F_CPU) / 4e3) * __ms;
    3cea:	8e 01       	movw	r16, r28
    3cec:	03 5b       	subi	r16, 0xB3	; 179
    3cee:	1f 4f       	sbci	r17, 0xFF	; 255
    3cf0:	fe 01       	movw	r30, r28
    3cf2:	ef 5a       	subi	r30, 0xAF	; 175
    3cf4:	ff 4f       	sbci	r31, 0xFF	; 255
    3cf6:	60 81       	ld	r22, Z
    3cf8:	71 81       	ldd	r23, Z+1	; 0x01
    3cfa:	82 81       	ldd	r24, Z+2	; 0x02
    3cfc:	93 81       	ldd	r25, Z+3	; 0x03
    3cfe:	20 e0       	ldi	r18, 0x00	; 0
    3d00:	30 e0       	ldi	r19, 0x00	; 0
    3d02:	4a ef       	ldi	r20, 0xFA	; 250
    3d04:	54 e4       	ldi	r21, 0x44	; 68
    3d06:	0e 94 1f 02 	call	0x43e	; 0x43e <__mulsf3>
    3d0a:	dc 01       	movw	r26, r24
    3d0c:	cb 01       	movw	r24, r22
    3d0e:	f8 01       	movw	r30, r16
    3d10:	80 83       	st	Z, r24
    3d12:	91 83       	std	Z+1, r25	; 0x01
    3d14:	a2 83       	std	Z+2, r26	; 0x02
    3d16:	b3 83       	std	Z+3, r27	; 0x03
	if (__tmp < 1.0)
    3d18:	fe 01       	movw	r30, r28
    3d1a:	e3 5b       	subi	r30, 0xB3	; 179
    3d1c:	ff 4f       	sbci	r31, 0xFF	; 255
    3d1e:	60 81       	ld	r22, Z
    3d20:	71 81       	ldd	r23, Z+1	; 0x01
    3d22:	82 81       	ldd	r24, Z+2	; 0x02
    3d24:	93 81       	ldd	r25, Z+3	; 0x03
    3d26:	20 e0       	ldi	r18, 0x00	; 0
    3d28:	30 e0       	ldi	r19, 0x00	; 0
    3d2a:	40 e8       	ldi	r20, 0x80	; 128
    3d2c:	5f e3       	ldi	r21, 0x3F	; 63
    3d2e:	0e 94 25 04 	call	0x84a	; 0x84a <__ltsf2>
    3d32:	88 23       	and	r24, r24
    3d34:	44 f4       	brge	.+16     	; 0x3d46 <HLCD_vidInit+0xe6>
		__ticks = 1;
    3d36:	fe 01       	movw	r30, r28
    3d38:	e5 5b       	subi	r30, 0xB5	; 181
    3d3a:	ff 4f       	sbci	r31, 0xFF	; 255
    3d3c:	81 e0       	ldi	r24, 0x01	; 1
    3d3e:	90 e0       	ldi	r25, 0x00	; 0
    3d40:	91 83       	std	Z+1, r25	; 0x01
    3d42:	80 83       	st	Z, r24
    3d44:	64 c0       	rjmp	.+200    	; 0x3e0e <HLCD_vidInit+0x1ae>
	else if (__tmp > 65535)
    3d46:	fe 01       	movw	r30, r28
    3d48:	e3 5b       	subi	r30, 0xB3	; 179
    3d4a:	ff 4f       	sbci	r31, 0xFF	; 255
    3d4c:	60 81       	ld	r22, Z
    3d4e:	71 81       	ldd	r23, Z+1	; 0x01
    3d50:	82 81       	ldd	r24, Z+2	; 0x02
    3d52:	93 81       	ldd	r25, Z+3	; 0x03
    3d54:	20 e0       	ldi	r18, 0x00	; 0
    3d56:	3f ef       	ldi	r19, 0xFF	; 255
    3d58:	4f e7       	ldi	r20, 0x7F	; 127
    3d5a:	57 e4       	ldi	r21, 0x47	; 71
    3d5c:	0e 94 c5 03 	call	0x78a	; 0x78a <__gtsf2>
    3d60:	18 16       	cp	r1, r24
    3d62:	0c f0       	brlt	.+2      	; 0x3d66 <HLCD_vidInit+0x106>
    3d64:	43 c0       	rjmp	.+134    	; 0x3dec <HLCD_vidInit+0x18c>
	{
		//	__ticks = requested delay in 1/10 ms
		__ticks = (uint16_t) (__ms * 10.0);
    3d66:	fe 01       	movw	r30, r28
    3d68:	ef 5a       	subi	r30, 0xAF	; 175
    3d6a:	ff 4f       	sbci	r31, 0xFF	; 255
    3d6c:	60 81       	ld	r22, Z
    3d6e:	71 81       	ldd	r23, Z+1	; 0x01
    3d70:	82 81       	ldd	r24, Z+2	; 0x02
    3d72:	93 81       	ldd	r25, Z+3	; 0x03
    3d74:	20 e0       	ldi	r18, 0x00	; 0
    3d76:	30 e0       	ldi	r19, 0x00	; 0
    3d78:	40 e2       	ldi	r20, 0x20	; 32
    3d7a:	51 e4       	ldi	r21, 0x41	; 65
    3d7c:	0e 94 1f 02 	call	0x43e	; 0x43e <__mulsf3>
    3d80:	dc 01       	movw	r26, r24
    3d82:	cb 01       	movw	r24, r22
    3d84:	8e 01       	movw	r16, r28
    3d86:	05 5b       	subi	r16, 0xB5	; 181
    3d88:	1f 4f       	sbci	r17, 0xFF	; 255
    3d8a:	bc 01       	movw	r22, r24
    3d8c:	cd 01       	movw	r24, r26
    3d8e:	0e 94 49 00 	call	0x92	; 0x92 <__fixunssfsi>
    3d92:	dc 01       	movw	r26, r24
    3d94:	cb 01       	movw	r24, r22
    3d96:	f8 01       	movw	r30, r16
    3d98:	91 83       	std	Z+1, r25	; 0x01
    3d9a:	80 83       	st	Z, r24
    3d9c:	1f c0       	rjmp	.+62     	; 0x3ddc <HLCD_vidInit+0x17c>
    3d9e:	fe 01       	movw	r30, r28
    3da0:	e7 5b       	subi	r30, 0xB7	; 183
    3da2:	ff 4f       	sbci	r31, 0xFF	; 255
    3da4:	88 ec       	ldi	r24, 0xC8	; 200
    3da6:	90 e0       	ldi	r25, 0x00	; 0
    3da8:	91 83       	std	Z+1, r25	; 0x01
    3daa:	80 83       	st	Z, r24
    3dac:	fe 01       	movw	r30, r28
    3dae:	e7 5b       	subi	r30, 0xB7	; 183
    3db0:	ff 4f       	sbci	r31, 0xFF	; 255
    3db2:	80 81       	ld	r24, Z
    3db4:	91 81       	ldd	r25, Z+1	; 0x01
    3db6:	01 97       	sbiw	r24, 0x01	; 1
    3db8:	f1 f7       	brne	.-4      	; 0x3db6 <HLCD_vidInit+0x156>
    3dba:	fe 01       	movw	r30, r28
    3dbc:	e7 5b       	subi	r30, 0xB7	; 183
    3dbe:	ff 4f       	sbci	r31, 0xFF	; 255
    3dc0:	91 83       	std	Z+1, r25	; 0x01
    3dc2:	80 83       	st	Z, r24
		while(__ticks)
		{
			// wait 1/10 ms
			_delay_loop_2(((F_CPU) / 4e3) / 10);
			__ticks --;
    3dc4:	de 01       	movw	r26, r28
    3dc6:	a5 5b       	subi	r26, 0xB5	; 181
    3dc8:	bf 4f       	sbci	r27, 0xFF	; 255
    3dca:	fe 01       	movw	r30, r28
    3dcc:	e5 5b       	subi	r30, 0xB5	; 181
    3dce:	ff 4f       	sbci	r31, 0xFF	; 255
    3dd0:	80 81       	ld	r24, Z
    3dd2:	91 81       	ldd	r25, Z+1	; 0x01
    3dd4:	01 97       	sbiw	r24, 0x01	; 1
    3dd6:	11 96       	adiw	r26, 0x01	; 1
    3dd8:	9c 93       	st	X, r25
    3dda:	8e 93       	st	-X, r24
		__ticks = 1;
	else if (__tmp > 65535)
	{
		//	__ticks = requested delay in 1/10 ms
		__ticks = (uint16_t) (__ms * 10.0);
		while(__ticks)
    3ddc:	fe 01       	movw	r30, r28
    3dde:	e5 5b       	subi	r30, 0xB5	; 181
    3de0:	ff 4f       	sbci	r31, 0xFF	; 255
    3de2:	80 81       	ld	r24, Z
    3de4:	91 81       	ldd	r25, Z+1	; 0x01
    3de6:	00 97       	sbiw	r24, 0x00	; 0
    3de8:	d1 f6       	brne	.-76     	; 0x3d9e <HLCD_vidInit+0x13e>
    3dea:	27 c0       	rjmp	.+78     	; 0x3e3a <HLCD_vidInit+0x1da>
			__ticks --;
		}
		return;
	}
	else
		__ticks = (uint16_t)__tmp;
    3dec:	8e 01       	movw	r16, r28
    3dee:	05 5b       	subi	r16, 0xB5	; 181
    3df0:	1f 4f       	sbci	r17, 0xFF	; 255
    3df2:	fe 01       	movw	r30, r28
    3df4:	e3 5b       	subi	r30, 0xB3	; 179
    3df6:	ff 4f       	sbci	r31, 0xFF	; 255
    3df8:	60 81       	ld	r22, Z
    3dfa:	71 81       	ldd	r23, Z+1	; 0x01
    3dfc:	82 81       	ldd	r24, Z+2	; 0x02
    3dfe:	93 81       	ldd	r25, Z+3	; 0x03
    3e00:	0e 94 49 00 	call	0x92	; 0x92 <__fixunssfsi>
    3e04:	dc 01       	movw	r26, r24
    3e06:	cb 01       	movw	r24, r22
    3e08:	f8 01       	movw	r30, r16
    3e0a:	91 83       	std	Z+1, r25	; 0x01
    3e0c:	80 83       	st	Z, r24
    3e0e:	de 01       	movw	r26, r28
    3e10:	a9 5b       	subi	r26, 0xB9	; 185
    3e12:	bf 4f       	sbci	r27, 0xFF	; 255
    3e14:	fe 01       	movw	r30, r28
    3e16:	e5 5b       	subi	r30, 0xB5	; 181
    3e18:	ff 4f       	sbci	r31, 0xFF	; 255
    3e1a:	80 81       	ld	r24, Z
    3e1c:	91 81       	ldd	r25, Z+1	; 0x01
    3e1e:	8d 93       	st	X+, r24
    3e20:	9c 93       	st	X, r25
    3e22:	fe 01       	movw	r30, r28
    3e24:	e9 5b       	subi	r30, 0xB9	; 185
    3e26:	ff 4f       	sbci	r31, 0xFF	; 255
    3e28:	80 81       	ld	r24, Z
    3e2a:	91 81       	ldd	r25, Z+1	; 0x01
    3e2c:	01 97       	sbiw	r24, 0x01	; 1
    3e2e:	f1 f7       	brne	.-4      	; 0x3e2c <HLCD_vidInit+0x1cc>
    3e30:	fe 01       	movw	r30, r28
    3e32:	e9 5b       	subi	r30, 0xB9	; 185
    3e34:	ff 4f       	sbci	r31, 0xFF	; 255
    3e36:	91 83       	std	Z+1, r25	; 0x01
    3e38:	80 83       	st	Z, r24

	_delay_ms(40);

	HLCD_vidWritecmd(HLCD_CURSOR_HOME);
    3e3a:	82 e0       	ldi	r24, 0x02	; 2
    3e3c:	0e 94 85 21 	call	0x430a	; 0x430a <HLCD_vidWritecmd>
    3e40:	fe 01       	movw	r30, r28
    3e42:	ed 5b       	subi	r30, 0xBD	; 189
    3e44:	ff 4f       	sbci	r31, 0xFF	; 255
    3e46:	80 e0       	ldi	r24, 0x00	; 0
    3e48:	90 e0       	ldi	r25, 0x00	; 0
    3e4a:	a0 e8       	ldi	r26, 0x80	; 128
    3e4c:	bf e3       	ldi	r27, 0x3F	; 63
    3e4e:	80 83       	st	Z, r24
    3e50:	91 83       	std	Z+1, r25	; 0x01
    3e52:	a2 83       	std	Z+2, r26	; 0x02
    3e54:	b3 83       	std	Z+3, r27	; 0x03
 */
void
_delay_ms(double __ms)
{
	uint16_t __ticks;
	double __tmp = ((F_CPU) / 4e3) * __ms;
    3e56:	8e 01       	movw	r16, r28
    3e58:	01 5c       	subi	r16, 0xC1	; 193
    3e5a:	1f 4f       	sbci	r17, 0xFF	; 255
    3e5c:	fe 01       	movw	r30, r28
    3e5e:	ed 5b       	subi	r30, 0xBD	; 189
    3e60:	ff 4f       	sbci	r31, 0xFF	; 255
    3e62:	60 81       	ld	r22, Z
    3e64:	71 81       	ldd	r23, Z+1	; 0x01
    3e66:	82 81       	ldd	r24, Z+2	; 0x02
    3e68:	93 81       	ldd	r25, Z+3	; 0x03
    3e6a:	20 e0       	ldi	r18, 0x00	; 0
    3e6c:	30 e0       	ldi	r19, 0x00	; 0
    3e6e:	4a ef       	ldi	r20, 0xFA	; 250
    3e70:	54 e4       	ldi	r21, 0x44	; 68
    3e72:	0e 94 1f 02 	call	0x43e	; 0x43e <__mulsf3>
    3e76:	dc 01       	movw	r26, r24
    3e78:	cb 01       	movw	r24, r22
    3e7a:	f8 01       	movw	r30, r16
    3e7c:	80 83       	st	Z, r24
    3e7e:	91 83       	std	Z+1, r25	; 0x01
    3e80:	a2 83       	std	Z+2, r26	; 0x02
    3e82:	b3 83       	std	Z+3, r27	; 0x03
	if (__tmp < 1.0)
    3e84:	fe 01       	movw	r30, r28
    3e86:	ff 96       	adiw	r30, 0x3f	; 63
    3e88:	60 81       	ld	r22, Z
    3e8a:	71 81       	ldd	r23, Z+1	; 0x01
    3e8c:	82 81       	ldd	r24, Z+2	; 0x02
    3e8e:	93 81       	ldd	r25, Z+3	; 0x03
    3e90:	20 e0       	ldi	r18, 0x00	; 0
    3e92:	30 e0       	ldi	r19, 0x00	; 0
    3e94:	40 e8       	ldi	r20, 0x80	; 128
    3e96:	5f e3       	ldi	r21, 0x3F	; 63
    3e98:	0e 94 25 04 	call	0x84a	; 0x84a <__ltsf2>
    3e9c:	88 23       	and	r24, r24
    3e9e:	2c f4       	brge	.+10     	; 0x3eaa <HLCD_vidInit+0x24a>
		__ticks = 1;
    3ea0:	81 e0       	ldi	r24, 0x01	; 1
    3ea2:	90 e0       	ldi	r25, 0x00	; 0
    3ea4:	9e af       	std	Y+62, r25	; 0x3e
    3ea6:	8d af       	std	Y+61, r24	; 0x3d
    3ea8:	46 c0       	rjmp	.+140    	; 0x3f36 <HLCD_vidInit+0x2d6>
	else if (__tmp > 65535)
    3eaa:	fe 01       	movw	r30, r28
    3eac:	ff 96       	adiw	r30, 0x3f	; 63
    3eae:	60 81       	ld	r22, Z
    3eb0:	71 81       	ldd	r23, Z+1	; 0x01
    3eb2:	82 81       	ldd	r24, Z+2	; 0x02
    3eb4:	93 81       	ldd	r25, Z+3	; 0x03
    3eb6:	20 e0       	ldi	r18, 0x00	; 0
    3eb8:	3f ef       	ldi	r19, 0xFF	; 255
    3eba:	4f e7       	ldi	r20, 0x7F	; 127
    3ebc:	57 e4       	ldi	r21, 0x47	; 71
    3ebe:	0e 94 c5 03 	call	0x78a	; 0x78a <__gtsf2>
    3ec2:	18 16       	cp	r1, r24
    3ec4:	64 f5       	brge	.+88     	; 0x3f1e <HLCD_vidInit+0x2be>
	{
		//	__ticks = requested delay in 1/10 ms
		__ticks = (uint16_t) (__ms * 10.0);
    3ec6:	fe 01       	movw	r30, r28
    3ec8:	ed 5b       	subi	r30, 0xBD	; 189
    3eca:	ff 4f       	sbci	r31, 0xFF	; 255
    3ecc:	60 81       	ld	r22, Z
    3ece:	71 81       	ldd	r23, Z+1	; 0x01
    3ed0:	82 81       	ldd	r24, Z+2	; 0x02
    3ed2:	93 81       	ldd	r25, Z+3	; 0x03
    3ed4:	20 e0       	ldi	r18, 0x00	; 0
    3ed6:	30 e0       	ldi	r19, 0x00	; 0
    3ed8:	40 e2       	ldi	r20, 0x20	; 32
    3eda:	51 e4       	ldi	r21, 0x41	; 65
    3edc:	0e 94 1f 02 	call	0x43e	; 0x43e <__mulsf3>
    3ee0:	dc 01       	movw	r26, r24
    3ee2:	cb 01       	movw	r24, r22
    3ee4:	bc 01       	movw	r22, r24
    3ee6:	cd 01       	movw	r24, r26
    3ee8:	0e 94 49 00 	call	0x92	; 0x92 <__fixunssfsi>
    3eec:	dc 01       	movw	r26, r24
    3eee:	cb 01       	movw	r24, r22
    3ef0:	9e af       	std	Y+62, r25	; 0x3e
    3ef2:	8d af       	std	Y+61, r24	; 0x3d
    3ef4:	0f c0       	rjmp	.+30     	; 0x3f14 <HLCD_vidInit+0x2b4>
    3ef6:	88 ec       	ldi	r24, 0xC8	; 200
    3ef8:	90 e0       	ldi	r25, 0x00	; 0
    3efa:	9c af       	std	Y+60, r25	; 0x3c
    3efc:	8b af       	std	Y+59, r24	; 0x3b
    3efe:	8b ad       	ldd	r24, Y+59	; 0x3b
    3f00:	9c ad       	ldd	r25, Y+60	; 0x3c
    3f02:	01 97       	sbiw	r24, 0x01	; 1
    3f04:	f1 f7       	brne	.-4      	; 0x3f02 <HLCD_vidInit+0x2a2>
    3f06:	9c af       	std	Y+60, r25	; 0x3c
    3f08:	8b af       	std	Y+59, r24	; 0x3b
		while(__ticks)
		{
			// wait 1/10 ms
			_delay_loop_2(((F_CPU) / 4e3) / 10);
			__ticks --;
    3f0a:	8d ad       	ldd	r24, Y+61	; 0x3d
    3f0c:	9e ad       	ldd	r25, Y+62	; 0x3e
    3f0e:	01 97       	sbiw	r24, 0x01	; 1
    3f10:	9e af       	std	Y+62, r25	; 0x3e
    3f12:	8d af       	std	Y+61, r24	; 0x3d
		__ticks = 1;
	else if (__tmp > 65535)
	{
		//	__ticks = requested delay in 1/10 ms
		__ticks = (uint16_t) (__ms * 10.0);
		while(__ticks)
    3f14:	8d ad       	ldd	r24, Y+61	; 0x3d
    3f16:	9e ad       	ldd	r25, Y+62	; 0x3e
    3f18:	00 97       	sbiw	r24, 0x00	; 0
    3f1a:	69 f7       	brne	.-38     	; 0x3ef6 <HLCD_vidInit+0x296>
    3f1c:	16 c0       	rjmp	.+44     	; 0x3f4a <HLCD_vidInit+0x2ea>
			__ticks --;
		}
		return;
	}
	else
		__ticks = (uint16_t)__tmp;
    3f1e:	fe 01       	movw	r30, r28
    3f20:	ff 96       	adiw	r30, 0x3f	; 63
    3f22:	60 81       	ld	r22, Z
    3f24:	71 81       	ldd	r23, Z+1	; 0x01
    3f26:	82 81       	ldd	r24, Z+2	; 0x02
    3f28:	93 81       	ldd	r25, Z+3	; 0x03
    3f2a:	0e 94 49 00 	call	0x92	; 0x92 <__fixunssfsi>
    3f2e:	dc 01       	movw	r26, r24
    3f30:	cb 01       	movw	r24, r22
    3f32:	9e af       	std	Y+62, r25	; 0x3e
    3f34:	8d af       	std	Y+61, r24	; 0x3d
    3f36:	8d ad       	ldd	r24, Y+61	; 0x3d
    3f38:	9e ad       	ldd	r25, Y+62	; 0x3e
    3f3a:	9a af       	std	Y+58, r25	; 0x3a
    3f3c:	89 af       	std	Y+57, r24	; 0x39
    3f3e:	89 ad       	ldd	r24, Y+57	; 0x39
    3f40:	9a ad       	ldd	r25, Y+58	; 0x3a
    3f42:	01 97       	sbiw	r24, 0x01	; 1
    3f44:	f1 f7       	brne	.-4      	; 0x3f42 <HLCD_vidInit+0x2e2>
    3f46:	9a af       	std	Y+58, r25	; 0x3a
    3f48:	89 af       	std	Y+57, r24	; 0x39
	_delay_ms(1);
#if HLCD_MODE == HLCD_4_BIT_MODE

	HLCD_vidWritecmd(HLCD_4_BIT_MODE_SELECTION);
    3f4a:	88 e2       	ldi	r24, 0x28	; 40
    3f4c:	0e 94 85 21 	call	0x430a	; 0x430a <HLCD_vidWritecmd>
    3f50:	80 e0       	ldi	r24, 0x00	; 0
    3f52:	90 e0       	ldi	r25, 0x00	; 0
    3f54:	a0 e8       	ldi	r26, 0x80	; 128
    3f56:	bf e3       	ldi	r27, 0x3F	; 63
    3f58:	8d ab       	std	Y+53, r24	; 0x35
    3f5a:	9e ab       	std	Y+54, r25	; 0x36
    3f5c:	af ab       	std	Y+55, r26	; 0x37
    3f5e:	b8 af       	std	Y+56, r27	; 0x38
 */
void
_delay_ms(double __ms)
{
	uint16_t __ticks;
	double __tmp = ((F_CPU) / 4e3) * __ms;
    3f60:	6d a9       	ldd	r22, Y+53	; 0x35
    3f62:	7e a9       	ldd	r23, Y+54	; 0x36
    3f64:	8f a9       	ldd	r24, Y+55	; 0x37
    3f66:	98 ad       	ldd	r25, Y+56	; 0x38
    3f68:	20 e0       	ldi	r18, 0x00	; 0
    3f6a:	30 e0       	ldi	r19, 0x00	; 0
    3f6c:	4a ef       	ldi	r20, 0xFA	; 250
    3f6e:	54 e4       	ldi	r21, 0x44	; 68
    3f70:	0e 94 1f 02 	call	0x43e	; 0x43e <__mulsf3>
    3f74:	dc 01       	movw	r26, r24
    3f76:	cb 01       	movw	r24, r22
    3f78:	89 ab       	std	Y+49, r24	; 0x31
    3f7a:	9a ab       	std	Y+50, r25	; 0x32
    3f7c:	ab ab       	std	Y+51, r26	; 0x33
    3f7e:	bc ab       	std	Y+52, r27	; 0x34
	if (__tmp < 1.0)
    3f80:	69 a9       	ldd	r22, Y+49	; 0x31
    3f82:	7a a9       	ldd	r23, Y+50	; 0x32
    3f84:	8b a9       	ldd	r24, Y+51	; 0x33
    3f86:	9c a9       	ldd	r25, Y+52	; 0x34
    3f88:	20 e0       	ldi	r18, 0x00	; 0
    3f8a:	30 e0       	ldi	r19, 0x00	; 0
    3f8c:	40 e8       	ldi	r20, 0x80	; 128
    3f8e:	5f e3       	ldi	r21, 0x3F	; 63
    3f90:	0e 94 25 04 	call	0x84a	; 0x84a <__ltsf2>
    3f94:	88 23       	and	r24, r24
    3f96:	2c f4       	brge	.+10     	; 0x3fa2 <HLCD_vidInit+0x342>
		__ticks = 1;
    3f98:	81 e0       	ldi	r24, 0x01	; 1
    3f9a:	90 e0       	ldi	r25, 0x00	; 0
    3f9c:	98 ab       	std	Y+48, r25	; 0x30
    3f9e:	8f a7       	std	Y+47, r24	; 0x2f
    3fa0:	3f c0       	rjmp	.+126    	; 0x4020 <HLCD_vidInit+0x3c0>
	else if (__tmp > 65535)
    3fa2:	69 a9       	ldd	r22, Y+49	; 0x31
    3fa4:	7a a9       	ldd	r23, Y+50	; 0x32
    3fa6:	8b a9       	ldd	r24, Y+51	; 0x33
    3fa8:	9c a9       	ldd	r25, Y+52	; 0x34
    3faa:	20 e0       	ldi	r18, 0x00	; 0
    3fac:	3f ef       	ldi	r19, 0xFF	; 255
    3fae:	4f e7       	ldi	r20, 0x7F	; 127
    3fb0:	57 e4       	ldi	r21, 0x47	; 71
    3fb2:	0e 94 c5 03 	call	0x78a	; 0x78a <__gtsf2>
    3fb6:	18 16       	cp	r1, r24
    3fb8:	4c f5       	brge	.+82     	; 0x400c <HLCD_vidInit+0x3ac>
	{
		//	__ticks = requested delay in 1/10 ms
		__ticks = (uint16_t) (__ms * 10.0);
    3fba:	6d a9       	ldd	r22, Y+53	; 0x35
    3fbc:	7e a9       	ldd	r23, Y+54	; 0x36
    3fbe:	8f a9       	ldd	r24, Y+55	; 0x37
    3fc0:	98 ad       	ldd	r25, Y+56	; 0x38
    3fc2:	20 e0       	ldi	r18, 0x00	; 0
    3fc4:	30 e0       	ldi	r19, 0x00	; 0
    3fc6:	40 e2       	ldi	r20, 0x20	; 32
    3fc8:	51 e4       	ldi	r21, 0x41	; 65
    3fca:	0e 94 1f 02 	call	0x43e	; 0x43e <__mulsf3>
    3fce:	dc 01       	movw	r26, r24
    3fd0:	cb 01       	movw	r24, r22
    3fd2:	bc 01       	movw	r22, r24
    3fd4:	cd 01       	movw	r24, r26
    3fd6:	0e 94 49 00 	call	0x92	; 0x92 <__fixunssfsi>
    3fda:	dc 01       	movw	r26, r24
    3fdc:	cb 01       	movw	r24, r22
    3fde:	98 ab       	std	Y+48, r25	; 0x30
    3fe0:	8f a7       	std	Y+47, r24	; 0x2f
    3fe2:	0f c0       	rjmp	.+30     	; 0x4002 <HLCD_vidInit+0x3a2>
    3fe4:	88 ec       	ldi	r24, 0xC8	; 200
    3fe6:	90 e0       	ldi	r25, 0x00	; 0
    3fe8:	9e a7       	std	Y+46, r25	; 0x2e
    3fea:	8d a7       	std	Y+45, r24	; 0x2d
    3fec:	8d a5       	ldd	r24, Y+45	; 0x2d
    3fee:	9e a5       	ldd	r25, Y+46	; 0x2e
    3ff0:	01 97       	sbiw	r24, 0x01	; 1
    3ff2:	f1 f7       	brne	.-4      	; 0x3ff0 <HLCD_vidInit+0x390>
    3ff4:	9e a7       	std	Y+46, r25	; 0x2e
    3ff6:	8d a7       	std	Y+45, r24	; 0x2d
		while(__ticks)
		{
			// wait 1/10 ms
			_delay_loop_2(((F_CPU) / 4e3) / 10);
			__ticks --;
    3ff8:	8f a5       	ldd	r24, Y+47	; 0x2f
    3ffa:	98 a9       	ldd	r25, Y+48	; 0x30
    3ffc:	01 97       	sbiw	r24, 0x01	; 1
    3ffe:	98 ab       	std	Y+48, r25	; 0x30
    4000:	8f a7       	std	Y+47, r24	; 0x2f
		__ticks = 1;
	else if (__tmp > 65535)
	{
		//	__ticks = requested delay in 1/10 ms
		__ticks = (uint16_t) (__ms * 10.0);
		while(__ticks)
    4002:	8f a5       	ldd	r24, Y+47	; 0x2f
    4004:	98 a9       	ldd	r25, Y+48	; 0x30
    4006:	00 97       	sbiw	r24, 0x00	; 0
    4008:	69 f7       	brne	.-38     	; 0x3fe4 <HLCD_vidInit+0x384>
    400a:	14 c0       	rjmp	.+40     	; 0x4034 <HLCD_vidInit+0x3d4>
			__ticks --;
		}
		return;
	}
	else
		__ticks = (uint16_t)__tmp;
    400c:	69 a9       	ldd	r22, Y+49	; 0x31
    400e:	7a a9       	ldd	r23, Y+50	; 0x32
    4010:	8b a9       	ldd	r24, Y+51	; 0x33
    4012:	9c a9       	ldd	r25, Y+52	; 0x34
    4014:	0e 94 49 00 	call	0x92	; 0x92 <__fixunssfsi>
    4018:	dc 01       	movw	r26, r24
    401a:	cb 01       	movw	r24, r22
    401c:	98 ab       	std	Y+48, r25	; 0x30
    401e:	8f a7       	std	Y+47, r24	; 0x2f
    4020:	8f a5       	ldd	r24, Y+47	; 0x2f
    4022:	98 a9       	ldd	r25, Y+48	; 0x30
    4024:	9c a7       	std	Y+44, r25	; 0x2c
    4026:	8b a7       	std	Y+43, r24	; 0x2b
    4028:	8b a5       	ldd	r24, Y+43	; 0x2b
    402a:	9c a5       	ldd	r25, Y+44	; 0x2c
    402c:	01 97       	sbiw	r24, 0x01	; 1
    402e:	f1 f7       	brne	.-4      	; 0x402c <HLCD_vidInit+0x3cc>
    4030:	9c a7       	std	Y+44, r25	; 0x2c
    4032:	8b a7       	std	Y+43, r24	; 0x2b

#elif HLCD_MODE == HLCD_8_BIT_MODE
	HLCD_vidWritecmd(HLCD_8_BIT_MODE_SELECTION);
	_delay_ms(1);
#endif
	HLCD_vidWritecmd(HLCD_CLEAR_DISPLAY);
    4034:	81 e0       	ldi	r24, 0x01	; 1
    4036:	0e 94 85 21 	call	0x430a	; 0x430a <HLCD_vidWritecmd>
    403a:	80 e0       	ldi	r24, 0x00	; 0
    403c:	90 e0       	ldi	r25, 0x00	; 0
    403e:	a0 e8       	ldi	r26, 0x80	; 128
    4040:	b0 e4       	ldi	r27, 0x40	; 64
    4042:	8f a3       	std	Y+39, r24	; 0x27
    4044:	98 a7       	std	Y+40, r25	; 0x28
    4046:	a9 a7       	std	Y+41, r26	; 0x29
    4048:	ba a7       	std	Y+42, r27	; 0x2a
 */
void
_delay_ms(double __ms)
{
	uint16_t __ticks;
	double __tmp = ((F_CPU) / 4e3) * __ms;
    404a:	6f a1       	ldd	r22, Y+39	; 0x27
    404c:	78 a5       	ldd	r23, Y+40	; 0x28
    404e:	89 a5       	ldd	r24, Y+41	; 0x29
    4050:	9a a5       	ldd	r25, Y+42	; 0x2a
    4052:	20 e0       	ldi	r18, 0x00	; 0
    4054:	30 e0       	ldi	r19, 0x00	; 0
    4056:	4a ef       	ldi	r20, 0xFA	; 250
    4058:	54 e4       	ldi	r21, 0x44	; 68
    405a:	0e 94 1f 02 	call	0x43e	; 0x43e <__mulsf3>
    405e:	dc 01       	movw	r26, r24
    4060:	cb 01       	movw	r24, r22
    4062:	8b a3       	std	Y+35, r24	; 0x23
    4064:	9c a3       	std	Y+36, r25	; 0x24
    4066:	ad a3       	std	Y+37, r26	; 0x25
    4068:	be a3       	std	Y+38, r27	; 0x26
	if (__tmp < 1.0)
    406a:	6b a1       	ldd	r22, Y+35	; 0x23
    406c:	7c a1       	ldd	r23, Y+36	; 0x24
    406e:	8d a1       	ldd	r24, Y+37	; 0x25
    4070:	9e a1       	ldd	r25, Y+38	; 0x26
    4072:	20 e0       	ldi	r18, 0x00	; 0
    4074:	30 e0       	ldi	r19, 0x00	; 0
    4076:	40 e8       	ldi	r20, 0x80	; 128
    4078:	5f e3       	ldi	r21, 0x3F	; 63
    407a:	0e 94 25 04 	call	0x84a	; 0x84a <__ltsf2>
    407e:	88 23       	and	r24, r24
    4080:	2c f4       	brge	.+10     	; 0x408c <HLCD_vidInit+0x42c>
		__ticks = 1;
    4082:	81 e0       	ldi	r24, 0x01	; 1
    4084:	90 e0       	ldi	r25, 0x00	; 0
    4086:	9a a3       	std	Y+34, r25	; 0x22
    4088:	89 a3       	std	Y+33, r24	; 0x21
    408a:	3f c0       	rjmp	.+126    	; 0x410a <HLCD_vidInit+0x4aa>
	else if (__tmp > 65535)
    408c:	6b a1       	ldd	r22, Y+35	; 0x23
    408e:	7c a1       	ldd	r23, Y+36	; 0x24
    4090:	8d a1       	ldd	r24, Y+37	; 0x25
    4092:	9e a1       	ldd	r25, Y+38	; 0x26
    4094:	20 e0       	ldi	r18, 0x00	; 0
    4096:	3f ef       	ldi	r19, 0xFF	; 255
    4098:	4f e7       	ldi	r20, 0x7F	; 127
    409a:	57 e4       	ldi	r21, 0x47	; 71
    409c:	0e 94 c5 03 	call	0x78a	; 0x78a <__gtsf2>
    40a0:	18 16       	cp	r1, r24
    40a2:	4c f5       	brge	.+82     	; 0x40f6 <HLCD_vidInit+0x496>
	{
		//	__ticks = requested delay in 1/10 ms
		__ticks = (uint16_t) (__ms * 10.0);
    40a4:	6f a1       	ldd	r22, Y+39	; 0x27
    40a6:	78 a5       	ldd	r23, Y+40	; 0x28
    40a8:	89 a5       	ldd	r24, Y+41	; 0x29
    40aa:	9a a5       	ldd	r25, Y+42	; 0x2a
    40ac:	20 e0       	ldi	r18, 0x00	; 0
    40ae:	30 e0       	ldi	r19, 0x00	; 0
    40b0:	40 e2       	ldi	r20, 0x20	; 32
    40b2:	51 e4       	ldi	r21, 0x41	; 65
    40b4:	0e 94 1f 02 	call	0x43e	; 0x43e <__mulsf3>
    40b8:	dc 01       	movw	r26, r24
    40ba:	cb 01       	movw	r24, r22
    40bc:	bc 01       	movw	r22, r24
    40be:	cd 01       	movw	r24, r26
    40c0:	0e 94 49 00 	call	0x92	; 0x92 <__fixunssfsi>
    40c4:	dc 01       	movw	r26, r24
    40c6:	cb 01       	movw	r24, r22
    40c8:	9a a3       	std	Y+34, r25	; 0x22
    40ca:	89 a3       	std	Y+33, r24	; 0x21
    40cc:	0f c0       	rjmp	.+30     	; 0x40ec <HLCD_vidInit+0x48c>
    40ce:	88 ec       	ldi	r24, 0xC8	; 200
    40d0:	90 e0       	ldi	r25, 0x00	; 0
    40d2:	98 a3       	std	Y+32, r25	; 0x20
    40d4:	8f 8f       	std	Y+31, r24	; 0x1f
    40d6:	8f 8d       	ldd	r24, Y+31	; 0x1f
    40d8:	98 a1       	ldd	r25, Y+32	; 0x20
    40da:	01 97       	sbiw	r24, 0x01	; 1
    40dc:	f1 f7       	brne	.-4      	; 0x40da <HLCD_vidInit+0x47a>
    40de:	98 a3       	std	Y+32, r25	; 0x20
    40e0:	8f 8f       	std	Y+31, r24	; 0x1f
		while(__ticks)
		{
			// wait 1/10 ms
			_delay_loop_2(((F_CPU) / 4e3) / 10);
			__ticks --;
    40e2:	89 a1       	ldd	r24, Y+33	; 0x21
    40e4:	9a a1       	ldd	r25, Y+34	; 0x22
    40e6:	01 97       	sbiw	r24, 0x01	; 1
    40e8:	9a a3       	std	Y+34, r25	; 0x22
    40ea:	89 a3       	std	Y+33, r24	; 0x21
		__ticks = 1;
	else if (__tmp > 65535)
	{
		//	__ticks = requested delay in 1/10 ms
		__ticks = (uint16_t) (__ms * 10.0);
		while(__ticks)
    40ec:	89 a1       	ldd	r24, Y+33	; 0x21
    40ee:	9a a1       	ldd	r25, Y+34	; 0x22
    40f0:	00 97       	sbiw	r24, 0x00	; 0
    40f2:	69 f7       	brne	.-38     	; 0x40ce <HLCD_vidInit+0x46e>
    40f4:	14 c0       	rjmp	.+40     	; 0x411e <HLCD_vidInit+0x4be>
			__ticks --;
		}
		return;
	}
	else
		__ticks = (uint16_t)__tmp;
    40f6:	6b a1       	ldd	r22, Y+35	; 0x23
    40f8:	7c a1       	ldd	r23, Y+36	; 0x24
    40fa:	8d a1       	ldd	r24, Y+37	; 0x25
    40fc:	9e a1       	ldd	r25, Y+38	; 0x26
    40fe:	0e 94 49 00 	call	0x92	; 0x92 <__fixunssfsi>
    4102:	dc 01       	movw	r26, r24
    4104:	cb 01       	movw	r24, r22
    4106:	9a a3       	std	Y+34, r25	; 0x22
    4108:	89 a3       	std	Y+33, r24	; 0x21
    410a:	89 a1       	ldd	r24, Y+33	; 0x21
    410c:	9a a1       	ldd	r25, Y+34	; 0x22
    410e:	9e 8f       	std	Y+30, r25	; 0x1e
    4110:	8d 8f       	std	Y+29, r24	; 0x1d
    4112:	8d 8d       	ldd	r24, Y+29	; 0x1d
    4114:	9e 8d       	ldd	r25, Y+30	; 0x1e
    4116:	01 97       	sbiw	r24, 0x01	; 1
    4118:	f1 f7       	brne	.-4      	; 0x4116 <HLCD_vidInit+0x4b6>
    411a:	9e 8f       	std	Y+30, r25	; 0x1e
    411c:	8d 8f       	std	Y+29, r24	; 0x1d
	_delay_ms(4);

	HLCD_vidWritecmd(HLCD_ENTRY_MODE_CURSOR_INCREMENT);
    411e:	86 e0       	ldi	r24, 0x06	; 6
    4120:	0e 94 85 21 	call	0x430a	; 0x430a <HLCD_vidWritecmd>
    4124:	80 e0       	ldi	r24, 0x00	; 0
    4126:	90 e0       	ldi	r25, 0x00	; 0
    4128:	a0 e8       	ldi	r26, 0x80	; 128
    412a:	bf e3       	ldi	r27, 0x3F	; 63
    412c:	89 8f       	std	Y+25, r24	; 0x19
    412e:	9a 8f       	std	Y+26, r25	; 0x1a
    4130:	ab 8f       	std	Y+27, r26	; 0x1b
    4132:	bc 8f       	std	Y+28, r27	; 0x1c
 */
void
_delay_ms(double __ms)
{
	uint16_t __ticks;
	double __tmp = ((F_CPU) / 4e3) * __ms;
    4134:	69 8d       	ldd	r22, Y+25	; 0x19
    4136:	7a 8d       	ldd	r23, Y+26	; 0x1a
    4138:	8b 8d       	ldd	r24, Y+27	; 0x1b
    413a:	9c 8d       	ldd	r25, Y+28	; 0x1c
    413c:	20 e0       	ldi	r18, 0x00	; 0
    413e:	30 e0       	ldi	r19, 0x00	; 0
    4140:	4a ef       	ldi	r20, 0xFA	; 250
    4142:	54 e4       	ldi	r21, 0x44	; 68
    4144:	0e 94 1f 02 	call	0x43e	; 0x43e <__mulsf3>
    4148:	dc 01       	movw	r26, r24
    414a:	cb 01       	movw	r24, r22
    414c:	8d 8b       	std	Y+21, r24	; 0x15
    414e:	9e 8b       	std	Y+22, r25	; 0x16
    4150:	af 8b       	std	Y+23, r26	; 0x17
    4152:	b8 8f       	std	Y+24, r27	; 0x18
	if (__tmp < 1.0)
    4154:	6d 89       	ldd	r22, Y+21	; 0x15
    4156:	7e 89       	ldd	r23, Y+22	; 0x16
    4158:	8f 89       	ldd	r24, Y+23	; 0x17
    415a:	98 8d       	ldd	r25, Y+24	; 0x18
    415c:	20 e0       	ldi	r18, 0x00	; 0
    415e:	30 e0       	ldi	r19, 0x00	; 0
    4160:	40 e8       	ldi	r20, 0x80	; 128
    4162:	5f e3       	ldi	r21, 0x3F	; 63
    4164:	0e 94 25 04 	call	0x84a	; 0x84a <__ltsf2>
    4168:	88 23       	and	r24, r24
    416a:	2c f4       	brge	.+10     	; 0x4176 <HLCD_vidInit+0x516>
		__ticks = 1;
    416c:	81 e0       	ldi	r24, 0x01	; 1
    416e:	90 e0       	ldi	r25, 0x00	; 0
    4170:	9c 8b       	std	Y+20, r25	; 0x14
    4172:	8b 8b       	std	Y+19, r24	; 0x13
    4174:	3f c0       	rjmp	.+126    	; 0x41f4 <HLCD_vidInit+0x594>
	else if (__tmp > 65535)
    4176:	6d 89       	ldd	r22, Y+21	; 0x15
    4178:	7e 89       	ldd	r23, Y+22	; 0x16
    417a:	8f 89       	ldd	r24, Y+23	; 0x17
    417c:	98 8d       	ldd	r25, Y+24	; 0x18
    417e:	20 e0       	ldi	r18, 0x00	; 0
    4180:	3f ef       	ldi	r19, 0xFF	; 255
    4182:	4f e7       	ldi	r20, 0x7F	; 127
    4184:	57 e4       	ldi	r21, 0x47	; 71
    4186:	0e 94 c5 03 	call	0x78a	; 0x78a <__gtsf2>
    418a:	18 16       	cp	r1, r24
    418c:	4c f5       	brge	.+82     	; 0x41e0 <HLCD_vidInit+0x580>
	{
		//	__ticks = requested delay in 1/10 ms
		__ticks = (uint16_t) (__ms * 10.0);
    418e:	69 8d       	ldd	r22, Y+25	; 0x19
    4190:	7a 8d       	ldd	r23, Y+26	; 0x1a
    4192:	8b 8d       	ldd	r24, Y+27	; 0x1b
    4194:	9c 8d       	ldd	r25, Y+28	; 0x1c
    4196:	20 e0       	ldi	r18, 0x00	; 0
    4198:	30 e0       	ldi	r19, 0x00	; 0
    419a:	40 e2       	ldi	r20, 0x20	; 32
    419c:	51 e4       	ldi	r21, 0x41	; 65
    419e:	0e 94 1f 02 	call	0x43e	; 0x43e <__mulsf3>
    41a2:	dc 01       	movw	r26, r24
    41a4:	cb 01       	movw	r24, r22
    41a6:	bc 01       	movw	r22, r24
    41a8:	cd 01       	movw	r24, r26
    41aa:	0e 94 49 00 	call	0x92	; 0x92 <__fixunssfsi>
    41ae:	dc 01       	movw	r26, r24
    41b0:	cb 01       	movw	r24, r22
    41b2:	9c 8b       	std	Y+20, r25	; 0x14
    41b4:	8b 8b       	std	Y+19, r24	; 0x13
    41b6:	0f c0       	rjmp	.+30     	; 0x41d6 <HLCD_vidInit+0x576>
    41b8:	88 ec       	ldi	r24, 0xC8	; 200
    41ba:	90 e0       	ldi	r25, 0x00	; 0
    41bc:	9a 8b       	std	Y+18, r25	; 0x12
    41be:	89 8b       	std	Y+17, r24	; 0x11
    41c0:	89 89       	ldd	r24, Y+17	; 0x11
    41c2:	9a 89       	ldd	r25, Y+18	; 0x12
    41c4:	01 97       	sbiw	r24, 0x01	; 1
    41c6:	f1 f7       	brne	.-4      	; 0x41c4 <HLCD_vidInit+0x564>
    41c8:	9a 8b       	std	Y+18, r25	; 0x12
    41ca:	89 8b       	std	Y+17, r24	; 0x11
		while(__ticks)
		{
			// wait 1/10 ms
			_delay_loop_2(((F_CPU) / 4e3) / 10);
			__ticks --;
    41cc:	8b 89       	ldd	r24, Y+19	; 0x13
    41ce:	9c 89       	ldd	r25, Y+20	; 0x14
    41d0:	01 97       	sbiw	r24, 0x01	; 1
    41d2:	9c 8b       	std	Y+20, r25	; 0x14
    41d4:	8b 8b       	std	Y+19, r24	; 0x13
		__ticks = 1;
	else if (__tmp > 65535)
	{
		//	__ticks = requested delay in 1/10 ms
		__ticks = (uint16_t) (__ms * 10.0);
		while(__ticks)
    41d6:	8b 89       	ldd	r24, Y+19	; 0x13
    41d8:	9c 89       	ldd	r25, Y+20	; 0x14
    41da:	00 97       	sbiw	r24, 0x00	; 0
    41dc:	69 f7       	brne	.-38     	; 0x41b8 <HLCD_vidInit+0x558>
    41de:	14 c0       	rjmp	.+40     	; 0x4208 <HLCD_vidInit+0x5a8>
			__ticks --;
		}
		return;
	}
	else
		__ticks = (uint16_t)__tmp;
    41e0:	6d 89       	ldd	r22, Y+21	; 0x15
    41e2:	7e 89       	ldd	r23, Y+22	; 0x16
    41e4:	8f 89       	ldd	r24, Y+23	; 0x17
    41e6:	98 8d       	ldd	r25, Y+24	; 0x18
    41e8:	0e 94 49 00 	call	0x92	; 0x92 <__fixunssfsi>
    41ec:	dc 01       	movw	r26, r24
    41ee:	cb 01       	movw	r24, r22
    41f0:	9c 8b       	std	Y+20, r25	; 0x14
    41f2:	8b 8b       	std	Y+19, r24	; 0x13
    41f4:	8b 89       	ldd	r24, Y+19	; 0x13
    41f6:	9c 89       	ldd	r25, Y+20	; 0x14
    41f8:	98 8b       	std	Y+16, r25	; 0x10
    41fa:	8f 87       	std	Y+15, r24	; 0x0f
    41fc:	8f 85       	ldd	r24, Y+15	; 0x0f
    41fe:	98 89       	ldd	r25, Y+16	; 0x10
    4200:	01 97       	sbiw	r24, 0x01	; 1
    4202:	f1 f7       	brne	.-4      	; 0x4200 <HLCD_vidInit+0x5a0>
    4204:	98 8b       	std	Y+16, r25	; 0x10
    4206:	8f 87       	std	Y+15, r24	; 0x0f
	_delay_ms(1);

	HLCD_vidWritecmd(HLCD_DISPLAY_ON_CURSOR_ON_NO_BLINK);
    4208:	8e e0       	ldi	r24, 0x0E	; 14
    420a:	0e 94 85 21 	call	0x430a	; 0x430a <HLCD_vidWritecmd>
    420e:	80 e0       	ldi	r24, 0x00	; 0
    4210:	90 e0       	ldi	r25, 0x00	; 0
    4212:	a0 e8       	ldi	r26, 0x80	; 128
    4214:	bf e3       	ldi	r27, 0x3F	; 63
    4216:	8b 87       	std	Y+11, r24	; 0x0b
    4218:	9c 87       	std	Y+12, r25	; 0x0c
    421a:	ad 87       	std	Y+13, r26	; 0x0d
    421c:	be 87       	std	Y+14, r27	; 0x0e
 */
void
_delay_ms(double __ms)
{
	uint16_t __ticks;
	double __tmp = ((F_CPU) / 4e3) * __ms;
    421e:	6b 85       	ldd	r22, Y+11	; 0x0b
    4220:	7c 85       	ldd	r23, Y+12	; 0x0c
    4222:	8d 85       	ldd	r24, Y+13	; 0x0d
    4224:	9e 85       	ldd	r25, Y+14	; 0x0e
    4226:	20 e0       	ldi	r18, 0x00	; 0
    4228:	30 e0       	ldi	r19, 0x00	; 0
    422a:	4a ef       	ldi	r20, 0xFA	; 250
    422c:	54 e4       	ldi	r21, 0x44	; 68
    422e:	0e 94 1f 02 	call	0x43e	; 0x43e <__mulsf3>
    4232:	dc 01       	movw	r26, r24
    4234:	cb 01       	movw	r24, r22
    4236:	8f 83       	std	Y+7, r24	; 0x07
    4238:	98 87       	std	Y+8, r25	; 0x08
    423a:	a9 87       	std	Y+9, r26	; 0x09
    423c:	ba 87       	std	Y+10, r27	; 0x0a
	if (__tmp < 1.0)
    423e:	6f 81       	ldd	r22, Y+7	; 0x07
    4240:	78 85       	ldd	r23, Y+8	; 0x08
    4242:	89 85       	ldd	r24, Y+9	; 0x09
    4244:	9a 85       	ldd	r25, Y+10	; 0x0a
    4246:	20 e0       	ldi	r18, 0x00	; 0
    4248:	30 e0       	ldi	r19, 0x00	; 0
    424a:	40 e8       	ldi	r20, 0x80	; 128
    424c:	5f e3       	ldi	r21, 0x3F	; 63
    424e:	0e 94 25 04 	call	0x84a	; 0x84a <__ltsf2>
    4252:	88 23       	and	r24, r24
    4254:	2c f4       	brge	.+10     	; 0x4260 <HLCD_vidInit+0x600>
		__ticks = 1;
    4256:	81 e0       	ldi	r24, 0x01	; 1
    4258:	90 e0       	ldi	r25, 0x00	; 0
    425a:	9e 83       	std	Y+6, r25	; 0x06
    425c:	8d 83       	std	Y+5, r24	; 0x05
    425e:	3f c0       	rjmp	.+126    	; 0x42de <HLCD_vidInit+0x67e>
	else if (__tmp > 65535)
    4260:	6f 81       	ldd	r22, Y+7	; 0x07
    4262:	78 85       	ldd	r23, Y+8	; 0x08
    4264:	89 85       	ldd	r24, Y+9	; 0x09
    4266:	9a 85       	ldd	r25, Y+10	; 0x0a
    4268:	20 e0       	ldi	r18, 0x00	; 0
    426a:	3f ef       	ldi	r19, 0xFF	; 255
    426c:	4f e7       	ldi	r20, 0x7F	; 127
    426e:	57 e4       	ldi	r21, 0x47	; 71
    4270:	0e 94 c5 03 	call	0x78a	; 0x78a <__gtsf2>
    4274:	18 16       	cp	r1, r24
    4276:	4c f5       	brge	.+82     	; 0x42ca <HLCD_vidInit+0x66a>
	{
		//	__ticks = requested delay in 1/10 ms
		__ticks = (uint16_t) (__ms * 10.0);
    4278:	6b 85       	ldd	r22, Y+11	; 0x0b
    427a:	7c 85       	ldd	r23, Y+12	; 0x0c
    427c:	8d 85       	ldd	r24, Y+13	; 0x0d
    427e:	9e 85       	ldd	r25, Y+14	; 0x0e
    4280:	20 e0       	ldi	r18, 0x00	; 0
    4282:	30 e0       	ldi	r19, 0x00	; 0
    4284:	40 e2       	ldi	r20, 0x20	; 32
    4286:	51 e4       	ldi	r21, 0x41	; 65
    4288:	0e 94 1f 02 	call	0x43e	; 0x43e <__mulsf3>
    428c:	dc 01       	movw	r26, r24
    428e:	cb 01       	movw	r24, r22
    4290:	bc 01       	movw	r22, r24
    4292:	cd 01       	movw	r24, r26
    4294:	0e 94 49 00 	call	0x92	; 0x92 <__fixunssfsi>
    4298:	dc 01       	movw	r26, r24
    429a:	cb 01       	movw	r24, r22
    429c:	9e 83       	std	Y+6, r25	; 0x06
    429e:	8d 83       	std	Y+5, r24	; 0x05
    42a0:	0f c0       	rjmp	.+30     	; 0x42c0 <HLCD_vidInit+0x660>
    42a2:	88 ec       	ldi	r24, 0xC8	; 200
    42a4:	90 e0       	ldi	r25, 0x00	; 0
    42a6:	9c 83       	std	Y+4, r25	; 0x04
    42a8:	8b 83       	std	Y+3, r24	; 0x03
    42aa:	8b 81       	ldd	r24, Y+3	; 0x03
    42ac:	9c 81       	ldd	r25, Y+4	; 0x04
    42ae:	01 97       	sbiw	r24, 0x01	; 1
    42b0:	f1 f7       	brne	.-4      	; 0x42ae <HLCD_vidInit+0x64e>
    42b2:	9c 83       	std	Y+4, r25	; 0x04
    42b4:	8b 83       	std	Y+3, r24	; 0x03
		while(__ticks)
		{
			// wait 1/10 ms
			_delay_loop_2(((F_CPU) / 4e3) / 10);
			__ticks --;
    42b6:	8d 81       	ldd	r24, Y+5	; 0x05
    42b8:	9e 81       	ldd	r25, Y+6	; 0x06
    42ba:	01 97       	sbiw	r24, 0x01	; 1
    42bc:	9e 83       	std	Y+6, r25	; 0x06
    42be:	8d 83       	std	Y+5, r24	; 0x05
		__ticks = 1;
	else if (__tmp > 65535)
	{
		//	__ticks = requested delay in 1/10 ms
		__ticks = (uint16_t) (__ms * 10.0);
		while(__ticks)
    42c0:	8d 81       	ldd	r24, Y+5	; 0x05
    42c2:	9e 81       	ldd	r25, Y+6	; 0x06
    42c4:	00 97       	sbiw	r24, 0x00	; 0
    42c6:	69 f7       	brne	.-38     	; 0x42a2 <HLCD_vidInit+0x642>
    42c8:	14 c0       	rjmp	.+40     	; 0x42f2 <HLCD_vidInit+0x692>
			__ticks --;
		}
		return;
	}
	else
		__ticks = (uint16_t)__tmp;
    42ca:	6f 81       	ldd	r22, Y+7	; 0x07
    42cc:	78 85       	ldd	r23, Y+8	; 0x08
    42ce:	89 85       	ldd	r24, Y+9	; 0x09
    42d0:	9a 85       	ldd	r25, Y+10	; 0x0a
    42d2:	0e 94 49 00 	call	0x92	; 0x92 <__fixunssfsi>
    42d6:	dc 01       	movw	r26, r24
    42d8:	cb 01       	movw	r24, r22
    42da:	9e 83       	std	Y+6, r25	; 0x06
    42dc:	8d 83       	std	Y+5, r24	; 0x05
    42de:	8d 81       	ldd	r24, Y+5	; 0x05
    42e0:	9e 81       	ldd	r25, Y+6	; 0x06
    42e2:	9a 83       	std	Y+2, r25	; 0x02
    42e4:	89 83       	std	Y+1, r24	; 0x01
    42e6:	89 81       	ldd	r24, Y+1	; 0x01
    42e8:	9a 81       	ldd	r25, Y+2	; 0x02
    42ea:	01 97       	sbiw	r24, 0x01	; 1
    42ec:	f1 f7       	brne	.-4      	; 0x42ea <HLCD_vidInit+0x68a>
    42ee:	9a 83       	std	Y+2, r25	; 0x02
    42f0:	89 83       	std	Y+1, r24	; 0x01
	_delay_ms(1);
}
    42f2:	cb 5a       	subi	r28, 0xAB	; 171
    42f4:	df 4f       	sbci	r29, 0xFF	; 255
    42f6:	0f b6       	in	r0, 0x3f	; 63
    42f8:	f8 94       	cli
    42fa:	de bf       	out	0x3e, r29	; 62
    42fc:	0f be       	out	0x3f, r0	; 63
    42fe:	cd bf       	out	0x3d, r28	; 61
    4300:	cf 91       	pop	r28
    4302:	df 91       	pop	r29
    4304:	1f 91       	pop	r17
    4306:	0f 91       	pop	r16
    4308:	08 95       	ret

0000430a <HLCD_vidWritecmd>:
 * input param 	:
 * 					u8commandCopy --> take lcd cmd instructions from instruction table <https://components101.com/sites/default/files/component_datasheet/16x2%20LCD%20Datasheet.pdf>
 * return		: void
 * */
void HLCD_vidWritecmd(Uint8_t u8commandCopy)
{
    430a:	df 93       	push	r29
    430c:	cf 93       	push	r28
    430e:	cd b7       	in	r28, 0x3d	; 61
    4310:	de b7       	in	r29, 0x3e	; 62
    4312:	c6 54       	subi	r28, 0x46	; 70
    4314:	d0 40       	sbci	r29, 0x00	; 0
    4316:	0f b6       	in	r0, 0x3f	; 63
    4318:	f8 94       	cli
    431a:	de bf       	out	0x3e, r29	; 62
    431c:	0f be       	out	0x3f, r0	; 63
    431e:	cd bf       	out	0x3d, r28	; 61
    4320:	fe 01       	movw	r30, r28
    4322:	ea 5b       	subi	r30, 0xBA	; 186
    4324:	ff 4f       	sbci	r31, 0xFF	; 255
    4326:	80 83       	st	Z, r24
	DIO_s8SETPinVal(LCD_RW_PORT_PIN, LOW); // WRITE
    4328:	82 e0       	ldi	r24, 0x02	; 2
    432a:	60 e0       	ldi	r22, 0x00	; 0
    432c:	0e 94 46 18 	call	0x308c	; 0x308c <DIO_s8SETPinVal>
	DIO_s8SETPinVal(LCD_RS_PORT_PIN, LOW); // CMD
    4330:	81 e0       	ldi	r24, 0x01	; 1
    4332:	60 e0       	ldi	r22, 0x00	; 0
    4334:	0e 94 46 18 	call	0x308c	; 0x308c <DIO_s8SETPinVal>

#if HLCD_MODE == HLCD_4_BIT_MODE

	Uint8_t loc_u8DataReg = 0;
    4338:	fe 01       	movw	r30, r28
    433a:	eb 5b       	subi	r30, 0xBB	; 187
    433c:	ff 4f       	sbci	r31, 0xFF	; 255
    433e:	10 82       	st	Z, r1
	loc_u8DataReg = (u8commandCopy & 0xF0);
    4340:	de 01       	movw	r26, r28
    4342:	ab 5b       	subi	r26, 0xBB	; 187
    4344:	bf 4f       	sbci	r27, 0xFF	; 255
    4346:	fe 01       	movw	r30, r28
    4348:	ea 5b       	subi	r30, 0xBA	; 186
    434a:	ff 4f       	sbci	r31, 0xFF	; 255
    434c:	80 81       	ld	r24, Z
    434e:	80 7f       	andi	r24, 0xF0	; 240
    4350:	8c 93       	st	X, r24
	loc_u8DataReg >>= 4;
    4352:	de 01       	movw	r26, r28
    4354:	ab 5b       	subi	r26, 0xBB	; 187
    4356:	bf 4f       	sbci	r27, 0xFF	; 255
    4358:	fe 01       	movw	r30, r28
    435a:	eb 5b       	subi	r30, 0xBB	; 187
    435c:	ff 4f       	sbci	r31, 0xFF	; 255
    435e:	80 81       	ld	r24, Z
    4360:	82 95       	swap	r24
    4362:	8f 70       	andi	r24, 0x0F	; 15
    4364:	8c 93       	st	X, r24

	for (Uint8_t i = 0; i < DATA_PIN_NUMBER; i++)
    4366:	fe 01       	movw	r30, r28
    4368:	ec 5b       	subi	r30, 0xBC	; 188
    436a:	ff 4f       	sbci	r31, 0xFF	; 255
    436c:	10 82       	st	Z, r1
    436e:	2c c0       	rjmp	.+88     	; 0x43c8 <HLCD_vidWritecmd+0xbe>
	{
		DIO_s8SETPinVal(dataPin[i].en_dataPin, ((loc_u8DataReg >> i)&1) );
    4370:	fe 01       	movw	r30, r28
    4372:	ec 5b       	subi	r30, 0xBC	; 188
    4374:	ff 4f       	sbci	r31, 0xFF	; 255
    4376:	80 81       	ld	r24, Z
    4378:	88 2f       	mov	r24, r24
    437a:	90 e0       	ldi	r25, 0x00	; 0
    437c:	fc 01       	movw	r30, r24
    437e:	ec 5a       	subi	r30, 0xAC	; 172
    4380:	fd 4f       	sbci	r31, 0xFD	; 253
    4382:	40 81       	ld	r20, Z
    4384:	fe 01       	movw	r30, r28
    4386:	eb 5b       	subi	r30, 0xBB	; 187
    4388:	ff 4f       	sbci	r31, 0xFF	; 255
    438a:	80 81       	ld	r24, Z
    438c:	28 2f       	mov	r18, r24
    438e:	30 e0       	ldi	r19, 0x00	; 0
    4390:	fe 01       	movw	r30, r28
    4392:	ec 5b       	subi	r30, 0xBC	; 188
    4394:	ff 4f       	sbci	r31, 0xFF	; 255
    4396:	80 81       	ld	r24, Z
    4398:	88 2f       	mov	r24, r24
    439a:	90 e0       	ldi	r25, 0x00	; 0
    439c:	b9 01       	movw	r22, r18
    439e:	02 c0       	rjmp	.+4      	; 0x43a4 <HLCD_vidWritecmd+0x9a>
    43a0:	75 95       	asr	r23
    43a2:	67 95       	ror	r22
    43a4:	8a 95       	dec	r24
    43a6:	e2 f7       	brpl	.-8      	; 0x43a0 <HLCD_vidWritecmd+0x96>
    43a8:	cb 01       	movw	r24, r22
    43aa:	98 2f       	mov	r25, r24
    43ac:	91 70       	andi	r25, 0x01	; 1
    43ae:	84 2f       	mov	r24, r20
    43b0:	69 2f       	mov	r22, r25
    43b2:	0e 94 46 18 	call	0x308c	; 0x308c <DIO_s8SETPinVal>

	Uint8_t loc_u8DataReg = 0;
	loc_u8DataReg = (u8commandCopy & 0xF0);
	loc_u8DataReg >>= 4;

	for (Uint8_t i = 0; i < DATA_PIN_NUMBER; i++)
    43b6:	de 01       	movw	r26, r28
    43b8:	ac 5b       	subi	r26, 0xBC	; 188
    43ba:	bf 4f       	sbci	r27, 0xFF	; 255
    43bc:	fe 01       	movw	r30, r28
    43be:	ec 5b       	subi	r30, 0xBC	; 188
    43c0:	ff 4f       	sbci	r31, 0xFF	; 255
    43c2:	80 81       	ld	r24, Z
    43c4:	8f 5f       	subi	r24, 0xFF	; 255
    43c6:	8c 93       	st	X, r24
    43c8:	fe 01       	movw	r30, r28
    43ca:	ec 5b       	subi	r30, 0xBC	; 188
    43cc:	ff 4f       	sbci	r31, 0xFF	; 255
    43ce:	80 81       	ld	r24, Z
    43d0:	84 30       	cpi	r24, 0x04	; 4
    43d2:	70 f2       	brcs	.-100    	; 0x4370 <HLCD_vidWritecmd+0x66>
	{
		DIO_s8SETPinVal(dataPin[i].en_dataPin, ((loc_u8DataReg >> i)&1) );
	}

	DIO_s8SETPinVal(LCD_EN_PORT_PIN, HIGH); //ENABLE high
    43d4:	83 e0       	ldi	r24, 0x03	; 3
    43d6:	61 e0       	ldi	r22, 0x01	; 1
    43d8:	0e 94 46 18 	call	0x308c	; 0x308c <DIO_s8SETPinVal>
    43dc:	fe 01       	movw	r30, r28
    43de:	ff 96       	adiw	r30, 0x3f	; 63
    43e0:	80 e0       	ldi	r24, 0x00	; 0
    43e2:	90 e0       	ldi	r25, 0x00	; 0
    43e4:	a0 e8       	ldi	r26, 0x80	; 128
    43e6:	bf e3       	ldi	r27, 0x3F	; 63
    43e8:	80 83       	st	Z, r24
    43ea:	91 83       	std	Z+1, r25	; 0x01
    43ec:	a2 83       	std	Z+2, r26	; 0x02
    43ee:	b3 83       	std	Z+3, r27	; 0x03
 */
void
_delay_ms(double __ms)
{
	uint16_t __ticks;
	double __tmp = ((F_CPU) / 4e3) * __ms;
    43f0:	fe 01       	movw	r30, r28
    43f2:	ff 96       	adiw	r30, 0x3f	; 63
    43f4:	60 81       	ld	r22, Z
    43f6:	71 81       	ldd	r23, Z+1	; 0x01
    43f8:	82 81       	ldd	r24, Z+2	; 0x02
    43fa:	93 81       	ldd	r25, Z+3	; 0x03
    43fc:	20 e0       	ldi	r18, 0x00	; 0
    43fe:	30 e0       	ldi	r19, 0x00	; 0
    4400:	4a ef       	ldi	r20, 0xFA	; 250
    4402:	54 e4       	ldi	r21, 0x44	; 68
    4404:	0e 94 1f 02 	call	0x43e	; 0x43e <__mulsf3>
    4408:	dc 01       	movw	r26, r24
    440a:	cb 01       	movw	r24, r22
    440c:	8b af       	std	Y+59, r24	; 0x3b
    440e:	9c af       	std	Y+60, r25	; 0x3c
    4410:	ad af       	std	Y+61, r26	; 0x3d
    4412:	be af       	std	Y+62, r27	; 0x3e
	if (__tmp < 1.0)
    4414:	6b ad       	ldd	r22, Y+59	; 0x3b
    4416:	7c ad       	ldd	r23, Y+60	; 0x3c
    4418:	8d ad       	ldd	r24, Y+61	; 0x3d
    441a:	9e ad       	ldd	r25, Y+62	; 0x3e
    441c:	20 e0       	ldi	r18, 0x00	; 0
    441e:	30 e0       	ldi	r19, 0x00	; 0
    4420:	40 e8       	ldi	r20, 0x80	; 128
    4422:	5f e3       	ldi	r21, 0x3F	; 63
    4424:	0e 94 25 04 	call	0x84a	; 0x84a <__ltsf2>
    4428:	88 23       	and	r24, r24
    442a:	2c f4       	brge	.+10     	; 0x4436 <HLCD_vidWritecmd+0x12c>
		__ticks = 1;
    442c:	81 e0       	ldi	r24, 0x01	; 1
    442e:	90 e0       	ldi	r25, 0x00	; 0
    4430:	9a af       	std	Y+58, r25	; 0x3a
    4432:	89 af       	std	Y+57, r24	; 0x39
    4434:	41 c0       	rjmp	.+130    	; 0x44b8 <HLCD_vidWritecmd+0x1ae>
	else if (__tmp > 65535)
    4436:	6b ad       	ldd	r22, Y+59	; 0x3b
    4438:	7c ad       	ldd	r23, Y+60	; 0x3c
    443a:	8d ad       	ldd	r24, Y+61	; 0x3d
    443c:	9e ad       	ldd	r25, Y+62	; 0x3e
    443e:	20 e0       	ldi	r18, 0x00	; 0
    4440:	3f ef       	ldi	r19, 0xFF	; 255
    4442:	4f e7       	ldi	r20, 0x7F	; 127
    4444:	57 e4       	ldi	r21, 0x47	; 71
    4446:	0e 94 c5 03 	call	0x78a	; 0x78a <__gtsf2>
    444a:	18 16       	cp	r1, r24
    444c:	5c f5       	brge	.+86     	; 0x44a4 <HLCD_vidWritecmd+0x19a>
	{
		//	__ticks = requested delay in 1/10 ms
		__ticks = (uint16_t) (__ms * 10.0);
    444e:	fe 01       	movw	r30, r28
    4450:	ff 96       	adiw	r30, 0x3f	; 63
    4452:	60 81       	ld	r22, Z
    4454:	71 81       	ldd	r23, Z+1	; 0x01
    4456:	82 81       	ldd	r24, Z+2	; 0x02
    4458:	93 81       	ldd	r25, Z+3	; 0x03
    445a:	20 e0       	ldi	r18, 0x00	; 0
    445c:	30 e0       	ldi	r19, 0x00	; 0
    445e:	40 e2       	ldi	r20, 0x20	; 32
    4460:	51 e4       	ldi	r21, 0x41	; 65
    4462:	0e 94 1f 02 	call	0x43e	; 0x43e <__mulsf3>
    4466:	dc 01       	movw	r26, r24
    4468:	cb 01       	movw	r24, r22
    446a:	bc 01       	movw	r22, r24
    446c:	cd 01       	movw	r24, r26
    446e:	0e 94 49 00 	call	0x92	; 0x92 <__fixunssfsi>
    4472:	dc 01       	movw	r26, r24
    4474:	cb 01       	movw	r24, r22
    4476:	9a af       	std	Y+58, r25	; 0x3a
    4478:	89 af       	std	Y+57, r24	; 0x39
    447a:	0f c0       	rjmp	.+30     	; 0x449a <HLCD_vidWritecmd+0x190>
    447c:	88 ec       	ldi	r24, 0xC8	; 200
    447e:	90 e0       	ldi	r25, 0x00	; 0
    4480:	98 af       	std	Y+56, r25	; 0x38
    4482:	8f ab       	std	Y+55, r24	; 0x37
    4484:	8f a9       	ldd	r24, Y+55	; 0x37
    4486:	98 ad       	ldd	r25, Y+56	; 0x38
    4488:	01 97       	sbiw	r24, 0x01	; 1
    448a:	f1 f7       	brne	.-4      	; 0x4488 <HLCD_vidWritecmd+0x17e>
    448c:	98 af       	std	Y+56, r25	; 0x38
    448e:	8f ab       	std	Y+55, r24	; 0x37
		while(__ticks)
		{
			// wait 1/10 ms
			_delay_loop_2(((F_CPU) / 4e3) / 10);
			__ticks --;
    4490:	89 ad       	ldd	r24, Y+57	; 0x39
    4492:	9a ad       	ldd	r25, Y+58	; 0x3a
    4494:	01 97       	sbiw	r24, 0x01	; 1
    4496:	9a af       	std	Y+58, r25	; 0x3a
    4498:	89 af       	std	Y+57, r24	; 0x39
		__ticks = 1;
	else if (__tmp > 65535)
	{
		//	__ticks = requested delay in 1/10 ms
		__ticks = (uint16_t) (__ms * 10.0);
		while(__ticks)
    449a:	89 ad       	ldd	r24, Y+57	; 0x39
    449c:	9a ad       	ldd	r25, Y+58	; 0x3a
    449e:	00 97       	sbiw	r24, 0x00	; 0
    44a0:	69 f7       	brne	.-38     	; 0x447c <HLCD_vidWritecmd+0x172>
    44a2:	14 c0       	rjmp	.+40     	; 0x44cc <HLCD_vidWritecmd+0x1c2>
			__ticks --;
		}
		return;
	}
	else
		__ticks = (uint16_t)__tmp;
    44a4:	6b ad       	ldd	r22, Y+59	; 0x3b
    44a6:	7c ad       	ldd	r23, Y+60	; 0x3c
    44a8:	8d ad       	ldd	r24, Y+61	; 0x3d
    44aa:	9e ad       	ldd	r25, Y+62	; 0x3e
    44ac:	0e 94 49 00 	call	0x92	; 0x92 <__fixunssfsi>
    44b0:	dc 01       	movw	r26, r24
    44b2:	cb 01       	movw	r24, r22
    44b4:	9a af       	std	Y+58, r25	; 0x3a
    44b6:	89 af       	std	Y+57, r24	; 0x39
    44b8:	89 ad       	ldd	r24, Y+57	; 0x39
    44ba:	9a ad       	ldd	r25, Y+58	; 0x3a
    44bc:	9e ab       	std	Y+54, r25	; 0x36
    44be:	8d ab       	std	Y+53, r24	; 0x35
    44c0:	8d a9       	ldd	r24, Y+53	; 0x35
    44c2:	9e a9       	ldd	r25, Y+54	; 0x36
    44c4:	01 97       	sbiw	r24, 0x01	; 1
    44c6:	f1 f7       	brne	.-4      	; 0x44c4 <HLCD_vidWritecmd+0x1ba>
    44c8:	9e ab       	std	Y+54, r25	; 0x36
    44ca:	8d ab       	std	Y+53, r24	; 0x35
	_delay_ms(1);
	DIO_s8SETPinVal(LCD_EN_PORT_PIN, LOW); //ENABLE low
    44cc:	83 e0       	ldi	r24, 0x03	; 3
    44ce:	60 e0       	ldi	r22, 0x00	; 0
    44d0:	0e 94 46 18 	call	0x308c	; 0x308c <DIO_s8SETPinVal>
    44d4:	80 e0       	ldi	r24, 0x00	; 0
    44d6:	90 e0       	ldi	r25, 0x00	; 0
    44d8:	a8 e4       	ldi	r26, 0x48	; 72
    44da:	b3 e4       	ldi	r27, 0x43	; 67
    44dc:	89 ab       	std	Y+49, r24	; 0x31
    44de:	9a ab       	std	Y+50, r25	; 0x32
    44e0:	ab ab       	std	Y+51, r26	; 0x33
    44e2:	bc ab       	std	Y+52, r27	; 0x34
 */
void
_delay_us(double __us)
{
	uint8_t __ticks;
	double __tmp = ((F_CPU) / 3e6) * __us;
    44e4:	69 a9       	ldd	r22, Y+49	; 0x31
    44e6:	7a a9       	ldd	r23, Y+50	; 0x32
    44e8:	8b a9       	ldd	r24, Y+51	; 0x33
    44ea:	9c a9       	ldd	r25, Y+52	; 0x34
    44ec:	2b ea       	ldi	r18, 0xAB	; 171
    44ee:	3a ea       	ldi	r19, 0xAA	; 170
    44f0:	4a e2       	ldi	r20, 0x2A	; 42
    44f2:	50 e4       	ldi	r21, 0x40	; 64
    44f4:	0e 94 1f 02 	call	0x43e	; 0x43e <__mulsf3>
    44f8:	dc 01       	movw	r26, r24
    44fa:	cb 01       	movw	r24, r22
    44fc:	8d a7       	std	Y+45, r24	; 0x2d
    44fe:	9e a7       	std	Y+46, r25	; 0x2e
    4500:	af a7       	std	Y+47, r26	; 0x2f
    4502:	b8 ab       	std	Y+48, r27	; 0x30
	if (__tmp < 1.0)
    4504:	6d a5       	ldd	r22, Y+45	; 0x2d
    4506:	7e a5       	ldd	r23, Y+46	; 0x2e
    4508:	8f a5       	ldd	r24, Y+47	; 0x2f
    450a:	98 a9       	ldd	r25, Y+48	; 0x30
    450c:	20 e0       	ldi	r18, 0x00	; 0
    450e:	30 e0       	ldi	r19, 0x00	; 0
    4510:	40 e8       	ldi	r20, 0x80	; 128
    4512:	5f e3       	ldi	r21, 0x3F	; 63
    4514:	0e 94 25 04 	call	0x84a	; 0x84a <__ltsf2>
    4518:	88 23       	and	r24, r24
    451a:	1c f4       	brge	.+6      	; 0x4522 <HLCD_vidWritecmd+0x218>
		__ticks = 1;
    451c:	81 e0       	ldi	r24, 0x01	; 1
    451e:	8c a7       	std	Y+44, r24	; 0x2c
    4520:	91 c0       	rjmp	.+290    	; 0x4644 <HLCD_vidWritecmd+0x33a>
	else if (__tmp > 255)
    4522:	6d a5       	ldd	r22, Y+45	; 0x2d
    4524:	7e a5       	ldd	r23, Y+46	; 0x2e
    4526:	8f a5       	ldd	r24, Y+47	; 0x2f
    4528:	98 a9       	ldd	r25, Y+48	; 0x30
    452a:	20 e0       	ldi	r18, 0x00	; 0
    452c:	30 e0       	ldi	r19, 0x00	; 0
    452e:	4f e7       	ldi	r20, 0x7F	; 127
    4530:	53 e4       	ldi	r21, 0x43	; 67
    4532:	0e 94 c5 03 	call	0x78a	; 0x78a <__gtsf2>
    4536:	18 16       	cp	r1, r24
    4538:	0c f0       	brlt	.+2      	; 0x453c <HLCD_vidWritecmd+0x232>
    453a:	7b c0       	rjmp	.+246    	; 0x4632 <HLCD_vidWritecmd+0x328>
	{
		_delay_ms(__us / 1000.0);
    453c:	69 a9       	ldd	r22, Y+49	; 0x31
    453e:	7a a9       	ldd	r23, Y+50	; 0x32
    4540:	8b a9       	ldd	r24, Y+51	; 0x33
    4542:	9c a9       	ldd	r25, Y+52	; 0x34
    4544:	20 e0       	ldi	r18, 0x00	; 0
    4546:	30 e0       	ldi	r19, 0x00	; 0
    4548:	4a e7       	ldi	r20, 0x7A	; 122
    454a:	54 e4       	ldi	r21, 0x44	; 68
    454c:	0e 94 19 03 	call	0x632	; 0x632 <__divsf3>
    4550:	dc 01       	movw	r26, r24
    4552:	cb 01       	movw	r24, r22
    4554:	88 a7       	std	Y+40, r24	; 0x28
    4556:	99 a7       	std	Y+41, r25	; 0x29
    4558:	aa a7       	std	Y+42, r26	; 0x2a
    455a:	bb a7       	std	Y+43, r27	; 0x2b
 */
void
_delay_ms(double __ms)
{
	uint16_t __ticks;
	double __tmp = ((F_CPU) / 4e3) * __ms;
    455c:	68 a5       	ldd	r22, Y+40	; 0x28
    455e:	79 a5       	ldd	r23, Y+41	; 0x29
    4560:	8a a5       	ldd	r24, Y+42	; 0x2a
    4562:	9b a5       	ldd	r25, Y+43	; 0x2b
    4564:	20 e0       	ldi	r18, 0x00	; 0
    4566:	30 e0       	ldi	r19, 0x00	; 0
    4568:	4a ef       	ldi	r20, 0xFA	; 250
    456a:	54 e4       	ldi	r21, 0x44	; 68
    456c:	0e 94 1f 02 	call	0x43e	; 0x43e <__mulsf3>
    4570:	dc 01       	movw	r26, r24
    4572:	cb 01       	movw	r24, r22
    4574:	8c a3       	std	Y+36, r24	; 0x24
    4576:	9d a3       	std	Y+37, r25	; 0x25
    4578:	ae a3       	std	Y+38, r26	; 0x26
    457a:	bf a3       	std	Y+39, r27	; 0x27
	if (__tmp < 1.0)
    457c:	6c a1       	ldd	r22, Y+36	; 0x24
    457e:	7d a1       	ldd	r23, Y+37	; 0x25
    4580:	8e a1       	ldd	r24, Y+38	; 0x26
    4582:	9f a1       	ldd	r25, Y+39	; 0x27
    4584:	20 e0       	ldi	r18, 0x00	; 0
    4586:	30 e0       	ldi	r19, 0x00	; 0
    4588:	40 e8       	ldi	r20, 0x80	; 128
    458a:	5f e3       	ldi	r21, 0x3F	; 63
    458c:	0e 94 25 04 	call	0x84a	; 0x84a <__ltsf2>
    4590:	88 23       	and	r24, r24
    4592:	2c f4       	brge	.+10     	; 0x459e <HLCD_vidWritecmd+0x294>
		__ticks = 1;
    4594:	81 e0       	ldi	r24, 0x01	; 1
    4596:	90 e0       	ldi	r25, 0x00	; 0
    4598:	9b a3       	std	Y+35, r25	; 0x23
    459a:	8a a3       	std	Y+34, r24	; 0x22
    459c:	3f c0       	rjmp	.+126    	; 0x461c <HLCD_vidWritecmd+0x312>
	else if (__tmp > 65535)
    459e:	6c a1       	ldd	r22, Y+36	; 0x24
    45a0:	7d a1       	ldd	r23, Y+37	; 0x25
    45a2:	8e a1       	ldd	r24, Y+38	; 0x26
    45a4:	9f a1       	ldd	r25, Y+39	; 0x27
    45a6:	20 e0       	ldi	r18, 0x00	; 0
    45a8:	3f ef       	ldi	r19, 0xFF	; 255
    45aa:	4f e7       	ldi	r20, 0x7F	; 127
    45ac:	57 e4       	ldi	r21, 0x47	; 71
    45ae:	0e 94 c5 03 	call	0x78a	; 0x78a <__gtsf2>
    45b2:	18 16       	cp	r1, r24
    45b4:	4c f5       	brge	.+82     	; 0x4608 <HLCD_vidWritecmd+0x2fe>
	{
		//	__ticks = requested delay in 1/10 ms
		__ticks = (uint16_t) (__ms * 10.0);
    45b6:	68 a5       	ldd	r22, Y+40	; 0x28
    45b8:	79 a5       	ldd	r23, Y+41	; 0x29
    45ba:	8a a5       	ldd	r24, Y+42	; 0x2a
    45bc:	9b a5       	ldd	r25, Y+43	; 0x2b
    45be:	20 e0       	ldi	r18, 0x00	; 0
    45c0:	30 e0       	ldi	r19, 0x00	; 0
    45c2:	40 e2       	ldi	r20, 0x20	; 32
    45c4:	51 e4       	ldi	r21, 0x41	; 65
    45c6:	0e 94 1f 02 	call	0x43e	; 0x43e <__mulsf3>
    45ca:	dc 01       	movw	r26, r24
    45cc:	cb 01       	movw	r24, r22
    45ce:	bc 01       	movw	r22, r24
    45d0:	cd 01       	movw	r24, r26
    45d2:	0e 94 49 00 	call	0x92	; 0x92 <__fixunssfsi>
    45d6:	dc 01       	movw	r26, r24
    45d8:	cb 01       	movw	r24, r22
    45da:	9b a3       	std	Y+35, r25	; 0x23
    45dc:	8a a3       	std	Y+34, r24	; 0x22
    45de:	0f c0       	rjmp	.+30     	; 0x45fe <HLCD_vidWritecmd+0x2f4>
    45e0:	88 ec       	ldi	r24, 0xC8	; 200
    45e2:	90 e0       	ldi	r25, 0x00	; 0
    45e4:	99 a3       	std	Y+33, r25	; 0x21
    45e6:	88 a3       	std	Y+32, r24	; 0x20
    45e8:	88 a1       	ldd	r24, Y+32	; 0x20
    45ea:	99 a1       	ldd	r25, Y+33	; 0x21
    45ec:	01 97       	sbiw	r24, 0x01	; 1
    45ee:	f1 f7       	brne	.-4      	; 0x45ec <HLCD_vidWritecmd+0x2e2>
    45f0:	99 a3       	std	Y+33, r25	; 0x21
    45f2:	88 a3       	std	Y+32, r24	; 0x20
		while(__ticks)
		{
			// wait 1/10 ms
			_delay_loop_2(((F_CPU) / 4e3) / 10);
			__ticks --;
    45f4:	8a a1       	ldd	r24, Y+34	; 0x22
    45f6:	9b a1       	ldd	r25, Y+35	; 0x23
    45f8:	01 97       	sbiw	r24, 0x01	; 1
    45fa:	9b a3       	std	Y+35, r25	; 0x23
    45fc:	8a a3       	std	Y+34, r24	; 0x22
		__ticks = 1;
	else if (__tmp > 65535)
	{
		//	__ticks = requested delay in 1/10 ms
		__ticks = (uint16_t) (__ms * 10.0);
		while(__ticks)
    45fe:	8a a1       	ldd	r24, Y+34	; 0x22
    4600:	9b a1       	ldd	r25, Y+35	; 0x23
    4602:	00 97       	sbiw	r24, 0x00	; 0
    4604:	69 f7       	brne	.-38     	; 0x45e0 <HLCD_vidWritecmd+0x2d6>
    4606:	24 c0       	rjmp	.+72     	; 0x4650 <HLCD_vidWritecmd+0x346>
			__ticks --;
		}
		return;
	}
	else
		__ticks = (uint16_t)__tmp;
    4608:	6c a1       	ldd	r22, Y+36	; 0x24
    460a:	7d a1       	ldd	r23, Y+37	; 0x25
    460c:	8e a1       	ldd	r24, Y+38	; 0x26
    460e:	9f a1       	ldd	r25, Y+39	; 0x27
    4610:	0e 94 49 00 	call	0x92	; 0x92 <__fixunssfsi>
    4614:	dc 01       	movw	r26, r24
    4616:	cb 01       	movw	r24, r22
    4618:	9b a3       	std	Y+35, r25	; 0x23
    461a:	8a a3       	std	Y+34, r24	; 0x22
    461c:	8a a1       	ldd	r24, Y+34	; 0x22
    461e:	9b a1       	ldd	r25, Y+35	; 0x23
    4620:	9f 8f       	std	Y+31, r25	; 0x1f
    4622:	8e 8f       	std	Y+30, r24	; 0x1e
    4624:	8e 8d       	ldd	r24, Y+30	; 0x1e
    4626:	9f 8d       	ldd	r25, Y+31	; 0x1f
    4628:	01 97       	sbiw	r24, 0x01	; 1
    462a:	f1 f7       	brne	.-4      	; 0x4628 <HLCD_vidWritecmd+0x31e>
    462c:	9f 8f       	std	Y+31, r25	; 0x1f
    462e:	8e 8f       	std	Y+30, r24	; 0x1e
    4630:	0f c0       	rjmp	.+30     	; 0x4650 <HLCD_vidWritecmd+0x346>
	{
		_delay_ms(__us / 1000.0);
		return;
	}
	else
		__ticks = (uint8_t)__tmp;
    4632:	6d a5       	ldd	r22, Y+45	; 0x2d
    4634:	7e a5       	ldd	r23, Y+46	; 0x2e
    4636:	8f a5       	ldd	r24, Y+47	; 0x2f
    4638:	98 a9       	ldd	r25, Y+48	; 0x30
    463a:	0e 94 49 00 	call	0x92	; 0x92 <__fixunssfsi>
    463e:	dc 01       	movw	r26, r24
    4640:	cb 01       	movw	r24, r22
    4642:	8c a7       	std	Y+44, r24	; 0x2c
    4644:	8c a5       	ldd	r24, Y+44	; 0x2c
    4646:	8d 8f       	std	Y+29, r24	; 0x1d
    can be achieved.
*/
void
_delay_loop_1(uint8_t __count)
{
	__asm__ volatile (
    4648:	8d 8d       	ldd	r24, Y+29	; 0x1d
    464a:	8a 95       	dec	r24
    464c:	f1 f7       	brne	.-4      	; 0x464a <HLCD_vidWritecmd+0x340>
    464e:	8d 8f       	std	Y+29, r24	; 0x1d

	_delay_us(200);

	loc_u8DataReg = (u8commandCopy & 0x0F);
    4650:	de 01       	movw	r26, r28
    4652:	ab 5b       	subi	r26, 0xBB	; 187
    4654:	bf 4f       	sbci	r27, 0xFF	; 255
    4656:	fe 01       	movw	r30, r28
    4658:	ea 5b       	subi	r30, 0xBA	; 186
    465a:	ff 4f       	sbci	r31, 0xFF	; 255
    465c:	80 81       	ld	r24, Z
    465e:	8f 70       	andi	r24, 0x0F	; 15
    4660:	8c 93       	st	X, r24

	for (Uint8_t i = 0; i < DATA_PIN_NUMBER; i++)
    4662:	fe 01       	movw	r30, r28
    4664:	ed 5b       	subi	r30, 0xBD	; 189
    4666:	ff 4f       	sbci	r31, 0xFF	; 255
    4668:	10 82       	st	Z, r1
    466a:	2c c0       	rjmp	.+88     	; 0x46c4 <HLCD_vidWritecmd+0x3ba>
	{
		DIO_s8SETPinVal(dataPin[i].en_dataPin, ((loc_u8DataReg >> i)&1) );
    466c:	fe 01       	movw	r30, r28
    466e:	ed 5b       	subi	r30, 0xBD	; 189
    4670:	ff 4f       	sbci	r31, 0xFF	; 255
    4672:	80 81       	ld	r24, Z
    4674:	88 2f       	mov	r24, r24
    4676:	90 e0       	ldi	r25, 0x00	; 0
    4678:	fc 01       	movw	r30, r24
    467a:	ec 5a       	subi	r30, 0xAC	; 172
    467c:	fd 4f       	sbci	r31, 0xFD	; 253
    467e:	40 81       	ld	r20, Z
    4680:	fe 01       	movw	r30, r28
    4682:	eb 5b       	subi	r30, 0xBB	; 187
    4684:	ff 4f       	sbci	r31, 0xFF	; 255
    4686:	80 81       	ld	r24, Z
    4688:	28 2f       	mov	r18, r24
    468a:	30 e0       	ldi	r19, 0x00	; 0
    468c:	fe 01       	movw	r30, r28
    468e:	ed 5b       	subi	r30, 0xBD	; 189
    4690:	ff 4f       	sbci	r31, 0xFF	; 255
    4692:	80 81       	ld	r24, Z
    4694:	88 2f       	mov	r24, r24
    4696:	90 e0       	ldi	r25, 0x00	; 0
    4698:	b9 01       	movw	r22, r18
    469a:	02 c0       	rjmp	.+4      	; 0x46a0 <HLCD_vidWritecmd+0x396>
    469c:	75 95       	asr	r23
    469e:	67 95       	ror	r22
    46a0:	8a 95       	dec	r24
    46a2:	e2 f7       	brpl	.-8      	; 0x469c <HLCD_vidWritecmd+0x392>
    46a4:	cb 01       	movw	r24, r22
    46a6:	98 2f       	mov	r25, r24
    46a8:	91 70       	andi	r25, 0x01	; 1
    46aa:	84 2f       	mov	r24, r20
    46ac:	69 2f       	mov	r22, r25
    46ae:	0e 94 46 18 	call	0x308c	; 0x308c <DIO_s8SETPinVal>

	_delay_us(200);

	loc_u8DataReg = (u8commandCopy & 0x0F);

	for (Uint8_t i = 0; i < DATA_PIN_NUMBER; i++)
    46b2:	de 01       	movw	r26, r28
    46b4:	ad 5b       	subi	r26, 0xBD	; 189
    46b6:	bf 4f       	sbci	r27, 0xFF	; 255
    46b8:	fe 01       	movw	r30, r28
    46ba:	ed 5b       	subi	r30, 0xBD	; 189
    46bc:	ff 4f       	sbci	r31, 0xFF	; 255
    46be:	80 81       	ld	r24, Z
    46c0:	8f 5f       	subi	r24, 0xFF	; 255
    46c2:	8c 93       	st	X, r24
    46c4:	fe 01       	movw	r30, r28
    46c6:	ed 5b       	subi	r30, 0xBD	; 189
    46c8:	ff 4f       	sbci	r31, 0xFF	; 255
    46ca:	80 81       	ld	r24, Z
    46cc:	84 30       	cpi	r24, 0x04	; 4
    46ce:	70 f2       	brcs	.-100    	; 0x466c <HLCD_vidWritecmd+0x362>
	{
		DIO_s8SETPinVal(dataPin[i].en_dataPin, ((loc_u8DataReg >> i)&1) );
	}
	DIO_s8SETPinVal(LCD_EN_PORT_PIN, HIGH); //ENABLE high
    46d0:	83 e0       	ldi	r24, 0x03	; 3
    46d2:	61 e0       	ldi	r22, 0x01	; 1
    46d4:	0e 94 46 18 	call	0x308c	; 0x308c <DIO_s8SETPinVal>
    46d8:	80 e0       	ldi	r24, 0x00	; 0
    46da:	90 e0       	ldi	r25, 0x00	; 0
    46dc:	a0 e8       	ldi	r26, 0x80	; 128
    46de:	bf e3       	ldi	r27, 0x3F	; 63
    46e0:	89 8f       	std	Y+25, r24	; 0x19
    46e2:	9a 8f       	std	Y+26, r25	; 0x1a
    46e4:	ab 8f       	std	Y+27, r26	; 0x1b
    46e6:	bc 8f       	std	Y+28, r27	; 0x1c
 */
void
_delay_ms(double __ms)
{
	uint16_t __ticks;
	double __tmp = ((F_CPU) / 4e3) * __ms;
    46e8:	69 8d       	ldd	r22, Y+25	; 0x19
    46ea:	7a 8d       	ldd	r23, Y+26	; 0x1a
    46ec:	8b 8d       	ldd	r24, Y+27	; 0x1b
    46ee:	9c 8d       	ldd	r25, Y+28	; 0x1c
    46f0:	20 e0       	ldi	r18, 0x00	; 0
    46f2:	30 e0       	ldi	r19, 0x00	; 0
    46f4:	4a ef       	ldi	r20, 0xFA	; 250
    46f6:	54 e4       	ldi	r21, 0x44	; 68
    46f8:	0e 94 1f 02 	call	0x43e	; 0x43e <__mulsf3>
    46fc:	dc 01       	movw	r26, r24
    46fe:	cb 01       	movw	r24, r22
    4700:	8d 8b       	std	Y+21, r24	; 0x15
    4702:	9e 8b       	std	Y+22, r25	; 0x16
    4704:	af 8b       	std	Y+23, r26	; 0x17
    4706:	b8 8f       	std	Y+24, r27	; 0x18
	if (__tmp < 1.0)
    4708:	6d 89       	ldd	r22, Y+21	; 0x15
    470a:	7e 89       	ldd	r23, Y+22	; 0x16
    470c:	8f 89       	ldd	r24, Y+23	; 0x17
    470e:	98 8d       	ldd	r25, Y+24	; 0x18
    4710:	20 e0       	ldi	r18, 0x00	; 0
    4712:	30 e0       	ldi	r19, 0x00	; 0
    4714:	40 e8       	ldi	r20, 0x80	; 128
    4716:	5f e3       	ldi	r21, 0x3F	; 63
    4718:	0e 94 25 04 	call	0x84a	; 0x84a <__ltsf2>
    471c:	88 23       	and	r24, r24
    471e:	2c f4       	brge	.+10     	; 0x472a <HLCD_vidWritecmd+0x420>
		__ticks = 1;
    4720:	81 e0       	ldi	r24, 0x01	; 1
    4722:	90 e0       	ldi	r25, 0x00	; 0
    4724:	9c 8b       	std	Y+20, r25	; 0x14
    4726:	8b 8b       	std	Y+19, r24	; 0x13
    4728:	3f c0       	rjmp	.+126    	; 0x47a8 <HLCD_vidWritecmd+0x49e>
	else if (__tmp > 65535)
    472a:	6d 89       	ldd	r22, Y+21	; 0x15
    472c:	7e 89       	ldd	r23, Y+22	; 0x16
    472e:	8f 89       	ldd	r24, Y+23	; 0x17
    4730:	98 8d       	ldd	r25, Y+24	; 0x18
    4732:	20 e0       	ldi	r18, 0x00	; 0
    4734:	3f ef       	ldi	r19, 0xFF	; 255
    4736:	4f e7       	ldi	r20, 0x7F	; 127
    4738:	57 e4       	ldi	r21, 0x47	; 71
    473a:	0e 94 c5 03 	call	0x78a	; 0x78a <__gtsf2>
    473e:	18 16       	cp	r1, r24
    4740:	4c f5       	brge	.+82     	; 0x4794 <HLCD_vidWritecmd+0x48a>
	{
		//	__ticks = requested delay in 1/10 ms
		__ticks = (uint16_t) (__ms * 10.0);
    4742:	69 8d       	ldd	r22, Y+25	; 0x19
    4744:	7a 8d       	ldd	r23, Y+26	; 0x1a
    4746:	8b 8d       	ldd	r24, Y+27	; 0x1b
    4748:	9c 8d       	ldd	r25, Y+28	; 0x1c
    474a:	20 e0       	ldi	r18, 0x00	; 0
    474c:	30 e0       	ldi	r19, 0x00	; 0
    474e:	40 e2       	ldi	r20, 0x20	; 32
    4750:	51 e4       	ldi	r21, 0x41	; 65
    4752:	0e 94 1f 02 	call	0x43e	; 0x43e <__mulsf3>
    4756:	dc 01       	movw	r26, r24
    4758:	cb 01       	movw	r24, r22
    475a:	bc 01       	movw	r22, r24
    475c:	cd 01       	movw	r24, r26
    475e:	0e 94 49 00 	call	0x92	; 0x92 <__fixunssfsi>
    4762:	dc 01       	movw	r26, r24
    4764:	cb 01       	movw	r24, r22
    4766:	9c 8b       	std	Y+20, r25	; 0x14
    4768:	8b 8b       	std	Y+19, r24	; 0x13
    476a:	0f c0       	rjmp	.+30     	; 0x478a <HLCD_vidWritecmd+0x480>
    476c:	88 ec       	ldi	r24, 0xC8	; 200
    476e:	90 e0       	ldi	r25, 0x00	; 0
    4770:	9a 8b       	std	Y+18, r25	; 0x12
    4772:	89 8b       	std	Y+17, r24	; 0x11
    milliseconds can be achieved.
 */
void
_delay_loop_2(uint16_t __count)
{
	__asm__ volatile (
    4774:	89 89       	ldd	r24, Y+17	; 0x11
    4776:	9a 89       	ldd	r25, Y+18	; 0x12
    4778:	01 97       	sbiw	r24, 0x01	; 1
    477a:	f1 f7       	brne	.-4      	; 0x4778 <HLCD_vidWritecmd+0x46e>
    477c:	9a 8b       	std	Y+18, r25	; 0x12
    477e:	89 8b       	std	Y+17, r24	; 0x11
		while(__ticks)
		{
			// wait 1/10 ms
			_delay_loop_2(((F_CPU) / 4e3) / 10);
			__ticks --;
    4780:	8b 89       	ldd	r24, Y+19	; 0x13
    4782:	9c 89       	ldd	r25, Y+20	; 0x14
    4784:	01 97       	sbiw	r24, 0x01	; 1
    4786:	9c 8b       	std	Y+20, r25	; 0x14
    4788:	8b 8b       	std	Y+19, r24	; 0x13
		__ticks = 1;
	else if (__tmp > 65535)
	{
		//	__ticks = requested delay in 1/10 ms
		__ticks = (uint16_t) (__ms * 10.0);
		while(__ticks)
    478a:	8b 89       	ldd	r24, Y+19	; 0x13
    478c:	9c 89       	ldd	r25, Y+20	; 0x14
    478e:	00 97       	sbiw	r24, 0x00	; 0
    4790:	69 f7       	brne	.-38     	; 0x476c <HLCD_vidWritecmd+0x462>
    4792:	14 c0       	rjmp	.+40     	; 0x47bc <HLCD_vidWritecmd+0x4b2>
			__ticks --;
		}
		return;
	}
	else
		__ticks = (uint16_t)__tmp;
    4794:	6d 89       	ldd	r22, Y+21	; 0x15
    4796:	7e 89       	ldd	r23, Y+22	; 0x16
    4798:	8f 89       	ldd	r24, Y+23	; 0x17
    479a:	98 8d       	ldd	r25, Y+24	; 0x18
    479c:	0e 94 49 00 	call	0x92	; 0x92 <__fixunssfsi>
    47a0:	dc 01       	movw	r26, r24
    47a2:	cb 01       	movw	r24, r22
    47a4:	9c 8b       	std	Y+20, r25	; 0x14
    47a6:	8b 8b       	std	Y+19, r24	; 0x13
    47a8:	8b 89       	ldd	r24, Y+19	; 0x13
    47aa:	9c 89       	ldd	r25, Y+20	; 0x14
    47ac:	98 8b       	std	Y+16, r25	; 0x10
    47ae:	8f 87       	std	Y+15, r24	; 0x0f
    47b0:	8f 85       	ldd	r24, Y+15	; 0x0f
    47b2:	98 89       	ldd	r25, Y+16	; 0x10
    47b4:	01 97       	sbiw	r24, 0x01	; 1
    47b6:	f1 f7       	brne	.-4      	; 0x47b4 <HLCD_vidWritecmd+0x4aa>
    47b8:	98 8b       	std	Y+16, r25	; 0x10
    47ba:	8f 87       	std	Y+15, r24	; 0x0f
	_delay_ms(1);
	DIO_s8SETPinVal(LCD_EN_PORT_PIN, LOW); //ENABLE low
    47bc:	83 e0       	ldi	r24, 0x03	; 3
    47be:	60 e0       	ldi	r22, 0x00	; 0
    47c0:	0e 94 46 18 	call	0x308c	; 0x308c <DIO_s8SETPinVal>
    47c4:	80 e0       	ldi	r24, 0x00	; 0
    47c6:	90 e0       	ldi	r25, 0x00	; 0
    47c8:	a0 e0       	ldi	r26, 0x00	; 0
    47ca:	b0 e4       	ldi	r27, 0x40	; 64
    47cc:	8b 87       	std	Y+11, r24	; 0x0b
    47ce:	9c 87       	std	Y+12, r25	; 0x0c
    47d0:	ad 87       	std	Y+13, r26	; 0x0d
    47d2:	be 87       	std	Y+14, r27	; 0x0e
 */
void
_delay_ms(double __ms)
{
	uint16_t __ticks;
	double __tmp = ((F_CPU) / 4e3) * __ms;
    47d4:	6b 85       	ldd	r22, Y+11	; 0x0b
    47d6:	7c 85       	ldd	r23, Y+12	; 0x0c
    47d8:	8d 85       	ldd	r24, Y+13	; 0x0d
    47da:	9e 85       	ldd	r25, Y+14	; 0x0e
    47dc:	20 e0       	ldi	r18, 0x00	; 0
    47de:	30 e0       	ldi	r19, 0x00	; 0
    47e0:	4a ef       	ldi	r20, 0xFA	; 250
    47e2:	54 e4       	ldi	r21, 0x44	; 68
    47e4:	0e 94 1f 02 	call	0x43e	; 0x43e <__mulsf3>
    47e8:	dc 01       	movw	r26, r24
    47ea:	cb 01       	movw	r24, r22
    47ec:	8f 83       	std	Y+7, r24	; 0x07
    47ee:	98 87       	std	Y+8, r25	; 0x08
    47f0:	a9 87       	std	Y+9, r26	; 0x09
    47f2:	ba 87       	std	Y+10, r27	; 0x0a
	if (__tmp < 1.0)
    47f4:	6f 81       	ldd	r22, Y+7	; 0x07
    47f6:	78 85       	ldd	r23, Y+8	; 0x08
    47f8:	89 85       	ldd	r24, Y+9	; 0x09
    47fa:	9a 85       	ldd	r25, Y+10	; 0x0a
    47fc:	20 e0       	ldi	r18, 0x00	; 0
    47fe:	30 e0       	ldi	r19, 0x00	; 0
    4800:	40 e8       	ldi	r20, 0x80	; 128
    4802:	5f e3       	ldi	r21, 0x3F	; 63
    4804:	0e 94 25 04 	call	0x84a	; 0x84a <__ltsf2>
    4808:	88 23       	and	r24, r24
    480a:	2c f4       	brge	.+10     	; 0x4816 <HLCD_vidWritecmd+0x50c>
		__ticks = 1;
    480c:	81 e0       	ldi	r24, 0x01	; 1
    480e:	90 e0       	ldi	r25, 0x00	; 0
    4810:	9e 83       	std	Y+6, r25	; 0x06
    4812:	8d 83       	std	Y+5, r24	; 0x05
    4814:	3f c0       	rjmp	.+126    	; 0x4894 <HLCD_vidWritecmd+0x58a>
	else if (__tmp > 65535)
    4816:	6f 81       	ldd	r22, Y+7	; 0x07
    4818:	78 85       	ldd	r23, Y+8	; 0x08
    481a:	89 85       	ldd	r24, Y+9	; 0x09
    481c:	9a 85       	ldd	r25, Y+10	; 0x0a
    481e:	20 e0       	ldi	r18, 0x00	; 0
    4820:	3f ef       	ldi	r19, 0xFF	; 255
    4822:	4f e7       	ldi	r20, 0x7F	; 127
    4824:	57 e4       	ldi	r21, 0x47	; 71
    4826:	0e 94 c5 03 	call	0x78a	; 0x78a <__gtsf2>
    482a:	18 16       	cp	r1, r24
    482c:	4c f5       	brge	.+82     	; 0x4880 <HLCD_vidWritecmd+0x576>
	{
		//	__ticks = requested delay in 1/10 ms
		__ticks = (uint16_t) (__ms * 10.0);
    482e:	6b 85       	ldd	r22, Y+11	; 0x0b
    4830:	7c 85       	ldd	r23, Y+12	; 0x0c
    4832:	8d 85       	ldd	r24, Y+13	; 0x0d
    4834:	9e 85       	ldd	r25, Y+14	; 0x0e
    4836:	20 e0       	ldi	r18, 0x00	; 0
    4838:	30 e0       	ldi	r19, 0x00	; 0
    483a:	40 e2       	ldi	r20, 0x20	; 32
    483c:	51 e4       	ldi	r21, 0x41	; 65
    483e:	0e 94 1f 02 	call	0x43e	; 0x43e <__mulsf3>
    4842:	dc 01       	movw	r26, r24
    4844:	cb 01       	movw	r24, r22
    4846:	bc 01       	movw	r22, r24
    4848:	cd 01       	movw	r24, r26
    484a:	0e 94 49 00 	call	0x92	; 0x92 <__fixunssfsi>
    484e:	dc 01       	movw	r26, r24
    4850:	cb 01       	movw	r24, r22
    4852:	9e 83       	std	Y+6, r25	; 0x06
    4854:	8d 83       	std	Y+5, r24	; 0x05
    4856:	0f c0       	rjmp	.+30     	; 0x4876 <HLCD_vidWritecmd+0x56c>
    4858:	88 ec       	ldi	r24, 0xC8	; 200
    485a:	90 e0       	ldi	r25, 0x00	; 0
    485c:	9c 83       	std	Y+4, r25	; 0x04
    485e:	8b 83       	std	Y+3, r24	; 0x03
    4860:	8b 81       	ldd	r24, Y+3	; 0x03
    4862:	9c 81       	ldd	r25, Y+4	; 0x04
    4864:	01 97       	sbiw	r24, 0x01	; 1
    4866:	f1 f7       	brne	.-4      	; 0x4864 <HLCD_vidWritecmd+0x55a>
    4868:	9c 83       	std	Y+4, r25	; 0x04
    486a:	8b 83       	std	Y+3, r24	; 0x03
		while(__ticks)
		{
			// wait 1/10 ms
			_delay_loop_2(((F_CPU) / 4e3) / 10);
			__ticks --;
    486c:	8d 81       	ldd	r24, Y+5	; 0x05
    486e:	9e 81       	ldd	r25, Y+6	; 0x06
    4870:	01 97       	sbiw	r24, 0x01	; 1
    4872:	9e 83       	std	Y+6, r25	; 0x06
    4874:	8d 83       	std	Y+5, r24	; 0x05
		__ticks = 1;
	else if (__tmp > 65535)
	{
		//	__ticks = requested delay in 1/10 ms
		__ticks = (uint16_t) (__ms * 10.0);
		while(__ticks)
    4876:	8d 81       	ldd	r24, Y+5	; 0x05
    4878:	9e 81       	ldd	r25, Y+6	; 0x06
    487a:	00 97       	sbiw	r24, 0x00	; 0
    487c:	69 f7       	brne	.-38     	; 0x4858 <HLCD_vidWritecmd+0x54e>
    487e:	14 c0       	rjmp	.+40     	; 0x48a8 <HLCD_vidWritecmd+0x59e>
			__ticks --;
		}
		return;
	}
	else
		__ticks = (uint16_t)__tmp;
    4880:	6f 81       	ldd	r22, Y+7	; 0x07
    4882:	78 85       	ldd	r23, Y+8	; 0x08
    4884:	89 85       	ldd	r24, Y+9	; 0x09
    4886:	9a 85       	ldd	r25, Y+10	; 0x0a
    4888:	0e 94 49 00 	call	0x92	; 0x92 <__fixunssfsi>
    488c:	dc 01       	movw	r26, r24
    488e:	cb 01       	movw	r24, r22
    4890:	9e 83       	std	Y+6, r25	; 0x06
    4892:	8d 83       	std	Y+5, r24	; 0x05
    4894:	8d 81       	ldd	r24, Y+5	; 0x05
    4896:	9e 81       	ldd	r25, Y+6	; 0x06
    4898:	9a 83       	std	Y+2, r25	; 0x02
    489a:	89 83       	std	Y+1, r24	; 0x01
    489c:	89 81       	ldd	r24, Y+1	; 0x01
    489e:	9a 81       	ldd	r25, Y+2	; 0x02
    48a0:	01 97       	sbiw	r24, 0x01	; 1
    48a2:	f1 f7       	brne	.-4      	; 0x48a0 <HLCD_vidWritecmd+0x596>
    48a4:	9a 83       	std	Y+2, r25	; 0x02
    48a6:	89 83       	std	Y+1, r24	; 0x01
	DIO_s8SETPinVal(LCD_EN_PORT_PIN, HIGH); //ENABLE high
	_delay_ms(2);
	DIO_s8SETPinVal(LCD_EN_PORT_PIN, LOW); //ENABLE low
	_delay_ms(2);
#endif
}
    48a8:	ca 5b       	subi	r28, 0xBA	; 186
    48aa:	df 4f       	sbci	r29, 0xFF	; 255
    48ac:	0f b6       	in	r0, 0x3f	; 63
    48ae:	f8 94       	cli
    48b0:	de bf       	out	0x3e, r29	; 62
    48b2:	0f be       	out	0x3f, r0	; 63
    48b4:	cd bf       	out	0x3d, r28	; 61
    48b6:	cf 91       	pop	r28
    48b8:	df 91       	pop	r29
    48ba:	08 95       	ret

000048bc <HLCD_vidWriteChar>:
 * description 	: func to write char on lcd
 * input param 	: u8CharCopy -> take ascii code of char   or   char address on CGROM
 * return		: void
 * */
void HLCD_vidWriteChar(Uint8_t u8CharCopy)
{
    48bc:	df 93       	push	r29
    48be:	cf 93       	push	r28
    48c0:	cd b7       	in	r28, 0x3d	; 61
    48c2:	de b7       	in	r29, 0x3e	; 62
    48c4:	c6 54       	subi	r28, 0x46	; 70
    48c6:	d0 40       	sbci	r29, 0x00	; 0
    48c8:	0f b6       	in	r0, 0x3f	; 63
    48ca:	f8 94       	cli
    48cc:	de bf       	out	0x3e, r29	; 62
    48ce:	0f be       	out	0x3f, r0	; 63
    48d0:	cd bf       	out	0x3d, r28	; 61
    48d2:	fe 01       	movw	r30, r28
    48d4:	ea 5b       	subi	r30, 0xBA	; 186
    48d6:	ff 4f       	sbci	r31, 0xFF	; 255
    48d8:	80 83       	st	Z, r24
	DIO_s8SETPinVal(LCD_RW_PORT_PIN, LOW); // WRITE
    48da:	82 e0       	ldi	r24, 0x02	; 2
    48dc:	60 e0       	ldi	r22, 0x00	; 0
    48de:	0e 94 46 18 	call	0x308c	; 0x308c <DIO_s8SETPinVal>
	DIO_s8SETPinVal(LCD_RS_PORT_PIN, HIGH); // DATA
    48e2:	81 e0       	ldi	r24, 0x01	; 1
    48e4:	61 e0       	ldi	r22, 0x01	; 1
    48e6:	0e 94 46 18 	call	0x308c	; 0x308c <DIO_s8SETPinVal>

#if HLCD_MODE == HLCD_4_BIT_MODE

	Uint8_t loc_u8DataReg = 0;
    48ea:	fe 01       	movw	r30, r28
    48ec:	eb 5b       	subi	r30, 0xBB	; 187
    48ee:	ff 4f       	sbci	r31, 0xFF	; 255
    48f0:	10 82       	st	Z, r1
	loc_u8DataReg = (u8CharCopy & 0xF0);
    48f2:	de 01       	movw	r26, r28
    48f4:	ab 5b       	subi	r26, 0xBB	; 187
    48f6:	bf 4f       	sbci	r27, 0xFF	; 255
    48f8:	fe 01       	movw	r30, r28
    48fa:	ea 5b       	subi	r30, 0xBA	; 186
    48fc:	ff 4f       	sbci	r31, 0xFF	; 255
    48fe:	80 81       	ld	r24, Z
    4900:	80 7f       	andi	r24, 0xF0	; 240
    4902:	8c 93       	st	X, r24
	loc_u8DataReg >>= 4;
    4904:	de 01       	movw	r26, r28
    4906:	ab 5b       	subi	r26, 0xBB	; 187
    4908:	bf 4f       	sbci	r27, 0xFF	; 255
    490a:	fe 01       	movw	r30, r28
    490c:	eb 5b       	subi	r30, 0xBB	; 187
    490e:	ff 4f       	sbci	r31, 0xFF	; 255
    4910:	80 81       	ld	r24, Z
    4912:	82 95       	swap	r24
    4914:	8f 70       	andi	r24, 0x0F	; 15
    4916:	8c 93       	st	X, r24

	for (Uint8_t i = 0; i < DATA_PIN_NUMBER; i++)
    4918:	fe 01       	movw	r30, r28
    491a:	ec 5b       	subi	r30, 0xBC	; 188
    491c:	ff 4f       	sbci	r31, 0xFF	; 255
    491e:	10 82       	st	Z, r1
    4920:	2c c0       	rjmp	.+88     	; 0x497a <HLCD_vidWriteChar+0xbe>
	{
		DIO_s8SETPinVal(dataPin[i].en_dataPin, ((loc_u8DataReg >> i)&1) );
    4922:	fe 01       	movw	r30, r28
    4924:	ec 5b       	subi	r30, 0xBC	; 188
    4926:	ff 4f       	sbci	r31, 0xFF	; 255
    4928:	80 81       	ld	r24, Z
    492a:	88 2f       	mov	r24, r24
    492c:	90 e0       	ldi	r25, 0x00	; 0
    492e:	fc 01       	movw	r30, r24
    4930:	ec 5a       	subi	r30, 0xAC	; 172
    4932:	fd 4f       	sbci	r31, 0xFD	; 253
    4934:	40 81       	ld	r20, Z
    4936:	fe 01       	movw	r30, r28
    4938:	eb 5b       	subi	r30, 0xBB	; 187
    493a:	ff 4f       	sbci	r31, 0xFF	; 255
    493c:	80 81       	ld	r24, Z
    493e:	28 2f       	mov	r18, r24
    4940:	30 e0       	ldi	r19, 0x00	; 0
    4942:	fe 01       	movw	r30, r28
    4944:	ec 5b       	subi	r30, 0xBC	; 188
    4946:	ff 4f       	sbci	r31, 0xFF	; 255
    4948:	80 81       	ld	r24, Z
    494a:	88 2f       	mov	r24, r24
    494c:	90 e0       	ldi	r25, 0x00	; 0
    494e:	b9 01       	movw	r22, r18
    4950:	02 c0       	rjmp	.+4      	; 0x4956 <HLCD_vidWriteChar+0x9a>
    4952:	75 95       	asr	r23
    4954:	67 95       	ror	r22
    4956:	8a 95       	dec	r24
    4958:	e2 f7       	brpl	.-8      	; 0x4952 <HLCD_vidWriteChar+0x96>
    495a:	cb 01       	movw	r24, r22
    495c:	98 2f       	mov	r25, r24
    495e:	91 70       	andi	r25, 0x01	; 1
    4960:	84 2f       	mov	r24, r20
    4962:	69 2f       	mov	r22, r25
    4964:	0e 94 46 18 	call	0x308c	; 0x308c <DIO_s8SETPinVal>

	Uint8_t loc_u8DataReg = 0;
	loc_u8DataReg = (u8CharCopy & 0xF0);
	loc_u8DataReg >>= 4;

	for (Uint8_t i = 0; i < DATA_PIN_NUMBER; i++)
    4968:	de 01       	movw	r26, r28
    496a:	ac 5b       	subi	r26, 0xBC	; 188
    496c:	bf 4f       	sbci	r27, 0xFF	; 255
    496e:	fe 01       	movw	r30, r28
    4970:	ec 5b       	subi	r30, 0xBC	; 188
    4972:	ff 4f       	sbci	r31, 0xFF	; 255
    4974:	80 81       	ld	r24, Z
    4976:	8f 5f       	subi	r24, 0xFF	; 255
    4978:	8c 93       	st	X, r24
    497a:	fe 01       	movw	r30, r28
    497c:	ec 5b       	subi	r30, 0xBC	; 188
    497e:	ff 4f       	sbci	r31, 0xFF	; 255
    4980:	80 81       	ld	r24, Z
    4982:	84 30       	cpi	r24, 0x04	; 4
    4984:	70 f2       	brcs	.-100    	; 0x4922 <HLCD_vidWriteChar+0x66>
	{
		DIO_s8SETPinVal(dataPin[i].en_dataPin, ((loc_u8DataReg >> i)&1) );
	}

	DIO_s8SETPinVal(LCD_EN_PORT_PIN, HIGH); //ENABLE high
    4986:	83 e0       	ldi	r24, 0x03	; 3
    4988:	61 e0       	ldi	r22, 0x01	; 1
    498a:	0e 94 46 18 	call	0x308c	; 0x308c <DIO_s8SETPinVal>
    498e:	fe 01       	movw	r30, r28
    4990:	ff 96       	adiw	r30, 0x3f	; 63
    4992:	80 e0       	ldi	r24, 0x00	; 0
    4994:	90 e0       	ldi	r25, 0x00	; 0
    4996:	a0 e8       	ldi	r26, 0x80	; 128
    4998:	bf e3       	ldi	r27, 0x3F	; 63
    499a:	80 83       	st	Z, r24
    499c:	91 83       	std	Z+1, r25	; 0x01
    499e:	a2 83       	std	Z+2, r26	; 0x02
    49a0:	b3 83       	std	Z+3, r27	; 0x03
 */
void
_delay_ms(double __ms)
{
	uint16_t __ticks;
	double __tmp = ((F_CPU) / 4e3) * __ms;
    49a2:	fe 01       	movw	r30, r28
    49a4:	ff 96       	adiw	r30, 0x3f	; 63
    49a6:	60 81       	ld	r22, Z
    49a8:	71 81       	ldd	r23, Z+1	; 0x01
    49aa:	82 81       	ldd	r24, Z+2	; 0x02
    49ac:	93 81       	ldd	r25, Z+3	; 0x03
    49ae:	20 e0       	ldi	r18, 0x00	; 0
    49b0:	30 e0       	ldi	r19, 0x00	; 0
    49b2:	4a ef       	ldi	r20, 0xFA	; 250
    49b4:	54 e4       	ldi	r21, 0x44	; 68
    49b6:	0e 94 1f 02 	call	0x43e	; 0x43e <__mulsf3>
    49ba:	dc 01       	movw	r26, r24
    49bc:	cb 01       	movw	r24, r22
    49be:	8b af       	std	Y+59, r24	; 0x3b
    49c0:	9c af       	std	Y+60, r25	; 0x3c
    49c2:	ad af       	std	Y+61, r26	; 0x3d
    49c4:	be af       	std	Y+62, r27	; 0x3e
	if (__tmp < 1.0)
    49c6:	6b ad       	ldd	r22, Y+59	; 0x3b
    49c8:	7c ad       	ldd	r23, Y+60	; 0x3c
    49ca:	8d ad       	ldd	r24, Y+61	; 0x3d
    49cc:	9e ad       	ldd	r25, Y+62	; 0x3e
    49ce:	20 e0       	ldi	r18, 0x00	; 0
    49d0:	30 e0       	ldi	r19, 0x00	; 0
    49d2:	40 e8       	ldi	r20, 0x80	; 128
    49d4:	5f e3       	ldi	r21, 0x3F	; 63
    49d6:	0e 94 25 04 	call	0x84a	; 0x84a <__ltsf2>
    49da:	88 23       	and	r24, r24
    49dc:	2c f4       	brge	.+10     	; 0x49e8 <HLCD_vidWriteChar+0x12c>
		__ticks = 1;
    49de:	81 e0       	ldi	r24, 0x01	; 1
    49e0:	90 e0       	ldi	r25, 0x00	; 0
    49e2:	9a af       	std	Y+58, r25	; 0x3a
    49e4:	89 af       	std	Y+57, r24	; 0x39
    49e6:	41 c0       	rjmp	.+130    	; 0x4a6a <HLCD_vidWriteChar+0x1ae>
	else if (__tmp > 65535)
    49e8:	6b ad       	ldd	r22, Y+59	; 0x3b
    49ea:	7c ad       	ldd	r23, Y+60	; 0x3c
    49ec:	8d ad       	ldd	r24, Y+61	; 0x3d
    49ee:	9e ad       	ldd	r25, Y+62	; 0x3e
    49f0:	20 e0       	ldi	r18, 0x00	; 0
    49f2:	3f ef       	ldi	r19, 0xFF	; 255
    49f4:	4f e7       	ldi	r20, 0x7F	; 127
    49f6:	57 e4       	ldi	r21, 0x47	; 71
    49f8:	0e 94 c5 03 	call	0x78a	; 0x78a <__gtsf2>
    49fc:	18 16       	cp	r1, r24
    49fe:	5c f5       	brge	.+86     	; 0x4a56 <HLCD_vidWriteChar+0x19a>
	{
		//	__ticks = requested delay in 1/10 ms
		__ticks = (uint16_t) (__ms * 10.0);
    4a00:	fe 01       	movw	r30, r28
    4a02:	ff 96       	adiw	r30, 0x3f	; 63
    4a04:	60 81       	ld	r22, Z
    4a06:	71 81       	ldd	r23, Z+1	; 0x01
    4a08:	82 81       	ldd	r24, Z+2	; 0x02
    4a0a:	93 81       	ldd	r25, Z+3	; 0x03
    4a0c:	20 e0       	ldi	r18, 0x00	; 0
    4a0e:	30 e0       	ldi	r19, 0x00	; 0
    4a10:	40 e2       	ldi	r20, 0x20	; 32
    4a12:	51 e4       	ldi	r21, 0x41	; 65
    4a14:	0e 94 1f 02 	call	0x43e	; 0x43e <__mulsf3>
    4a18:	dc 01       	movw	r26, r24
    4a1a:	cb 01       	movw	r24, r22
    4a1c:	bc 01       	movw	r22, r24
    4a1e:	cd 01       	movw	r24, r26
    4a20:	0e 94 49 00 	call	0x92	; 0x92 <__fixunssfsi>
    4a24:	dc 01       	movw	r26, r24
    4a26:	cb 01       	movw	r24, r22
    4a28:	9a af       	std	Y+58, r25	; 0x3a
    4a2a:	89 af       	std	Y+57, r24	; 0x39
    4a2c:	0f c0       	rjmp	.+30     	; 0x4a4c <HLCD_vidWriteChar+0x190>
    4a2e:	88 ec       	ldi	r24, 0xC8	; 200
    4a30:	90 e0       	ldi	r25, 0x00	; 0
    4a32:	98 af       	std	Y+56, r25	; 0x38
    4a34:	8f ab       	std	Y+55, r24	; 0x37
    4a36:	8f a9       	ldd	r24, Y+55	; 0x37
    4a38:	98 ad       	ldd	r25, Y+56	; 0x38
    4a3a:	01 97       	sbiw	r24, 0x01	; 1
    4a3c:	f1 f7       	brne	.-4      	; 0x4a3a <HLCD_vidWriteChar+0x17e>
    4a3e:	98 af       	std	Y+56, r25	; 0x38
    4a40:	8f ab       	std	Y+55, r24	; 0x37
		while(__ticks)
		{
			// wait 1/10 ms
			_delay_loop_2(((F_CPU) / 4e3) / 10);
			__ticks --;
    4a42:	89 ad       	ldd	r24, Y+57	; 0x39
    4a44:	9a ad       	ldd	r25, Y+58	; 0x3a
    4a46:	01 97       	sbiw	r24, 0x01	; 1
    4a48:	9a af       	std	Y+58, r25	; 0x3a
    4a4a:	89 af       	std	Y+57, r24	; 0x39
		__ticks = 1;
	else if (__tmp > 65535)
	{
		//	__ticks = requested delay in 1/10 ms
		__ticks = (uint16_t) (__ms * 10.0);
		while(__ticks)
    4a4c:	89 ad       	ldd	r24, Y+57	; 0x39
    4a4e:	9a ad       	ldd	r25, Y+58	; 0x3a
    4a50:	00 97       	sbiw	r24, 0x00	; 0
    4a52:	69 f7       	brne	.-38     	; 0x4a2e <HLCD_vidWriteChar+0x172>
    4a54:	14 c0       	rjmp	.+40     	; 0x4a7e <HLCD_vidWriteChar+0x1c2>
			__ticks --;
		}
		return;
	}
	else
		__ticks = (uint16_t)__tmp;
    4a56:	6b ad       	ldd	r22, Y+59	; 0x3b
    4a58:	7c ad       	ldd	r23, Y+60	; 0x3c
    4a5a:	8d ad       	ldd	r24, Y+61	; 0x3d
    4a5c:	9e ad       	ldd	r25, Y+62	; 0x3e
    4a5e:	0e 94 49 00 	call	0x92	; 0x92 <__fixunssfsi>
    4a62:	dc 01       	movw	r26, r24
    4a64:	cb 01       	movw	r24, r22
    4a66:	9a af       	std	Y+58, r25	; 0x3a
    4a68:	89 af       	std	Y+57, r24	; 0x39
    4a6a:	89 ad       	ldd	r24, Y+57	; 0x39
    4a6c:	9a ad       	ldd	r25, Y+58	; 0x3a
    4a6e:	9e ab       	std	Y+54, r25	; 0x36
    4a70:	8d ab       	std	Y+53, r24	; 0x35
    4a72:	8d a9       	ldd	r24, Y+53	; 0x35
    4a74:	9e a9       	ldd	r25, Y+54	; 0x36
    4a76:	01 97       	sbiw	r24, 0x01	; 1
    4a78:	f1 f7       	brne	.-4      	; 0x4a76 <HLCD_vidWriteChar+0x1ba>
    4a7a:	9e ab       	std	Y+54, r25	; 0x36
    4a7c:	8d ab       	std	Y+53, r24	; 0x35
	_delay_ms(1);
	DIO_s8SETPinVal(LCD_EN_PORT_PIN, LOW); //ENABLE low
    4a7e:	83 e0       	ldi	r24, 0x03	; 3
    4a80:	60 e0       	ldi	r22, 0x00	; 0
    4a82:	0e 94 46 18 	call	0x308c	; 0x308c <DIO_s8SETPinVal>
    4a86:	80 e0       	ldi	r24, 0x00	; 0
    4a88:	90 e0       	ldi	r25, 0x00	; 0
    4a8a:	a8 e4       	ldi	r26, 0x48	; 72
    4a8c:	b3 e4       	ldi	r27, 0x43	; 67
    4a8e:	89 ab       	std	Y+49, r24	; 0x31
    4a90:	9a ab       	std	Y+50, r25	; 0x32
    4a92:	ab ab       	std	Y+51, r26	; 0x33
    4a94:	bc ab       	std	Y+52, r27	; 0x34
 */
void
_delay_us(double __us)
{
	uint8_t __ticks;
	double __tmp = ((F_CPU) / 3e6) * __us;
    4a96:	69 a9       	ldd	r22, Y+49	; 0x31
    4a98:	7a a9       	ldd	r23, Y+50	; 0x32
    4a9a:	8b a9       	ldd	r24, Y+51	; 0x33
    4a9c:	9c a9       	ldd	r25, Y+52	; 0x34
    4a9e:	2b ea       	ldi	r18, 0xAB	; 171
    4aa0:	3a ea       	ldi	r19, 0xAA	; 170
    4aa2:	4a e2       	ldi	r20, 0x2A	; 42
    4aa4:	50 e4       	ldi	r21, 0x40	; 64
    4aa6:	0e 94 1f 02 	call	0x43e	; 0x43e <__mulsf3>
    4aaa:	dc 01       	movw	r26, r24
    4aac:	cb 01       	movw	r24, r22
    4aae:	8d a7       	std	Y+45, r24	; 0x2d
    4ab0:	9e a7       	std	Y+46, r25	; 0x2e
    4ab2:	af a7       	std	Y+47, r26	; 0x2f
    4ab4:	b8 ab       	std	Y+48, r27	; 0x30
	if (__tmp < 1.0)
    4ab6:	6d a5       	ldd	r22, Y+45	; 0x2d
    4ab8:	7e a5       	ldd	r23, Y+46	; 0x2e
    4aba:	8f a5       	ldd	r24, Y+47	; 0x2f
    4abc:	98 a9       	ldd	r25, Y+48	; 0x30
    4abe:	20 e0       	ldi	r18, 0x00	; 0
    4ac0:	30 e0       	ldi	r19, 0x00	; 0
    4ac2:	40 e8       	ldi	r20, 0x80	; 128
    4ac4:	5f e3       	ldi	r21, 0x3F	; 63
    4ac6:	0e 94 25 04 	call	0x84a	; 0x84a <__ltsf2>
    4aca:	88 23       	and	r24, r24
    4acc:	1c f4       	brge	.+6      	; 0x4ad4 <HLCD_vidWriteChar+0x218>
		__ticks = 1;
    4ace:	81 e0       	ldi	r24, 0x01	; 1
    4ad0:	8c a7       	std	Y+44, r24	; 0x2c
    4ad2:	91 c0       	rjmp	.+290    	; 0x4bf6 <HLCD_vidWriteChar+0x33a>
	else if (__tmp > 255)
    4ad4:	6d a5       	ldd	r22, Y+45	; 0x2d
    4ad6:	7e a5       	ldd	r23, Y+46	; 0x2e
    4ad8:	8f a5       	ldd	r24, Y+47	; 0x2f
    4ada:	98 a9       	ldd	r25, Y+48	; 0x30
    4adc:	20 e0       	ldi	r18, 0x00	; 0
    4ade:	30 e0       	ldi	r19, 0x00	; 0
    4ae0:	4f e7       	ldi	r20, 0x7F	; 127
    4ae2:	53 e4       	ldi	r21, 0x43	; 67
    4ae4:	0e 94 c5 03 	call	0x78a	; 0x78a <__gtsf2>
    4ae8:	18 16       	cp	r1, r24
    4aea:	0c f0       	brlt	.+2      	; 0x4aee <HLCD_vidWriteChar+0x232>
    4aec:	7b c0       	rjmp	.+246    	; 0x4be4 <HLCD_vidWriteChar+0x328>
	{
		_delay_ms(__us / 1000.0);
    4aee:	69 a9       	ldd	r22, Y+49	; 0x31
    4af0:	7a a9       	ldd	r23, Y+50	; 0x32
    4af2:	8b a9       	ldd	r24, Y+51	; 0x33
    4af4:	9c a9       	ldd	r25, Y+52	; 0x34
    4af6:	20 e0       	ldi	r18, 0x00	; 0
    4af8:	30 e0       	ldi	r19, 0x00	; 0
    4afa:	4a e7       	ldi	r20, 0x7A	; 122
    4afc:	54 e4       	ldi	r21, 0x44	; 68
    4afe:	0e 94 19 03 	call	0x632	; 0x632 <__divsf3>
    4b02:	dc 01       	movw	r26, r24
    4b04:	cb 01       	movw	r24, r22
    4b06:	88 a7       	std	Y+40, r24	; 0x28
    4b08:	99 a7       	std	Y+41, r25	; 0x29
    4b0a:	aa a7       	std	Y+42, r26	; 0x2a
    4b0c:	bb a7       	std	Y+43, r27	; 0x2b
 */
void
_delay_ms(double __ms)
{
	uint16_t __ticks;
	double __tmp = ((F_CPU) / 4e3) * __ms;
    4b0e:	68 a5       	ldd	r22, Y+40	; 0x28
    4b10:	79 a5       	ldd	r23, Y+41	; 0x29
    4b12:	8a a5       	ldd	r24, Y+42	; 0x2a
    4b14:	9b a5       	ldd	r25, Y+43	; 0x2b
    4b16:	20 e0       	ldi	r18, 0x00	; 0
    4b18:	30 e0       	ldi	r19, 0x00	; 0
    4b1a:	4a ef       	ldi	r20, 0xFA	; 250
    4b1c:	54 e4       	ldi	r21, 0x44	; 68
    4b1e:	0e 94 1f 02 	call	0x43e	; 0x43e <__mulsf3>
    4b22:	dc 01       	movw	r26, r24
    4b24:	cb 01       	movw	r24, r22
    4b26:	8c a3       	std	Y+36, r24	; 0x24
    4b28:	9d a3       	std	Y+37, r25	; 0x25
    4b2a:	ae a3       	std	Y+38, r26	; 0x26
    4b2c:	bf a3       	std	Y+39, r27	; 0x27
	if (__tmp < 1.0)
    4b2e:	6c a1       	ldd	r22, Y+36	; 0x24
    4b30:	7d a1       	ldd	r23, Y+37	; 0x25
    4b32:	8e a1       	ldd	r24, Y+38	; 0x26
    4b34:	9f a1       	ldd	r25, Y+39	; 0x27
    4b36:	20 e0       	ldi	r18, 0x00	; 0
    4b38:	30 e0       	ldi	r19, 0x00	; 0
    4b3a:	40 e8       	ldi	r20, 0x80	; 128
    4b3c:	5f e3       	ldi	r21, 0x3F	; 63
    4b3e:	0e 94 25 04 	call	0x84a	; 0x84a <__ltsf2>
    4b42:	88 23       	and	r24, r24
    4b44:	2c f4       	brge	.+10     	; 0x4b50 <HLCD_vidWriteChar+0x294>
		__ticks = 1;
    4b46:	81 e0       	ldi	r24, 0x01	; 1
    4b48:	90 e0       	ldi	r25, 0x00	; 0
    4b4a:	9b a3       	std	Y+35, r25	; 0x23
    4b4c:	8a a3       	std	Y+34, r24	; 0x22
    4b4e:	3f c0       	rjmp	.+126    	; 0x4bce <HLCD_vidWriteChar+0x312>
	else if (__tmp > 65535)
    4b50:	6c a1       	ldd	r22, Y+36	; 0x24
    4b52:	7d a1       	ldd	r23, Y+37	; 0x25
    4b54:	8e a1       	ldd	r24, Y+38	; 0x26
    4b56:	9f a1       	ldd	r25, Y+39	; 0x27
    4b58:	20 e0       	ldi	r18, 0x00	; 0
    4b5a:	3f ef       	ldi	r19, 0xFF	; 255
    4b5c:	4f e7       	ldi	r20, 0x7F	; 127
    4b5e:	57 e4       	ldi	r21, 0x47	; 71
    4b60:	0e 94 c5 03 	call	0x78a	; 0x78a <__gtsf2>
    4b64:	18 16       	cp	r1, r24
    4b66:	4c f5       	brge	.+82     	; 0x4bba <HLCD_vidWriteChar+0x2fe>
	{
		//	__ticks = requested delay in 1/10 ms
		__ticks = (uint16_t) (__ms * 10.0);
    4b68:	68 a5       	ldd	r22, Y+40	; 0x28
    4b6a:	79 a5       	ldd	r23, Y+41	; 0x29
    4b6c:	8a a5       	ldd	r24, Y+42	; 0x2a
    4b6e:	9b a5       	ldd	r25, Y+43	; 0x2b
    4b70:	20 e0       	ldi	r18, 0x00	; 0
    4b72:	30 e0       	ldi	r19, 0x00	; 0
    4b74:	40 e2       	ldi	r20, 0x20	; 32
    4b76:	51 e4       	ldi	r21, 0x41	; 65
    4b78:	0e 94 1f 02 	call	0x43e	; 0x43e <__mulsf3>
    4b7c:	dc 01       	movw	r26, r24
    4b7e:	cb 01       	movw	r24, r22
    4b80:	bc 01       	movw	r22, r24
    4b82:	cd 01       	movw	r24, r26
    4b84:	0e 94 49 00 	call	0x92	; 0x92 <__fixunssfsi>
    4b88:	dc 01       	movw	r26, r24
    4b8a:	cb 01       	movw	r24, r22
    4b8c:	9b a3       	std	Y+35, r25	; 0x23
    4b8e:	8a a3       	std	Y+34, r24	; 0x22
    4b90:	0f c0       	rjmp	.+30     	; 0x4bb0 <HLCD_vidWriteChar+0x2f4>
    4b92:	88 ec       	ldi	r24, 0xC8	; 200
    4b94:	90 e0       	ldi	r25, 0x00	; 0
    4b96:	99 a3       	std	Y+33, r25	; 0x21
    4b98:	88 a3       	std	Y+32, r24	; 0x20
    4b9a:	88 a1       	ldd	r24, Y+32	; 0x20
    4b9c:	99 a1       	ldd	r25, Y+33	; 0x21
    4b9e:	01 97       	sbiw	r24, 0x01	; 1
    4ba0:	f1 f7       	brne	.-4      	; 0x4b9e <HLCD_vidWriteChar+0x2e2>
    4ba2:	99 a3       	std	Y+33, r25	; 0x21
    4ba4:	88 a3       	std	Y+32, r24	; 0x20
		while(__ticks)
		{
			// wait 1/10 ms
			_delay_loop_2(((F_CPU) / 4e3) / 10);
			__ticks --;
    4ba6:	8a a1       	ldd	r24, Y+34	; 0x22
    4ba8:	9b a1       	ldd	r25, Y+35	; 0x23
    4baa:	01 97       	sbiw	r24, 0x01	; 1
    4bac:	9b a3       	std	Y+35, r25	; 0x23
    4bae:	8a a3       	std	Y+34, r24	; 0x22
		__ticks = 1;
	else if (__tmp > 65535)
	{
		//	__ticks = requested delay in 1/10 ms
		__ticks = (uint16_t) (__ms * 10.0);
		while(__ticks)
    4bb0:	8a a1       	ldd	r24, Y+34	; 0x22
    4bb2:	9b a1       	ldd	r25, Y+35	; 0x23
    4bb4:	00 97       	sbiw	r24, 0x00	; 0
    4bb6:	69 f7       	brne	.-38     	; 0x4b92 <HLCD_vidWriteChar+0x2d6>
    4bb8:	24 c0       	rjmp	.+72     	; 0x4c02 <HLCD_vidWriteChar+0x346>
			__ticks --;
		}
		return;
	}
	else
		__ticks = (uint16_t)__tmp;
    4bba:	6c a1       	ldd	r22, Y+36	; 0x24
    4bbc:	7d a1       	ldd	r23, Y+37	; 0x25
    4bbe:	8e a1       	ldd	r24, Y+38	; 0x26
    4bc0:	9f a1       	ldd	r25, Y+39	; 0x27
    4bc2:	0e 94 49 00 	call	0x92	; 0x92 <__fixunssfsi>
    4bc6:	dc 01       	movw	r26, r24
    4bc8:	cb 01       	movw	r24, r22
    4bca:	9b a3       	std	Y+35, r25	; 0x23
    4bcc:	8a a3       	std	Y+34, r24	; 0x22
    4bce:	8a a1       	ldd	r24, Y+34	; 0x22
    4bd0:	9b a1       	ldd	r25, Y+35	; 0x23
    4bd2:	9f 8f       	std	Y+31, r25	; 0x1f
    4bd4:	8e 8f       	std	Y+30, r24	; 0x1e
    4bd6:	8e 8d       	ldd	r24, Y+30	; 0x1e
    4bd8:	9f 8d       	ldd	r25, Y+31	; 0x1f
    4bda:	01 97       	sbiw	r24, 0x01	; 1
    4bdc:	f1 f7       	brne	.-4      	; 0x4bda <HLCD_vidWriteChar+0x31e>
    4bde:	9f 8f       	std	Y+31, r25	; 0x1f
    4be0:	8e 8f       	std	Y+30, r24	; 0x1e
    4be2:	0f c0       	rjmp	.+30     	; 0x4c02 <HLCD_vidWriteChar+0x346>
	{
		_delay_ms(__us / 1000.0);
		return;
	}
	else
		__ticks = (uint8_t)__tmp;
    4be4:	6d a5       	ldd	r22, Y+45	; 0x2d
    4be6:	7e a5       	ldd	r23, Y+46	; 0x2e
    4be8:	8f a5       	ldd	r24, Y+47	; 0x2f
    4bea:	98 a9       	ldd	r25, Y+48	; 0x30
    4bec:	0e 94 49 00 	call	0x92	; 0x92 <__fixunssfsi>
    4bf0:	dc 01       	movw	r26, r24
    4bf2:	cb 01       	movw	r24, r22
    4bf4:	8c a7       	std	Y+44, r24	; 0x2c
    4bf6:	8c a5       	ldd	r24, Y+44	; 0x2c
    4bf8:	8d 8f       	std	Y+29, r24	; 0x1d
    can be achieved.
*/
void
_delay_loop_1(uint8_t __count)
{
	__asm__ volatile (
    4bfa:	8d 8d       	ldd	r24, Y+29	; 0x1d
    4bfc:	8a 95       	dec	r24
    4bfe:	f1 f7       	brne	.-4      	; 0x4bfc <HLCD_vidWriteChar+0x340>
    4c00:	8d 8f       	std	Y+29, r24	; 0x1d

	_delay_us(200);

	loc_u8DataReg = (u8CharCopy & 0x0F);
    4c02:	de 01       	movw	r26, r28
    4c04:	ab 5b       	subi	r26, 0xBB	; 187
    4c06:	bf 4f       	sbci	r27, 0xFF	; 255
    4c08:	fe 01       	movw	r30, r28
    4c0a:	ea 5b       	subi	r30, 0xBA	; 186
    4c0c:	ff 4f       	sbci	r31, 0xFF	; 255
    4c0e:	80 81       	ld	r24, Z
    4c10:	8f 70       	andi	r24, 0x0F	; 15
    4c12:	8c 93       	st	X, r24

	for (Uint8_t i = 0; i < DATA_PIN_NUMBER; i++)
    4c14:	fe 01       	movw	r30, r28
    4c16:	ed 5b       	subi	r30, 0xBD	; 189
    4c18:	ff 4f       	sbci	r31, 0xFF	; 255
    4c1a:	10 82       	st	Z, r1
    4c1c:	2c c0       	rjmp	.+88     	; 0x4c76 <HLCD_vidWriteChar+0x3ba>
	{
		DIO_s8SETPinVal(dataPin[i].en_dataPin, ((loc_u8DataReg >> i)&1) );
    4c1e:	fe 01       	movw	r30, r28
    4c20:	ed 5b       	subi	r30, 0xBD	; 189
    4c22:	ff 4f       	sbci	r31, 0xFF	; 255
    4c24:	80 81       	ld	r24, Z
    4c26:	88 2f       	mov	r24, r24
    4c28:	90 e0       	ldi	r25, 0x00	; 0
    4c2a:	fc 01       	movw	r30, r24
    4c2c:	ec 5a       	subi	r30, 0xAC	; 172
    4c2e:	fd 4f       	sbci	r31, 0xFD	; 253
    4c30:	40 81       	ld	r20, Z
    4c32:	fe 01       	movw	r30, r28
    4c34:	eb 5b       	subi	r30, 0xBB	; 187
    4c36:	ff 4f       	sbci	r31, 0xFF	; 255
    4c38:	80 81       	ld	r24, Z
    4c3a:	28 2f       	mov	r18, r24
    4c3c:	30 e0       	ldi	r19, 0x00	; 0
    4c3e:	fe 01       	movw	r30, r28
    4c40:	ed 5b       	subi	r30, 0xBD	; 189
    4c42:	ff 4f       	sbci	r31, 0xFF	; 255
    4c44:	80 81       	ld	r24, Z
    4c46:	88 2f       	mov	r24, r24
    4c48:	90 e0       	ldi	r25, 0x00	; 0
    4c4a:	b9 01       	movw	r22, r18
    4c4c:	02 c0       	rjmp	.+4      	; 0x4c52 <HLCD_vidWriteChar+0x396>
    4c4e:	75 95       	asr	r23
    4c50:	67 95       	ror	r22
    4c52:	8a 95       	dec	r24
    4c54:	e2 f7       	brpl	.-8      	; 0x4c4e <HLCD_vidWriteChar+0x392>
    4c56:	cb 01       	movw	r24, r22
    4c58:	98 2f       	mov	r25, r24
    4c5a:	91 70       	andi	r25, 0x01	; 1
    4c5c:	84 2f       	mov	r24, r20
    4c5e:	69 2f       	mov	r22, r25
    4c60:	0e 94 46 18 	call	0x308c	; 0x308c <DIO_s8SETPinVal>

	_delay_us(200);

	loc_u8DataReg = (u8CharCopy & 0x0F);

	for (Uint8_t i = 0; i < DATA_PIN_NUMBER; i++)
    4c64:	de 01       	movw	r26, r28
    4c66:	ad 5b       	subi	r26, 0xBD	; 189
    4c68:	bf 4f       	sbci	r27, 0xFF	; 255
    4c6a:	fe 01       	movw	r30, r28
    4c6c:	ed 5b       	subi	r30, 0xBD	; 189
    4c6e:	ff 4f       	sbci	r31, 0xFF	; 255
    4c70:	80 81       	ld	r24, Z
    4c72:	8f 5f       	subi	r24, 0xFF	; 255
    4c74:	8c 93       	st	X, r24
    4c76:	fe 01       	movw	r30, r28
    4c78:	ed 5b       	subi	r30, 0xBD	; 189
    4c7a:	ff 4f       	sbci	r31, 0xFF	; 255
    4c7c:	80 81       	ld	r24, Z
    4c7e:	84 30       	cpi	r24, 0x04	; 4
    4c80:	70 f2       	brcs	.-100    	; 0x4c1e <HLCD_vidWriteChar+0x362>
	{
		DIO_s8SETPinVal(dataPin[i].en_dataPin, ((loc_u8DataReg >> i)&1) );
	}

	DIO_s8SETPinVal(LCD_EN_PORT_PIN, HIGH); //ENABLE high
    4c82:	83 e0       	ldi	r24, 0x03	; 3
    4c84:	61 e0       	ldi	r22, 0x01	; 1
    4c86:	0e 94 46 18 	call	0x308c	; 0x308c <DIO_s8SETPinVal>
    4c8a:	80 e0       	ldi	r24, 0x00	; 0
    4c8c:	90 e0       	ldi	r25, 0x00	; 0
    4c8e:	a0 e8       	ldi	r26, 0x80	; 128
    4c90:	bf e3       	ldi	r27, 0x3F	; 63
    4c92:	89 8f       	std	Y+25, r24	; 0x19
    4c94:	9a 8f       	std	Y+26, r25	; 0x1a
    4c96:	ab 8f       	std	Y+27, r26	; 0x1b
    4c98:	bc 8f       	std	Y+28, r27	; 0x1c
 */
void
_delay_ms(double __ms)
{
	uint16_t __ticks;
	double __tmp = ((F_CPU) / 4e3) * __ms;
    4c9a:	69 8d       	ldd	r22, Y+25	; 0x19
    4c9c:	7a 8d       	ldd	r23, Y+26	; 0x1a
    4c9e:	8b 8d       	ldd	r24, Y+27	; 0x1b
    4ca0:	9c 8d       	ldd	r25, Y+28	; 0x1c
    4ca2:	20 e0       	ldi	r18, 0x00	; 0
    4ca4:	30 e0       	ldi	r19, 0x00	; 0
    4ca6:	4a ef       	ldi	r20, 0xFA	; 250
    4ca8:	54 e4       	ldi	r21, 0x44	; 68
    4caa:	0e 94 1f 02 	call	0x43e	; 0x43e <__mulsf3>
    4cae:	dc 01       	movw	r26, r24
    4cb0:	cb 01       	movw	r24, r22
    4cb2:	8d 8b       	std	Y+21, r24	; 0x15
    4cb4:	9e 8b       	std	Y+22, r25	; 0x16
    4cb6:	af 8b       	std	Y+23, r26	; 0x17
    4cb8:	b8 8f       	std	Y+24, r27	; 0x18
	if (__tmp < 1.0)
    4cba:	6d 89       	ldd	r22, Y+21	; 0x15
    4cbc:	7e 89       	ldd	r23, Y+22	; 0x16
    4cbe:	8f 89       	ldd	r24, Y+23	; 0x17
    4cc0:	98 8d       	ldd	r25, Y+24	; 0x18
    4cc2:	20 e0       	ldi	r18, 0x00	; 0
    4cc4:	30 e0       	ldi	r19, 0x00	; 0
    4cc6:	40 e8       	ldi	r20, 0x80	; 128
    4cc8:	5f e3       	ldi	r21, 0x3F	; 63
    4cca:	0e 94 25 04 	call	0x84a	; 0x84a <__ltsf2>
    4cce:	88 23       	and	r24, r24
    4cd0:	2c f4       	brge	.+10     	; 0x4cdc <HLCD_vidWriteChar+0x420>
		__ticks = 1;
    4cd2:	81 e0       	ldi	r24, 0x01	; 1
    4cd4:	90 e0       	ldi	r25, 0x00	; 0
    4cd6:	9c 8b       	std	Y+20, r25	; 0x14
    4cd8:	8b 8b       	std	Y+19, r24	; 0x13
    4cda:	3f c0       	rjmp	.+126    	; 0x4d5a <HLCD_vidWriteChar+0x49e>
	else if (__tmp > 65535)
    4cdc:	6d 89       	ldd	r22, Y+21	; 0x15
    4cde:	7e 89       	ldd	r23, Y+22	; 0x16
    4ce0:	8f 89       	ldd	r24, Y+23	; 0x17
    4ce2:	98 8d       	ldd	r25, Y+24	; 0x18
    4ce4:	20 e0       	ldi	r18, 0x00	; 0
    4ce6:	3f ef       	ldi	r19, 0xFF	; 255
    4ce8:	4f e7       	ldi	r20, 0x7F	; 127
    4cea:	57 e4       	ldi	r21, 0x47	; 71
    4cec:	0e 94 c5 03 	call	0x78a	; 0x78a <__gtsf2>
    4cf0:	18 16       	cp	r1, r24
    4cf2:	4c f5       	brge	.+82     	; 0x4d46 <HLCD_vidWriteChar+0x48a>
	{
		//	__ticks = requested delay in 1/10 ms
		__ticks = (uint16_t) (__ms * 10.0);
    4cf4:	69 8d       	ldd	r22, Y+25	; 0x19
    4cf6:	7a 8d       	ldd	r23, Y+26	; 0x1a
    4cf8:	8b 8d       	ldd	r24, Y+27	; 0x1b
    4cfa:	9c 8d       	ldd	r25, Y+28	; 0x1c
    4cfc:	20 e0       	ldi	r18, 0x00	; 0
    4cfe:	30 e0       	ldi	r19, 0x00	; 0
    4d00:	40 e2       	ldi	r20, 0x20	; 32
    4d02:	51 e4       	ldi	r21, 0x41	; 65
    4d04:	0e 94 1f 02 	call	0x43e	; 0x43e <__mulsf3>
    4d08:	dc 01       	movw	r26, r24
    4d0a:	cb 01       	movw	r24, r22
    4d0c:	bc 01       	movw	r22, r24
    4d0e:	cd 01       	movw	r24, r26
    4d10:	0e 94 49 00 	call	0x92	; 0x92 <__fixunssfsi>
    4d14:	dc 01       	movw	r26, r24
    4d16:	cb 01       	movw	r24, r22
    4d18:	9c 8b       	std	Y+20, r25	; 0x14
    4d1a:	8b 8b       	std	Y+19, r24	; 0x13
    4d1c:	0f c0       	rjmp	.+30     	; 0x4d3c <HLCD_vidWriteChar+0x480>
    4d1e:	88 ec       	ldi	r24, 0xC8	; 200
    4d20:	90 e0       	ldi	r25, 0x00	; 0
    4d22:	9a 8b       	std	Y+18, r25	; 0x12
    4d24:	89 8b       	std	Y+17, r24	; 0x11
    milliseconds can be achieved.
 */
void
_delay_loop_2(uint16_t __count)
{
	__asm__ volatile (
    4d26:	89 89       	ldd	r24, Y+17	; 0x11
    4d28:	9a 89       	ldd	r25, Y+18	; 0x12
    4d2a:	01 97       	sbiw	r24, 0x01	; 1
    4d2c:	f1 f7       	brne	.-4      	; 0x4d2a <HLCD_vidWriteChar+0x46e>
    4d2e:	9a 8b       	std	Y+18, r25	; 0x12
    4d30:	89 8b       	std	Y+17, r24	; 0x11
		while(__ticks)
		{
			// wait 1/10 ms
			_delay_loop_2(((F_CPU) / 4e3) / 10);
			__ticks --;
    4d32:	8b 89       	ldd	r24, Y+19	; 0x13
    4d34:	9c 89       	ldd	r25, Y+20	; 0x14
    4d36:	01 97       	sbiw	r24, 0x01	; 1
    4d38:	9c 8b       	std	Y+20, r25	; 0x14
    4d3a:	8b 8b       	std	Y+19, r24	; 0x13
		__ticks = 1;
	else if (__tmp > 65535)
	{
		//	__ticks = requested delay in 1/10 ms
		__ticks = (uint16_t) (__ms * 10.0);
		while(__ticks)
    4d3c:	8b 89       	ldd	r24, Y+19	; 0x13
    4d3e:	9c 89       	ldd	r25, Y+20	; 0x14
    4d40:	00 97       	sbiw	r24, 0x00	; 0
    4d42:	69 f7       	brne	.-38     	; 0x4d1e <HLCD_vidWriteChar+0x462>
    4d44:	14 c0       	rjmp	.+40     	; 0x4d6e <HLCD_vidWriteChar+0x4b2>
			__ticks --;
		}
		return;
	}
	else
		__ticks = (uint16_t)__tmp;
    4d46:	6d 89       	ldd	r22, Y+21	; 0x15
    4d48:	7e 89       	ldd	r23, Y+22	; 0x16
    4d4a:	8f 89       	ldd	r24, Y+23	; 0x17
    4d4c:	98 8d       	ldd	r25, Y+24	; 0x18
    4d4e:	0e 94 49 00 	call	0x92	; 0x92 <__fixunssfsi>
    4d52:	dc 01       	movw	r26, r24
    4d54:	cb 01       	movw	r24, r22
    4d56:	9c 8b       	std	Y+20, r25	; 0x14
    4d58:	8b 8b       	std	Y+19, r24	; 0x13
    4d5a:	8b 89       	ldd	r24, Y+19	; 0x13
    4d5c:	9c 89       	ldd	r25, Y+20	; 0x14
    4d5e:	98 8b       	std	Y+16, r25	; 0x10
    4d60:	8f 87       	std	Y+15, r24	; 0x0f
    4d62:	8f 85       	ldd	r24, Y+15	; 0x0f
    4d64:	98 89       	ldd	r25, Y+16	; 0x10
    4d66:	01 97       	sbiw	r24, 0x01	; 1
    4d68:	f1 f7       	brne	.-4      	; 0x4d66 <HLCD_vidWriteChar+0x4aa>
    4d6a:	98 8b       	std	Y+16, r25	; 0x10
    4d6c:	8f 87       	std	Y+15, r24	; 0x0f
	_delay_ms(1);
	DIO_s8SETPinVal(LCD_EN_PORT_PIN, LOW); //ENABLE low
    4d6e:	83 e0       	ldi	r24, 0x03	; 3
    4d70:	60 e0       	ldi	r22, 0x00	; 0
    4d72:	0e 94 46 18 	call	0x308c	; 0x308c <DIO_s8SETPinVal>
    4d76:	80 e0       	ldi	r24, 0x00	; 0
    4d78:	90 e0       	ldi	r25, 0x00	; 0
    4d7a:	a0 e0       	ldi	r26, 0x00	; 0
    4d7c:	b0 e4       	ldi	r27, 0x40	; 64
    4d7e:	8b 87       	std	Y+11, r24	; 0x0b
    4d80:	9c 87       	std	Y+12, r25	; 0x0c
    4d82:	ad 87       	std	Y+13, r26	; 0x0d
    4d84:	be 87       	std	Y+14, r27	; 0x0e
 */
void
_delay_ms(double __ms)
{
	uint16_t __ticks;
	double __tmp = ((F_CPU) / 4e3) * __ms;
    4d86:	6b 85       	ldd	r22, Y+11	; 0x0b
    4d88:	7c 85       	ldd	r23, Y+12	; 0x0c
    4d8a:	8d 85       	ldd	r24, Y+13	; 0x0d
    4d8c:	9e 85       	ldd	r25, Y+14	; 0x0e
    4d8e:	20 e0       	ldi	r18, 0x00	; 0
    4d90:	30 e0       	ldi	r19, 0x00	; 0
    4d92:	4a ef       	ldi	r20, 0xFA	; 250
    4d94:	54 e4       	ldi	r21, 0x44	; 68
    4d96:	0e 94 1f 02 	call	0x43e	; 0x43e <__mulsf3>
    4d9a:	dc 01       	movw	r26, r24
    4d9c:	cb 01       	movw	r24, r22
    4d9e:	8f 83       	std	Y+7, r24	; 0x07
    4da0:	98 87       	std	Y+8, r25	; 0x08
    4da2:	a9 87       	std	Y+9, r26	; 0x09
    4da4:	ba 87       	std	Y+10, r27	; 0x0a
	if (__tmp < 1.0)
    4da6:	6f 81       	ldd	r22, Y+7	; 0x07
    4da8:	78 85       	ldd	r23, Y+8	; 0x08
    4daa:	89 85       	ldd	r24, Y+9	; 0x09
    4dac:	9a 85       	ldd	r25, Y+10	; 0x0a
    4dae:	20 e0       	ldi	r18, 0x00	; 0
    4db0:	30 e0       	ldi	r19, 0x00	; 0
    4db2:	40 e8       	ldi	r20, 0x80	; 128
    4db4:	5f e3       	ldi	r21, 0x3F	; 63
    4db6:	0e 94 25 04 	call	0x84a	; 0x84a <__ltsf2>
    4dba:	88 23       	and	r24, r24
    4dbc:	2c f4       	brge	.+10     	; 0x4dc8 <HLCD_vidWriteChar+0x50c>
		__ticks = 1;
    4dbe:	81 e0       	ldi	r24, 0x01	; 1
    4dc0:	90 e0       	ldi	r25, 0x00	; 0
    4dc2:	9e 83       	std	Y+6, r25	; 0x06
    4dc4:	8d 83       	std	Y+5, r24	; 0x05
    4dc6:	3f c0       	rjmp	.+126    	; 0x4e46 <HLCD_vidWriteChar+0x58a>
	else if (__tmp > 65535)
    4dc8:	6f 81       	ldd	r22, Y+7	; 0x07
    4dca:	78 85       	ldd	r23, Y+8	; 0x08
    4dcc:	89 85       	ldd	r24, Y+9	; 0x09
    4dce:	9a 85       	ldd	r25, Y+10	; 0x0a
    4dd0:	20 e0       	ldi	r18, 0x00	; 0
    4dd2:	3f ef       	ldi	r19, 0xFF	; 255
    4dd4:	4f e7       	ldi	r20, 0x7F	; 127
    4dd6:	57 e4       	ldi	r21, 0x47	; 71
    4dd8:	0e 94 c5 03 	call	0x78a	; 0x78a <__gtsf2>
    4ddc:	18 16       	cp	r1, r24
    4dde:	4c f5       	brge	.+82     	; 0x4e32 <HLCD_vidWriteChar+0x576>
	{
		//	__ticks = requested delay in 1/10 ms
		__ticks = (uint16_t) (__ms * 10.0);
    4de0:	6b 85       	ldd	r22, Y+11	; 0x0b
    4de2:	7c 85       	ldd	r23, Y+12	; 0x0c
    4de4:	8d 85       	ldd	r24, Y+13	; 0x0d
    4de6:	9e 85       	ldd	r25, Y+14	; 0x0e
    4de8:	20 e0       	ldi	r18, 0x00	; 0
    4dea:	30 e0       	ldi	r19, 0x00	; 0
    4dec:	40 e2       	ldi	r20, 0x20	; 32
    4dee:	51 e4       	ldi	r21, 0x41	; 65
    4df0:	0e 94 1f 02 	call	0x43e	; 0x43e <__mulsf3>
    4df4:	dc 01       	movw	r26, r24
    4df6:	cb 01       	movw	r24, r22
    4df8:	bc 01       	movw	r22, r24
    4dfa:	cd 01       	movw	r24, r26
    4dfc:	0e 94 49 00 	call	0x92	; 0x92 <__fixunssfsi>
    4e00:	dc 01       	movw	r26, r24
    4e02:	cb 01       	movw	r24, r22
    4e04:	9e 83       	std	Y+6, r25	; 0x06
    4e06:	8d 83       	std	Y+5, r24	; 0x05
    4e08:	0f c0       	rjmp	.+30     	; 0x4e28 <HLCD_vidWriteChar+0x56c>
    4e0a:	88 ec       	ldi	r24, 0xC8	; 200
    4e0c:	90 e0       	ldi	r25, 0x00	; 0
    4e0e:	9c 83       	std	Y+4, r25	; 0x04
    4e10:	8b 83       	std	Y+3, r24	; 0x03
    4e12:	8b 81       	ldd	r24, Y+3	; 0x03
    4e14:	9c 81       	ldd	r25, Y+4	; 0x04
    4e16:	01 97       	sbiw	r24, 0x01	; 1
    4e18:	f1 f7       	brne	.-4      	; 0x4e16 <HLCD_vidWriteChar+0x55a>
    4e1a:	9c 83       	std	Y+4, r25	; 0x04
    4e1c:	8b 83       	std	Y+3, r24	; 0x03
		while(__ticks)
		{
			// wait 1/10 ms
			_delay_loop_2(((F_CPU) / 4e3) / 10);
			__ticks --;
    4e1e:	8d 81       	ldd	r24, Y+5	; 0x05
    4e20:	9e 81       	ldd	r25, Y+6	; 0x06
    4e22:	01 97       	sbiw	r24, 0x01	; 1
    4e24:	9e 83       	std	Y+6, r25	; 0x06
    4e26:	8d 83       	std	Y+5, r24	; 0x05
		__ticks = 1;
	else if (__tmp > 65535)
	{
		//	__ticks = requested delay in 1/10 ms
		__ticks = (uint16_t) (__ms * 10.0);
		while(__ticks)
    4e28:	8d 81       	ldd	r24, Y+5	; 0x05
    4e2a:	9e 81       	ldd	r25, Y+6	; 0x06
    4e2c:	00 97       	sbiw	r24, 0x00	; 0
    4e2e:	69 f7       	brne	.-38     	; 0x4e0a <HLCD_vidWriteChar+0x54e>
    4e30:	14 c0       	rjmp	.+40     	; 0x4e5a <HLCD_vidWriteChar+0x59e>
			__ticks --;
		}
		return;
	}
	else
		__ticks = (uint16_t)__tmp;
    4e32:	6f 81       	ldd	r22, Y+7	; 0x07
    4e34:	78 85       	ldd	r23, Y+8	; 0x08
    4e36:	89 85       	ldd	r24, Y+9	; 0x09
    4e38:	9a 85       	ldd	r25, Y+10	; 0x0a
    4e3a:	0e 94 49 00 	call	0x92	; 0x92 <__fixunssfsi>
    4e3e:	dc 01       	movw	r26, r24
    4e40:	cb 01       	movw	r24, r22
    4e42:	9e 83       	std	Y+6, r25	; 0x06
    4e44:	8d 83       	std	Y+5, r24	; 0x05
    4e46:	8d 81       	ldd	r24, Y+5	; 0x05
    4e48:	9e 81       	ldd	r25, Y+6	; 0x06
    4e4a:	9a 83       	std	Y+2, r25	; 0x02
    4e4c:	89 83       	std	Y+1, r24	; 0x01
    4e4e:	89 81       	ldd	r24, Y+1	; 0x01
    4e50:	9a 81       	ldd	r25, Y+2	; 0x02
    4e52:	01 97       	sbiw	r24, 0x01	; 1
    4e54:	f1 f7       	brne	.-4      	; 0x4e52 <HLCD_vidWriteChar+0x596>
    4e56:	9a 83       	std	Y+2, r25	; 0x02
    4e58:	89 83       	std	Y+1, r24	; 0x01
	DIO_s8SETPinVal(LCD_EN_PORT_PIN, HIGH); //ENABLE high
	_delay_ms(2);
	DIO_s8SETPinVal(LCD_EN_PORT_PIN, LOW); //ENABLE low
#endif

}
    4e5a:	ca 5b       	subi	r28, 0xBA	; 186
    4e5c:	df 4f       	sbci	r29, 0xFF	; 255
    4e5e:	0f b6       	in	r0, 0x3f	; 63
    4e60:	f8 94       	cli
    4e62:	de bf       	out	0x3e, r29	; 62
    4e64:	0f be       	out	0x3f, r0	; 63
    4e66:	cd bf       	out	0x3d, r28	; 61
    4e68:	cf 91       	pop	r28
    4e6a:	df 91       	pop	r29
    4e6c:	08 95       	ret

00004e6e <HLCD_ClrDisplay>:
 * description 	: func to clear anything on lcd
 * input param 	: void
 * return		: void
 * */
void HLCD_ClrDisplay(void)
{
    4e6e:	df 93       	push	r29
    4e70:	cf 93       	push	r28
    4e72:	cd b7       	in	r28, 0x3d	; 61
    4e74:	de b7       	in	r29, 0x3e	; 62
    4e76:	6c 97       	sbiw	r28, 0x1c	; 28
    4e78:	0f b6       	in	r0, 0x3f	; 63
    4e7a:	f8 94       	cli
    4e7c:	de bf       	out	0x3e, r29	; 62
    4e7e:	0f be       	out	0x3f, r0	; 63
    4e80:	cd bf       	out	0x3d, r28	; 61
	HLCD_vidWritecmd(HLCD_CLEAR_DISPLAY);
    4e82:	81 e0       	ldi	r24, 0x01	; 1
    4e84:	0e 94 85 21 	call	0x430a	; 0x430a <HLCD_vidWritecmd>
    4e88:	80 e0       	ldi	r24, 0x00	; 0
    4e8a:	90 e0       	ldi	r25, 0x00	; 0
    4e8c:	a0 e8       	ldi	r26, 0x80	; 128
    4e8e:	b0 e4       	ldi	r27, 0x40	; 64
    4e90:	89 8f       	std	Y+25, r24	; 0x19
    4e92:	9a 8f       	std	Y+26, r25	; 0x1a
    4e94:	ab 8f       	std	Y+27, r26	; 0x1b
    4e96:	bc 8f       	std	Y+28, r27	; 0x1c
 */
void
_delay_ms(double __ms)
{
	uint16_t __ticks;
	double __tmp = ((F_CPU) / 4e3) * __ms;
    4e98:	69 8d       	ldd	r22, Y+25	; 0x19
    4e9a:	7a 8d       	ldd	r23, Y+26	; 0x1a
    4e9c:	8b 8d       	ldd	r24, Y+27	; 0x1b
    4e9e:	9c 8d       	ldd	r25, Y+28	; 0x1c
    4ea0:	20 e0       	ldi	r18, 0x00	; 0
    4ea2:	30 e0       	ldi	r19, 0x00	; 0
    4ea4:	4a ef       	ldi	r20, 0xFA	; 250
    4ea6:	54 e4       	ldi	r21, 0x44	; 68
    4ea8:	0e 94 1f 02 	call	0x43e	; 0x43e <__mulsf3>
    4eac:	dc 01       	movw	r26, r24
    4eae:	cb 01       	movw	r24, r22
    4eb0:	8d 8b       	std	Y+21, r24	; 0x15
    4eb2:	9e 8b       	std	Y+22, r25	; 0x16
    4eb4:	af 8b       	std	Y+23, r26	; 0x17
    4eb6:	b8 8f       	std	Y+24, r27	; 0x18
	if (__tmp < 1.0)
    4eb8:	6d 89       	ldd	r22, Y+21	; 0x15
    4eba:	7e 89       	ldd	r23, Y+22	; 0x16
    4ebc:	8f 89       	ldd	r24, Y+23	; 0x17
    4ebe:	98 8d       	ldd	r25, Y+24	; 0x18
    4ec0:	20 e0       	ldi	r18, 0x00	; 0
    4ec2:	30 e0       	ldi	r19, 0x00	; 0
    4ec4:	40 e8       	ldi	r20, 0x80	; 128
    4ec6:	5f e3       	ldi	r21, 0x3F	; 63
    4ec8:	0e 94 25 04 	call	0x84a	; 0x84a <__ltsf2>
    4ecc:	88 23       	and	r24, r24
    4ece:	2c f4       	brge	.+10     	; 0x4eda <HLCD_ClrDisplay+0x6c>
		__ticks = 1;
    4ed0:	81 e0       	ldi	r24, 0x01	; 1
    4ed2:	90 e0       	ldi	r25, 0x00	; 0
    4ed4:	9c 8b       	std	Y+20, r25	; 0x14
    4ed6:	8b 8b       	std	Y+19, r24	; 0x13
    4ed8:	3f c0       	rjmp	.+126    	; 0x4f58 <HLCD_ClrDisplay+0xea>
	else if (__tmp > 65535)
    4eda:	6d 89       	ldd	r22, Y+21	; 0x15
    4edc:	7e 89       	ldd	r23, Y+22	; 0x16
    4ede:	8f 89       	ldd	r24, Y+23	; 0x17
    4ee0:	98 8d       	ldd	r25, Y+24	; 0x18
    4ee2:	20 e0       	ldi	r18, 0x00	; 0
    4ee4:	3f ef       	ldi	r19, 0xFF	; 255
    4ee6:	4f e7       	ldi	r20, 0x7F	; 127
    4ee8:	57 e4       	ldi	r21, 0x47	; 71
    4eea:	0e 94 c5 03 	call	0x78a	; 0x78a <__gtsf2>
    4eee:	18 16       	cp	r1, r24
    4ef0:	4c f5       	brge	.+82     	; 0x4f44 <HLCD_ClrDisplay+0xd6>
	{
		//	__ticks = requested delay in 1/10 ms
		__ticks = (uint16_t) (__ms * 10.0);
    4ef2:	69 8d       	ldd	r22, Y+25	; 0x19
    4ef4:	7a 8d       	ldd	r23, Y+26	; 0x1a
    4ef6:	8b 8d       	ldd	r24, Y+27	; 0x1b
    4ef8:	9c 8d       	ldd	r25, Y+28	; 0x1c
    4efa:	20 e0       	ldi	r18, 0x00	; 0
    4efc:	30 e0       	ldi	r19, 0x00	; 0
    4efe:	40 e2       	ldi	r20, 0x20	; 32
    4f00:	51 e4       	ldi	r21, 0x41	; 65
    4f02:	0e 94 1f 02 	call	0x43e	; 0x43e <__mulsf3>
    4f06:	dc 01       	movw	r26, r24
    4f08:	cb 01       	movw	r24, r22
    4f0a:	bc 01       	movw	r22, r24
    4f0c:	cd 01       	movw	r24, r26
    4f0e:	0e 94 49 00 	call	0x92	; 0x92 <__fixunssfsi>
    4f12:	dc 01       	movw	r26, r24
    4f14:	cb 01       	movw	r24, r22
    4f16:	9c 8b       	std	Y+20, r25	; 0x14
    4f18:	8b 8b       	std	Y+19, r24	; 0x13
    4f1a:	0f c0       	rjmp	.+30     	; 0x4f3a <HLCD_ClrDisplay+0xcc>
    4f1c:	88 ec       	ldi	r24, 0xC8	; 200
    4f1e:	90 e0       	ldi	r25, 0x00	; 0
    4f20:	9a 8b       	std	Y+18, r25	; 0x12
    4f22:	89 8b       	std	Y+17, r24	; 0x11
    4f24:	89 89       	ldd	r24, Y+17	; 0x11
    4f26:	9a 89       	ldd	r25, Y+18	; 0x12
    4f28:	01 97       	sbiw	r24, 0x01	; 1
    4f2a:	f1 f7       	brne	.-4      	; 0x4f28 <HLCD_ClrDisplay+0xba>
    4f2c:	9a 8b       	std	Y+18, r25	; 0x12
    4f2e:	89 8b       	std	Y+17, r24	; 0x11
		while(__ticks)
		{
			// wait 1/10 ms
			_delay_loop_2(((F_CPU) / 4e3) / 10);
			__ticks --;
    4f30:	8b 89       	ldd	r24, Y+19	; 0x13
    4f32:	9c 89       	ldd	r25, Y+20	; 0x14
    4f34:	01 97       	sbiw	r24, 0x01	; 1
    4f36:	9c 8b       	std	Y+20, r25	; 0x14
    4f38:	8b 8b       	std	Y+19, r24	; 0x13
		__ticks = 1;
	else if (__tmp > 65535)
	{
		//	__ticks = requested delay in 1/10 ms
		__ticks = (uint16_t) (__ms * 10.0);
		while(__ticks)
    4f3a:	8b 89       	ldd	r24, Y+19	; 0x13
    4f3c:	9c 89       	ldd	r25, Y+20	; 0x14
    4f3e:	00 97       	sbiw	r24, 0x00	; 0
    4f40:	69 f7       	brne	.-38     	; 0x4f1c <HLCD_ClrDisplay+0xae>
    4f42:	14 c0       	rjmp	.+40     	; 0x4f6c <HLCD_ClrDisplay+0xfe>
			__ticks --;
		}
		return;
	}
	else
		__ticks = (uint16_t)__tmp;
    4f44:	6d 89       	ldd	r22, Y+21	; 0x15
    4f46:	7e 89       	ldd	r23, Y+22	; 0x16
    4f48:	8f 89       	ldd	r24, Y+23	; 0x17
    4f4a:	98 8d       	ldd	r25, Y+24	; 0x18
    4f4c:	0e 94 49 00 	call	0x92	; 0x92 <__fixunssfsi>
    4f50:	dc 01       	movw	r26, r24
    4f52:	cb 01       	movw	r24, r22
    4f54:	9c 8b       	std	Y+20, r25	; 0x14
    4f56:	8b 8b       	std	Y+19, r24	; 0x13
    4f58:	8b 89       	ldd	r24, Y+19	; 0x13
    4f5a:	9c 89       	ldd	r25, Y+20	; 0x14
    4f5c:	98 8b       	std	Y+16, r25	; 0x10
    4f5e:	8f 87       	std	Y+15, r24	; 0x0f
    4f60:	8f 85       	ldd	r24, Y+15	; 0x0f
    4f62:	98 89       	ldd	r25, Y+16	; 0x10
    4f64:	01 97       	sbiw	r24, 0x01	; 1
    4f66:	f1 f7       	brne	.-4      	; 0x4f64 <HLCD_ClrDisplay+0xf6>
    4f68:	98 8b       	std	Y+16, r25	; 0x10
    4f6a:	8f 87       	std	Y+15, r24	; 0x0f
	_delay_ms(4);
	HLCD_vidWritecmd(HLCD_CURSOR_HOME);
    4f6c:	82 e0       	ldi	r24, 0x02	; 2
    4f6e:	0e 94 85 21 	call	0x430a	; 0x430a <HLCD_vidWritecmd>
    4f72:	80 e0       	ldi	r24, 0x00	; 0
    4f74:	90 e0       	ldi	r25, 0x00	; 0
    4f76:	a0 e8       	ldi	r26, 0x80	; 128
    4f78:	b0 e4       	ldi	r27, 0x40	; 64
    4f7a:	8b 87       	std	Y+11, r24	; 0x0b
    4f7c:	9c 87       	std	Y+12, r25	; 0x0c
    4f7e:	ad 87       	std	Y+13, r26	; 0x0d
    4f80:	be 87       	std	Y+14, r27	; 0x0e
 */
void
_delay_ms(double __ms)
{
	uint16_t __ticks;
	double __tmp = ((F_CPU) / 4e3) * __ms;
    4f82:	6b 85       	ldd	r22, Y+11	; 0x0b
    4f84:	7c 85       	ldd	r23, Y+12	; 0x0c
    4f86:	8d 85       	ldd	r24, Y+13	; 0x0d
    4f88:	9e 85       	ldd	r25, Y+14	; 0x0e
    4f8a:	20 e0       	ldi	r18, 0x00	; 0
    4f8c:	30 e0       	ldi	r19, 0x00	; 0
    4f8e:	4a ef       	ldi	r20, 0xFA	; 250
    4f90:	54 e4       	ldi	r21, 0x44	; 68
    4f92:	0e 94 1f 02 	call	0x43e	; 0x43e <__mulsf3>
    4f96:	dc 01       	movw	r26, r24
    4f98:	cb 01       	movw	r24, r22
    4f9a:	8f 83       	std	Y+7, r24	; 0x07
    4f9c:	98 87       	std	Y+8, r25	; 0x08
    4f9e:	a9 87       	std	Y+9, r26	; 0x09
    4fa0:	ba 87       	std	Y+10, r27	; 0x0a
	if (__tmp < 1.0)
    4fa2:	6f 81       	ldd	r22, Y+7	; 0x07
    4fa4:	78 85       	ldd	r23, Y+8	; 0x08
    4fa6:	89 85       	ldd	r24, Y+9	; 0x09
    4fa8:	9a 85       	ldd	r25, Y+10	; 0x0a
    4faa:	20 e0       	ldi	r18, 0x00	; 0
    4fac:	30 e0       	ldi	r19, 0x00	; 0
    4fae:	40 e8       	ldi	r20, 0x80	; 128
    4fb0:	5f e3       	ldi	r21, 0x3F	; 63
    4fb2:	0e 94 25 04 	call	0x84a	; 0x84a <__ltsf2>
    4fb6:	88 23       	and	r24, r24
    4fb8:	2c f4       	brge	.+10     	; 0x4fc4 <HLCD_ClrDisplay+0x156>
		__ticks = 1;
    4fba:	81 e0       	ldi	r24, 0x01	; 1
    4fbc:	90 e0       	ldi	r25, 0x00	; 0
    4fbe:	9e 83       	std	Y+6, r25	; 0x06
    4fc0:	8d 83       	std	Y+5, r24	; 0x05
    4fc2:	3f c0       	rjmp	.+126    	; 0x5042 <HLCD_ClrDisplay+0x1d4>
	else if (__tmp > 65535)
    4fc4:	6f 81       	ldd	r22, Y+7	; 0x07
    4fc6:	78 85       	ldd	r23, Y+8	; 0x08
    4fc8:	89 85       	ldd	r24, Y+9	; 0x09
    4fca:	9a 85       	ldd	r25, Y+10	; 0x0a
    4fcc:	20 e0       	ldi	r18, 0x00	; 0
    4fce:	3f ef       	ldi	r19, 0xFF	; 255
    4fd0:	4f e7       	ldi	r20, 0x7F	; 127
    4fd2:	57 e4       	ldi	r21, 0x47	; 71
    4fd4:	0e 94 c5 03 	call	0x78a	; 0x78a <__gtsf2>
    4fd8:	18 16       	cp	r1, r24
    4fda:	4c f5       	brge	.+82     	; 0x502e <HLCD_ClrDisplay+0x1c0>
	{
		//	__ticks = requested delay in 1/10 ms
		__ticks = (uint16_t) (__ms * 10.0);
    4fdc:	6b 85       	ldd	r22, Y+11	; 0x0b
    4fde:	7c 85       	ldd	r23, Y+12	; 0x0c
    4fe0:	8d 85       	ldd	r24, Y+13	; 0x0d
    4fe2:	9e 85       	ldd	r25, Y+14	; 0x0e
    4fe4:	20 e0       	ldi	r18, 0x00	; 0
    4fe6:	30 e0       	ldi	r19, 0x00	; 0
    4fe8:	40 e2       	ldi	r20, 0x20	; 32
    4fea:	51 e4       	ldi	r21, 0x41	; 65
    4fec:	0e 94 1f 02 	call	0x43e	; 0x43e <__mulsf3>
    4ff0:	dc 01       	movw	r26, r24
    4ff2:	cb 01       	movw	r24, r22
    4ff4:	bc 01       	movw	r22, r24
    4ff6:	cd 01       	movw	r24, r26
    4ff8:	0e 94 49 00 	call	0x92	; 0x92 <__fixunssfsi>
    4ffc:	dc 01       	movw	r26, r24
    4ffe:	cb 01       	movw	r24, r22
    5000:	9e 83       	std	Y+6, r25	; 0x06
    5002:	8d 83       	std	Y+5, r24	; 0x05
    5004:	0f c0       	rjmp	.+30     	; 0x5024 <HLCD_ClrDisplay+0x1b6>
    5006:	88 ec       	ldi	r24, 0xC8	; 200
    5008:	90 e0       	ldi	r25, 0x00	; 0
    500a:	9c 83       	std	Y+4, r25	; 0x04
    500c:	8b 83       	std	Y+3, r24	; 0x03
    500e:	8b 81       	ldd	r24, Y+3	; 0x03
    5010:	9c 81       	ldd	r25, Y+4	; 0x04
    5012:	01 97       	sbiw	r24, 0x01	; 1
    5014:	f1 f7       	brne	.-4      	; 0x5012 <HLCD_ClrDisplay+0x1a4>
    5016:	9c 83       	std	Y+4, r25	; 0x04
    5018:	8b 83       	std	Y+3, r24	; 0x03
		while(__ticks)
		{
			// wait 1/10 ms
			_delay_loop_2(((F_CPU) / 4e3) / 10);
			__ticks --;
    501a:	8d 81       	ldd	r24, Y+5	; 0x05
    501c:	9e 81       	ldd	r25, Y+6	; 0x06
    501e:	01 97       	sbiw	r24, 0x01	; 1
    5020:	9e 83       	std	Y+6, r25	; 0x06
    5022:	8d 83       	std	Y+5, r24	; 0x05
		__ticks = 1;
	else if (__tmp > 65535)
	{
		//	__ticks = requested delay in 1/10 ms
		__ticks = (uint16_t) (__ms * 10.0);
		while(__ticks)
    5024:	8d 81       	ldd	r24, Y+5	; 0x05
    5026:	9e 81       	ldd	r25, Y+6	; 0x06
    5028:	00 97       	sbiw	r24, 0x00	; 0
    502a:	69 f7       	brne	.-38     	; 0x5006 <HLCD_ClrDisplay+0x198>
    502c:	14 c0       	rjmp	.+40     	; 0x5056 <HLCD_ClrDisplay+0x1e8>
			__ticks --;
		}
		return;
	}
	else
		__ticks = (uint16_t)__tmp;
    502e:	6f 81       	ldd	r22, Y+7	; 0x07
    5030:	78 85       	ldd	r23, Y+8	; 0x08
    5032:	89 85       	ldd	r24, Y+9	; 0x09
    5034:	9a 85       	ldd	r25, Y+10	; 0x0a
    5036:	0e 94 49 00 	call	0x92	; 0x92 <__fixunssfsi>
    503a:	dc 01       	movw	r26, r24
    503c:	cb 01       	movw	r24, r22
    503e:	9e 83       	std	Y+6, r25	; 0x06
    5040:	8d 83       	std	Y+5, r24	; 0x05
    5042:	8d 81       	ldd	r24, Y+5	; 0x05
    5044:	9e 81       	ldd	r25, Y+6	; 0x06
    5046:	9a 83       	std	Y+2, r25	; 0x02
    5048:	89 83       	std	Y+1, r24	; 0x01
    504a:	89 81       	ldd	r24, Y+1	; 0x01
    504c:	9a 81       	ldd	r25, Y+2	; 0x02
    504e:	01 97       	sbiw	r24, 0x01	; 1
    5050:	f1 f7       	brne	.-4      	; 0x504e <HLCD_ClrDisplay+0x1e0>
    5052:	9a 83       	std	Y+2, r25	; 0x02
    5054:	89 83       	std	Y+1, r24	; 0x01
	_delay_ms(4);

}
    5056:	6c 96       	adiw	r28, 0x1c	; 28
    5058:	0f b6       	in	r0, 0x3f	; 63
    505a:	f8 94       	cli
    505c:	de bf       	out	0x3e, r29	; 62
    505e:	0f be       	out	0x3f, r0	; 63
    5060:	cd bf       	out	0x3d, r28	; 61
    5062:	cf 91       	pop	r28
    5064:	df 91       	pop	r29
    5066:	08 95       	ret

00005068 <HLCD_ShiftLeft>:
 * description 	: func to shift the lcd display from right to left
 * input param 	: void
 * return		: void
 * */
void HLCD_ShiftLeft(void)
{
    5068:	df 93       	push	r29
    506a:	cf 93       	push	r28
    506c:	cd b7       	in	r28, 0x3d	; 61
    506e:	de b7       	in	r29, 0x3e	; 62
    5070:	2e 97       	sbiw	r28, 0x0e	; 14
    5072:	0f b6       	in	r0, 0x3f	; 63
    5074:	f8 94       	cli
    5076:	de bf       	out	0x3e, r29	; 62
    5078:	0f be       	out	0x3f, r0	; 63
    507a:	cd bf       	out	0x3d, r28	; 61
	HLCD_vidWritecmd(HLCD_DISPLAY_SHIFT_LEFT);
    507c:	88 e1       	ldi	r24, 0x18	; 24
    507e:	0e 94 85 21 	call	0x430a	; 0x430a <HLCD_vidWritecmd>
    5082:	80 e0       	ldi	r24, 0x00	; 0
    5084:	90 e0       	ldi	r25, 0x00	; 0
    5086:	a0 e8       	ldi	r26, 0x80	; 128
    5088:	bf e3       	ldi	r27, 0x3F	; 63
    508a:	8b 87       	std	Y+11, r24	; 0x0b
    508c:	9c 87       	std	Y+12, r25	; 0x0c
    508e:	ad 87       	std	Y+13, r26	; 0x0d
    5090:	be 87       	std	Y+14, r27	; 0x0e
 */
void
_delay_ms(double __ms)
{
	uint16_t __ticks;
	double __tmp = ((F_CPU) / 4e3) * __ms;
    5092:	6b 85       	ldd	r22, Y+11	; 0x0b
    5094:	7c 85       	ldd	r23, Y+12	; 0x0c
    5096:	8d 85       	ldd	r24, Y+13	; 0x0d
    5098:	9e 85       	ldd	r25, Y+14	; 0x0e
    509a:	20 e0       	ldi	r18, 0x00	; 0
    509c:	30 e0       	ldi	r19, 0x00	; 0
    509e:	4a ef       	ldi	r20, 0xFA	; 250
    50a0:	54 e4       	ldi	r21, 0x44	; 68
    50a2:	0e 94 1f 02 	call	0x43e	; 0x43e <__mulsf3>
    50a6:	dc 01       	movw	r26, r24
    50a8:	cb 01       	movw	r24, r22
    50aa:	8f 83       	std	Y+7, r24	; 0x07
    50ac:	98 87       	std	Y+8, r25	; 0x08
    50ae:	a9 87       	std	Y+9, r26	; 0x09
    50b0:	ba 87       	std	Y+10, r27	; 0x0a
	if (__tmp < 1.0)
    50b2:	6f 81       	ldd	r22, Y+7	; 0x07
    50b4:	78 85       	ldd	r23, Y+8	; 0x08
    50b6:	89 85       	ldd	r24, Y+9	; 0x09
    50b8:	9a 85       	ldd	r25, Y+10	; 0x0a
    50ba:	20 e0       	ldi	r18, 0x00	; 0
    50bc:	30 e0       	ldi	r19, 0x00	; 0
    50be:	40 e8       	ldi	r20, 0x80	; 128
    50c0:	5f e3       	ldi	r21, 0x3F	; 63
    50c2:	0e 94 25 04 	call	0x84a	; 0x84a <__ltsf2>
    50c6:	88 23       	and	r24, r24
    50c8:	2c f4       	brge	.+10     	; 0x50d4 <HLCD_ShiftLeft+0x6c>
		__ticks = 1;
    50ca:	81 e0       	ldi	r24, 0x01	; 1
    50cc:	90 e0       	ldi	r25, 0x00	; 0
    50ce:	9e 83       	std	Y+6, r25	; 0x06
    50d0:	8d 83       	std	Y+5, r24	; 0x05
    50d2:	3f c0       	rjmp	.+126    	; 0x5152 <HLCD_ShiftLeft+0xea>
	else if (__tmp > 65535)
    50d4:	6f 81       	ldd	r22, Y+7	; 0x07
    50d6:	78 85       	ldd	r23, Y+8	; 0x08
    50d8:	89 85       	ldd	r24, Y+9	; 0x09
    50da:	9a 85       	ldd	r25, Y+10	; 0x0a
    50dc:	20 e0       	ldi	r18, 0x00	; 0
    50de:	3f ef       	ldi	r19, 0xFF	; 255
    50e0:	4f e7       	ldi	r20, 0x7F	; 127
    50e2:	57 e4       	ldi	r21, 0x47	; 71
    50e4:	0e 94 c5 03 	call	0x78a	; 0x78a <__gtsf2>
    50e8:	18 16       	cp	r1, r24
    50ea:	4c f5       	brge	.+82     	; 0x513e <HLCD_ShiftLeft+0xd6>
	{
		//	__ticks = requested delay in 1/10 ms
		__ticks = (uint16_t) (__ms * 10.0);
    50ec:	6b 85       	ldd	r22, Y+11	; 0x0b
    50ee:	7c 85       	ldd	r23, Y+12	; 0x0c
    50f0:	8d 85       	ldd	r24, Y+13	; 0x0d
    50f2:	9e 85       	ldd	r25, Y+14	; 0x0e
    50f4:	20 e0       	ldi	r18, 0x00	; 0
    50f6:	30 e0       	ldi	r19, 0x00	; 0
    50f8:	40 e2       	ldi	r20, 0x20	; 32
    50fa:	51 e4       	ldi	r21, 0x41	; 65
    50fc:	0e 94 1f 02 	call	0x43e	; 0x43e <__mulsf3>
    5100:	dc 01       	movw	r26, r24
    5102:	cb 01       	movw	r24, r22
    5104:	bc 01       	movw	r22, r24
    5106:	cd 01       	movw	r24, r26
    5108:	0e 94 49 00 	call	0x92	; 0x92 <__fixunssfsi>
    510c:	dc 01       	movw	r26, r24
    510e:	cb 01       	movw	r24, r22
    5110:	9e 83       	std	Y+6, r25	; 0x06
    5112:	8d 83       	std	Y+5, r24	; 0x05
    5114:	0f c0       	rjmp	.+30     	; 0x5134 <HLCD_ShiftLeft+0xcc>
    5116:	88 ec       	ldi	r24, 0xC8	; 200
    5118:	90 e0       	ldi	r25, 0x00	; 0
    511a:	9c 83       	std	Y+4, r25	; 0x04
    511c:	8b 83       	std	Y+3, r24	; 0x03
    511e:	8b 81       	ldd	r24, Y+3	; 0x03
    5120:	9c 81       	ldd	r25, Y+4	; 0x04
    5122:	01 97       	sbiw	r24, 0x01	; 1
    5124:	f1 f7       	brne	.-4      	; 0x5122 <HLCD_ShiftLeft+0xba>
    5126:	9c 83       	std	Y+4, r25	; 0x04
    5128:	8b 83       	std	Y+3, r24	; 0x03
		while(__ticks)
		{
			// wait 1/10 ms
			_delay_loop_2(((F_CPU) / 4e3) / 10);
			__ticks --;
    512a:	8d 81       	ldd	r24, Y+5	; 0x05
    512c:	9e 81       	ldd	r25, Y+6	; 0x06
    512e:	01 97       	sbiw	r24, 0x01	; 1
    5130:	9e 83       	std	Y+6, r25	; 0x06
    5132:	8d 83       	std	Y+5, r24	; 0x05
		__ticks = 1;
	else if (__tmp > 65535)
	{
		//	__ticks = requested delay in 1/10 ms
		__ticks = (uint16_t) (__ms * 10.0);
		while(__ticks)
    5134:	8d 81       	ldd	r24, Y+5	; 0x05
    5136:	9e 81       	ldd	r25, Y+6	; 0x06
    5138:	00 97       	sbiw	r24, 0x00	; 0
    513a:	69 f7       	brne	.-38     	; 0x5116 <HLCD_ShiftLeft+0xae>
    513c:	14 c0       	rjmp	.+40     	; 0x5166 <HLCD_ShiftLeft+0xfe>
			__ticks --;
		}
		return;
	}
	else
		__ticks = (uint16_t)__tmp;
    513e:	6f 81       	ldd	r22, Y+7	; 0x07
    5140:	78 85       	ldd	r23, Y+8	; 0x08
    5142:	89 85       	ldd	r24, Y+9	; 0x09
    5144:	9a 85       	ldd	r25, Y+10	; 0x0a
    5146:	0e 94 49 00 	call	0x92	; 0x92 <__fixunssfsi>
    514a:	dc 01       	movw	r26, r24
    514c:	cb 01       	movw	r24, r22
    514e:	9e 83       	std	Y+6, r25	; 0x06
    5150:	8d 83       	std	Y+5, r24	; 0x05
    5152:	8d 81       	ldd	r24, Y+5	; 0x05
    5154:	9e 81       	ldd	r25, Y+6	; 0x06
    5156:	9a 83       	std	Y+2, r25	; 0x02
    5158:	89 83       	std	Y+1, r24	; 0x01
    515a:	89 81       	ldd	r24, Y+1	; 0x01
    515c:	9a 81       	ldd	r25, Y+2	; 0x02
    515e:	01 97       	sbiw	r24, 0x01	; 1
    5160:	f1 f7       	brne	.-4      	; 0x515e <HLCD_ShiftLeft+0xf6>
    5162:	9a 83       	std	Y+2, r25	; 0x02
    5164:	89 83       	std	Y+1, r24	; 0x01
	_delay_ms(1);

}
    5166:	2e 96       	adiw	r28, 0x0e	; 14
    5168:	0f b6       	in	r0, 0x3f	; 63
    516a:	f8 94       	cli
    516c:	de bf       	out	0x3e, r29	; 62
    516e:	0f be       	out	0x3f, r0	; 63
    5170:	cd bf       	out	0x3d, r28	; 61
    5172:	cf 91       	pop	r28
    5174:	df 91       	pop	r29
    5176:	08 95       	ret

00005178 <HLCD_gotoXY>:
 * 				  row -> take row number 0 or 1
 * 				  pos -> take colom number from 0 ~ 16
 * return		: void
 * */
void HLCD_gotoXY(Uint8_t row, Uint8_t pos)
{
    5178:	df 93       	push	r29
    517a:	cf 93       	push	r28
    517c:	00 d0       	rcall	.+0      	; 0x517e <HLCD_gotoXY+0x6>
    517e:	cd b7       	in	r28, 0x3d	; 61
    5180:	de b7       	in	r29, 0x3e	; 62
    5182:	89 83       	std	Y+1, r24	; 0x01
    5184:	6a 83       	std	Y+2, r22	; 0x02
	if (row==0 && pos < 16)
    5186:	89 81       	ldd	r24, Y+1	; 0x01
    5188:	88 23       	and	r24, r24
    518a:	49 f4       	brne	.+18     	; 0x519e <HLCD_gotoXY+0x26>
    518c:	8a 81       	ldd	r24, Y+2	; 0x02
    518e:	80 31       	cpi	r24, 0x10	; 16
    5190:	30 f4       	brcc	.+12     	; 0x519e <HLCD_gotoXY+0x26>
	{
		HLCD_vidWritecmd((pos & 0x0F)| 0x80);
    5192:	8a 81       	ldd	r24, Y+2	; 0x02
    5194:	8f 70       	andi	r24, 0x0F	; 15
    5196:	80 68       	ori	r24, 0x80	; 128
    5198:	0e 94 85 21 	call	0x430a	; 0x430a <HLCD_vidWritecmd>
    519c:	0b c0       	rjmp	.+22     	; 0x51b4 <HLCD_gotoXY+0x3c>
	}
	else if (row==1 && pos < 16)
    519e:	89 81       	ldd	r24, Y+1	; 0x01
    51a0:	81 30       	cpi	r24, 0x01	; 1
    51a2:	41 f4       	brne	.+16     	; 0x51b4 <HLCD_gotoXY+0x3c>
    51a4:	8a 81       	ldd	r24, Y+2	; 0x02
    51a6:	80 31       	cpi	r24, 0x10	; 16
    51a8:	28 f4       	brcc	.+10     	; 0x51b4 <HLCD_gotoXY+0x3c>
	{
		HLCD_vidWritecmd((pos & 0x0F)| 0xC0);
    51aa:	8a 81       	ldd	r24, Y+2	; 0x02
    51ac:	8f 70       	andi	r24, 0x0F	; 15
    51ae:	80 6c       	ori	r24, 0xC0	; 192
    51b0:	0e 94 85 21 	call	0x430a	; 0x430a <HLCD_vidWritecmd>
	}
}
    51b4:	0f 90       	pop	r0
    51b6:	0f 90       	pop	r0
    51b8:	cf 91       	pop	r28
    51ba:	df 91       	pop	r29
    51bc:	08 95       	ret

000051be <HLCD_WriteString>:
 * description 	: func to write string on lcd
 * input param 	: str --> which take string as argument
 * return		: void
 * */
void HLCD_WriteString(Uint8_t* str)
{
    51be:	df 93       	push	r29
    51c0:	cf 93       	push	r28
    51c2:	00 d0       	rcall	.+0      	; 0x51c4 <HLCD_WriteString+0x6>
    51c4:	00 d0       	rcall	.+0      	; 0x51c6 <HLCD_WriteString+0x8>
    51c6:	0f 92       	push	r0
    51c8:	cd b7       	in	r28, 0x3d	; 61
    51ca:	de b7       	in	r29, 0x3e	; 62
    51cc:	9d 83       	std	Y+5, r25	; 0x05
    51ce:	8c 83       	std	Y+4, r24	; 0x04
	Uint16_t count = 0;
    51d0:	1b 82       	std	Y+3, r1	; 0x03
    51d2:	1a 82       	std	Y+2, r1	; 0x02
	Uint8_t string = str[count];
    51d4:	2c 81       	ldd	r18, Y+4	; 0x04
    51d6:	3d 81       	ldd	r19, Y+5	; 0x05
    51d8:	8a 81       	ldd	r24, Y+2	; 0x02
    51da:	9b 81       	ldd	r25, Y+3	; 0x03
    51dc:	f9 01       	movw	r30, r18
    51de:	e8 0f       	add	r30, r24
    51e0:	f9 1f       	adc	r31, r25
    51e2:	80 81       	ld	r24, Z
    51e4:	89 83       	std	Y+1, r24	; 0x01
    51e6:	11 c0       	rjmp	.+34     	; 0x520a <HLCD_WriteString+0x4c>
	while(string)
	{
		HLCD_vidWriteChar(string);
    51e8:	89 81       	ldd	r24, Y+1	; 0x01
    51ea:	0e 94 5e 24 	call	0x48bc	; 0x48bc <HLCD_vidWriteChar>
		string = str[++count];
    51ee:	8a 81       	ldd	r24, Y+2	; 0x02
    51f0:	9b 81       	ldd	r25, Y+3	; 0x03
    51f2:	01 96       	adiw	r24, 0x01	; 1
    51f4:	9b 83       	std	Y+3, r25	; 0x03
    51f6:	8a 83       	std	Y+2, r24	; 0x02
    51f8:	2c 81       	ldd	r18, Y+4	; 0x04
    51fa:	3d 81       	ldd	r19, Y+5	; 0x05
    51fc:	8a 81       	ldd	r24, Y+2	; 0x02
    51fe:	9b 81       	ldd	r25, Y+3	; 0x03
    5200:	f9 01       	movw	r30, r18
    5202:	e8 0f       	add	r30, r24
    5204:	f9 1f       	adc	r31, r25
    5206:	80 81       	ld	r24, Z
    5208:	89 83       	std	Y+1, r24	; 0x01
 * */
void HLCD_WriteString(Uint8_t* str)
{
	Uint16_t count = 0;
	Uint8_t string = str[count];
	while(string)
    520a:	89 81       	ldd	r24, Y+1	; 0x01
    520c:	88 23       	and	r24, r24
    520e:	61 f7       	brne	.-40     	; 0x51e8 <HLCD_WriteString+0x2a>
	{
		HLCD_vidWriteChar(string);
		string = str[++count];
	}
}
    5210:	0f 90       	pop	r0
    5212:	0f 90       	pop	r0
    5214:	0f 90       	pop	r0
    5216:	0f 90       	pop	r0
    5218:	0f 90       	pop	r0
    521a:	cf 91       	pop	r28
    521c:	df 91       	pop	r29
    521e:	08 95       	ret

00005220 <HLCD_WriteInt>:
 * description 	: func to write integer number on lcd
 * input param 	: number --> which take number as argument
 * return		: void
 * */
void HLCD_WriteInt(Uint32_t number)
{
    5220:	df 93       	push	r29
    5222:	cf 93       	push	r28
    5224:	cd b7       	in	r28, 0x3d	; 61
    5226:	de b7       	in	r29, 0x3e	; 62
    5228:	68 97       	sbiw	r28, 0x18	; 24
    522a:	0f b6       	in	r0, 0x3f	; 63
    522c:	f8 94       	cli
    522e:	de bf       	out	0x3e, r29	; 62
    5230:	0f be       	out	0x3f, r0	; 63
    5232:	cd bf       	out	0x3d, r28	; 61
    5234:	6d 8b       	std	Y+21, r22	; 0x15
    5236:	7e 8b       	std	Y+22, r23	; 0x16
    5238:	8f 8b       	std	Y+23, r24	; 0x17
    523a:	98 8f       	std	Y+24, r25	; 0x18
	Uint8_t STR[INDEX];
	sprintf((Uint8_t*)STR, "%lu", number);
    523c:	8d b7       	in	r24, 0x3d	; 61
    523e:	9e b7       	in	r25, 0x3e	; 62
    5240:	08 97       	sbiw	r24, 0x08	; 8
    5242:	0f b6       	in	r0, 0x3f	; 63
    5244:	f8 94       	cli
    5246:	9e bf       	out	0x3e, r25	; 62
    5248:	0f be       	out	0x3f, r0	; 63
    524a:	8d bf       	out	0x3d, r24	; 61
    524c:	ed b7       	in	r30, 0x3d	; 61
    524e:	fe b7       	in	r31, 0x3e	; 62
    5250:	31 96       	adiw	r30, 0x01	; 1
    5252:	ce 01       	movw	r24, r28
    5254:	01 96       	adiw	r24, 0x01	; 1
    5256:	91 83       	std	Z+1, r25	; 0x01
    5258:	80 83       	st	Z, r24
    525a:	88 e6       	ldi	r24, 0x68	; 104
    525c:	90 e0       	ldi	r25, 0x00	; 0
    525e:	93 83       	std	Z+3, r25	; 0x03
    5260:	82 83       	std	Z+2, r24	; 0x02
    5262:	8d 89       	ldd	r24, Y+21	; 0x15
    5264:	9e 89       	ldd	r25, Y+22	; 0x16
    5266:	af 89       	ldd	r26, Y+23	; 0x17
    5268:	b8 8d       	ldd	r27, Y+24	; 0x18
    526a:	84 83       	std	Z+4, r24	; 0x04
    526c:	95 83       	std	Z+5, r25	; 0x05
    526e:	a6 83       	std	Z+6, r26	; 0x06
    5270:	b7 83       	std	Z+7, r27	; 0x07
    5272:	0e 94 42 30 	call	0x6084	; 0x6084 <sprintf>
    5276:	8d b7       	in	r24, 0x3d	; 61
    5278:	9e b7       	in	r25, 0x3e	; 62
    527a:	08 96       	adiw	r24, 0x08	; 8
    527c:	0f b6       	in	r0, 0x3f	; 63
    527e:	f8 94       	cli
    5280:	9e bf       	out	0x3e, r25	; 62
    5282:	0f be       	out	0x3f, r0	; 63
    5284:	8d bf       	out	0x3d, r24	; 61
//	HLCD_vidWritecmd(0x01);  // Clear display
//    _delay_ms(2);
//    HLCD_vidWriteChar(STR);
//	itoa(number, STR, 10);
	HLCD_WriteString(STR);
    5286:	ce 01       	movw	r24, r28
    5288:	01 96       	adiw	r24, 0x01	; 1
    528a:	0e 94 df 28 	call	0x51be	; 0x51be <HLCD_WriteString>
}
    528e:	68 96       	adiw	r28, 0x18	; 24
    5290:	0f b6       	in	r0, 0x3f	; 63
    5292:	f8 94       	cli
    5294:	de bf       	out	0x3e, r29	; 62
    5296:	0f be       	out	0x3f, r0	; 63
    5298:	cd bf       	out	0x3d, r28	; 61
    529a:	cf 91       	pop	r28
    529c:	df 91       	pop	r29
    529e:	08 95       	ret

000052a0 <HLCD_WriteArabic>:
 * description 	: func to write Arabic string on lcd
 * input param 	: u8ArCharCopy --> which take string as argument
 * return		: void
 * */
void HLCD_WriteArabic(Uint8_t u8ArCharCopy)
{
    52a0:	df 93       	push	r29
    52a2:	cf 93       	push	r28
    52a4:	0f 92       	push	r0
    52a6:	cd b7       	in	r28, 0x3d	; 61
    52a8:	de b7       	in	r29, 0x3e	; 62
    52aa:	89 83       	std	Y+1, r24	; 0x01
	HLCD_vidWritecmd(0x04);
    52ac:	84 e0       	ldi	r24, 0x04	; 4
    52ae:	0e 94 85 21 	call	0x430a	; 0x430a <HLCD_vidWritecmd>
	HLCD_vidWriteChar(u8ArCharCopy);
    52b2:	89 81       	ldd	r24, Y+1	; 0x01
    52b4:	0e 94 5e 24 	call	0x48bc	; 0x48bc <HLCD_vidWriteChar>
}
    52b8:	0f 90       	pop	r0
    52ba:	cf 91       	pop	r28
    52bc:	df 91       	pop	r29
    52be:	08 95       	ret

000052c0 <HLCD_backspace_Left>:

void HLCD_backspace_Left(void) {
    52c0:	df 93       	push	r29
    52c2:	cf 93       	push	r28
    52c4:	cd b7       	in	r28, 0x3d	; 61
    52c6:	de b7       	in	r29, 0x3e	; 62
	HLCD_vidWritecmd(0x10);  // Move cursor left
    52c8:	80 e1       	ldi	r24, 0x10	; 16
    52ca:	0e 94 85 21 	call	0x430a	; 0x430a <HLCD_vidWritecmd>
	HLCD_vidWriteChar(' ');  // Replace the character with a space
    52ce:	80 e2       	ldi	r24, 0x20	; 32
    52d0:	0e 94 5e 24 	call	0x48bc	; 0x48bc <HLCD_vidWriteChar>
    HLCD_vidWritecmd(0x10);  // Move cursor left again
    52d4:	80 e1       	ldi	r24, 0x10	; 16
    52d6:	0e 94 85 21 	call	0x430a	; 0x430a <HLCD_vidWritecmd>
}
    52da:	cf 91       	pop	r28
    52dc:	df 91       	pop	r29
    52de:	08 95       	ret

000052e0 <HLCD_backspace_Rigt>:

void HLCD_backspace_Rigt(void) {
    52e0:	df 93       	push	r29
    52e2:	cf 93       	push	r28
    52e4:	cd b7       	in	r28, 0x3d	; 61
    52e6:	de b7       	in	r29, 0x3e	; 62
	HLCD_vidWritecmd(0x14);  // Move cursor right
    52e8:	84 e1       	ldi	r24, 0x14	; 20
    52ea:	0e 94 85 21 	call	0x430a	; 0x430a <HLCD_vidWritecmd>
	HLCD_vidWriteChar(' ');  // Replace the character with a space
    52ee:	80 e2       	ldi	r24, 0x20	; 32
    52f0:	0e 94 5e 24 	call	0x48bc	; 0x48bc <HLCD_vidWriteChar>
    HLCD_vidWritecmd(0x14);  // Move cursor right again
    52f4:	84 e1       	ldi	r24, 0x14	; 20
    52f6:	0e 94 85 21 	call	0x430a	; 0x430a <HLCD_vidWritecmd>
}
    52fa:	cf 91       	pop	r28
    52fc:	df 91       	pop	r29
    52fe:	08 95       	ret

00005300 <HLCD_vidCreatCustomChar>:
 * 				  pu8custom  -> take pointer to array which having LCD Custom Character Generated data ### take only 8 characters
 * 				  u8Location -> determine location on CGRAM [0 ~ 8]
 * return		: void
 * */
void HLCD_vidCreatCustomChar(Uint8_t* pu8custom, Uint8_t u8Location)
{
    5300:	df 93       	push	r29
    5302:	cf 93       	push	r28
    5304:	cd b7       	in	r28, 0x3d	; 61
    5306:	de b7       	in	r29, 0x3e	; 62
    5308:	62 97       	sbiw	r28, 0x12	; 18
    530a:	0f b6       	in	r0, 0x3f	; 63
    530c:	f8 94       	cli
    530e:	de bf       	out	0x3e, r29	; 62
    5310:	0f be       	out	0x3f, r0	; 63
    5312:	cd bf       	out	0x3d, r28	; 61
    5314:	99 8b       	std	Y+17, r25	; 0x11
    5316:	88 8b       	std	Y+16, r24	; 0x10
    5318:	6a 8b       	std	Y+18, r22	; 0x12
	if (u8Location < 8)  // CGRAM only store 8 characters
    531a:	8a 89       	ldd	r24, Y+18	; 0x12
    531c:	88 30       	cpi	r24, 0x08	; 8
    531e:	08 f0       	brcs	.+2      	; 0x5322 <HLCD_vidCreatCustomChar+0x22>
    5320:	91 c0       	rjmp	.+290    	; 0x5444 <HLCD_vidCreatCustomChar+0x144>
	{
		HLCD_vidWritecmd(LCD_SET_CGRAM_ADDR_CMD + (u8Location*8));
    5322:	8a 89       	ldd	r24, Y+18	; 0x12
    5324:	88 2f       	mov	r24, r24
    5326:	90 e0       	ldi	r25, 0x00	; 0
    5328:	08 96       	adiw	r24, 0x08	; 8
    532a:	88 0f       	add	r24, r24
    532c:	99 1f       	adc	r25, r25
    532e:	88 0f       	add	r24, r24
    5330:	99 1f       	adc	r25, r25
    5332:	88 0f       	add	r24, r24
    5334:	99 1f       	adc	r25, r25
    5336:	0e 94 85 21 	call	0x430a	; 0x430a <HLCD_vidWritecmd>
    533a:	80 e0       	ldi	r24, 0x00	; 0
    533c:	90 e0       	ldi	r25, 0x00	; 0
    533e:	a0 e8       	ldi	r26, 0x80	; 128
    5340:	bf e3       	ldi	r27, 0x3F	; 63
    5342:	8b 87       	std	Y+11, r24	; 0x0b
    5344:	9c 87       	std	Y+12, r25	; 0x0c
    5346:	ad 87       	std	Y+13, r26	; 0x0d
    5348:	be 87       	std	Y+14, r27	; 0x0e
 */
void
_delay_ms(double __ms)
{
	uint16_t __ticks;
	double __tmp = ((F_CPU) / 4e3) * __ms;
    534a:	6b 85       	ldd	r22, Y+11	; 0x0b
    534c:	7c 85       	ldd	r23, Y+12	; 0x0c
    534e:	8d 85       	ldd	r24, Y+13	; 0x0d
    5350:	9e 85       	ldd	r25, Y+14	; 0x0e
    5352:	20 e0       	ldi	r18, 0x00	; 0
    5354:	30 e0       	ldi	r19, 0x00	; 0
    5356:	4a ef       	ldi	r20, 0xFA	; 250
    5358:	54 e4       	ldi	r21, 0x44	; 68
    535a:	0e 94 1f 02 	call	0x43e	; 0x43e <__mulsf3>
    535e:	dc 01       	movw	r26, r24
    5360:	cb 01       	movw	r24, r22
    5362:	8f 83       	std	Y+7, r24	; 0x07
    5364:	98 87       	std	Y+8, r25	; 0x08
    5366:	a9 87       	std	Y+9, r26	; 0x09
    5368:	ba 87       	std	Y+10, r27	; 0x0a
	if (__tmp < 1.0)
    536a:	6f 81       	ldd	r22, Y+7	; 0x07
    536c:	78 85       	ldd	r23, Y+8	; 0x08
    536e:	89 85       	ldd	r24, Y+9	; 0x09
    5370:	9a 85       	ldd	r25, Y+10	; 0x0a
    5372:	20 e0       	ldi	r18, 0x00	; 0
    5374:	30 e0       	ldi	r19, 0x00	; 0
    5376:	40 e8       	ldi	r20, 0x80	; 128
    5378:	5f e3       	ldi	r21, 0x3F	; 63
    537a:	0e 94 25 04 	call	0x84a	; 0x84a <__ltsf2>
    537e:	88 23       	and	r24, r24
    5380:	2c f4       	brge	.+10     	; 0x538c <HLCD_vidCreatCustomChar+0x8c>
		__ticks = 1;
    5382:	81 e0       	ldi	r24, 0x01	; 1
    5384:	90 e0       	ldi	r25, 0x00	; 0
    5386:	9e 83       	std	Y+6, r25	; 0x06
    5388:	8d 83       	std	Y+5, r24	; 0x05
    538a:	3f c0       	rjmp	.+126    	; 0x540a <HLCD_vidCreatCustomChar+0x10a>
	else if (__tmp > 65535)
    538c:	6f 81       	ldd	r22, Y+7	; 0x07
    538e:	78 85       	ldd	r23, Y+8	; 0x08
    5390:	89 85       	ldd	r24, Y+9	; 0x09
    5392:	9a 85       	ldd	r25, Y+10	; 0x0a
    5394:	20 e0       	ldi	r18, 0x00	; 0
    5396:	3f ef       	ldi	r19, 0xFF	; 255
    5398:	4f e7       	ldi	r20, 0x7F	; 127
    539a:	57 e4       	ldi	r21, 0x47	; 71
    539c:	0e 94 c5 03 	call	0x78a	; 0x78a <__gtsf2>
    53a0:	18 16       	cp	r1, r24
    53a2:	4c f5       	brge	.+82     	; 0x53f6 <HLCD_vidCreatCustomChar+0xf6>
	{
		//	__ticks = requested delay in 1/10 ms
		__ticks = (uint16_t) (__ms * 10.0);
    53a4:	6b 85       	ldd	r22, Y+11	; 0x0b
    53a6:	7c 85       	ldd	r23, Y+12	; 0x0c
    53a8:	8d 85       	ldd	r24, Y+13	; 0x0d
    53aa:	9e 85       	ldd	r25, Y+14	; 0x0e
    53ac:	20 e0       	ldi	r18, 0x00	; 0
    53ae:	30 e0       	ldi	r19, 0x00	; 0
    53b0:	40 e2       	ldi	r20, 0x20	; 32
    53b2:	51 e4       	ldi	r21, 0x41	; 65
    53b4:	0e 94 1f 02 	call	0x43e	; 0x43e <__mulsf3>
    53b8:	dc 01       	movw	r26, r24
    53ba:	cb 01       	movw	r24, r22
    53bc:	bc 01       	movw	r22, r24
    53be:	cd 01       	movw	r24, r26
    53c0:	0e 94 49 00 	call	0x92	; 0x92 <__fixunssfsi>
    53c4:	dc 01       	movw	r26, r24
    53c6:	cb 01       	movw	r24, r22
    53c8:	9e 83       	std	Y+6, r25	; 0x06
    53ca:	8d 83       	std	Y+5, r24	; 0x05
    53cc:	0f c0       	rjmp	.+30     	; 0x53ec <HLCD_vidCreatCustomChar+0xec>
    53ce:	88 ec       	ldi	r24, 0xC8	; 200
    53d0:	90 e0       	ldi	r25, 0x00	; 0
    53d2:	9c 83       	std	Y+4, r25	; 0x04
    53d4:	8b 83       	std	Y+3, r24	; 0x03
    53d6:	8b 81       	ldd	r24, Y+3	; 0x03
    53d8:	9c 81       	ldd	r25, Y+4	; 0x04
    53da:	01 97       	sbiw	r24, 0x01	; 1
    53dc:	f1 f7       	brne	.-4      	; 0x53da <HLCD_vidCreatCustomChar+0xda>
    53de:	9c 83       	std	Y+4, r25	; 0x04
    53e0:	8b 83       	std	Y+3, r24	; 0x03
		while(__ticks)
		{
			// wait 1/10 ms
			_delay_loop_2(((F_CPU) / 4e3) / 10);
			__ticks --;
    53e2:	8d 81       	ldd	r24, Y+5	; 0x05
    53e4:	9e 81       	ldd	r25, Y+6	; 0x06
    53e6:	01 97       	sbiw	r24, 0x01	; 1
    53e8:	9e 83       	std	Y+6, r25	; 0x06
    53ea:	8d 83       	std	Y+5, r24	; 0x05
		__ticks = 1;
	else if (__tmp > 65535)
	{
		//	__ticks = requested delay in 1/10 ms
		__ticks = (uint16_t) (__ms * 10.0);
		while(__ticks)
    53ec:	8d 81       	ldd	r24, Y+5	; 0x05
    53ee:	9e 81       	ldd	r25, Y+6	; 0x06
    53f0:	00 97       	sbiw	r24, 0x00	; 0
    53f2:	69 f7       	brne	.-38     	; 0x53ce <HLCD_vidCreatCustomChar+0xce>
    53f4:	14 c0       	rjmp	.+40     	; 0x541e <HLCD_vidCreatCustomChar+0x11e>
			__ticks --;
		}
		return;
	}
	else
		__ticks = (uint16_t)__tmp;
    53f6:	6f 81       	ldd	r22, Y+7	; 0x07
    53f8:	78 85       	ldd	r23, Y+8	; 0x08
    53fa:	89 85       	ldd	r24, Y+9	; 0x09
    53fc:	9a 85       	ldd	r25, Y+10	; 0x0a
    53fe:	0e 94 49 00 	call	0x92	; 0x92 <__fixunssfsi>
    5402:	dc 01       	movw	r26, r24
    5404:	cb 01       	movw	r24, r22
    5406:	9e 83       	std	Y+6, r25	; 0x06
    5408:	8d 83       	std	Y+5, r24	; 0x05
    540a:	8d 81       	ldd	r24, Y+5	; 0x05
    540c:	9e 81       	ldd	r25, Y+6	; 0x06
    540e:	9a 83       	std	Y+2, r25	; 0x02
    5410:	89 83       	std	Y+1, r24	; 0x01
    5412:	89 81       	ldd	r24, Y+1	; 0x01
    5414:	9a 81       	ldd	r25, Y+2	; 0x02
    5416:	01 97       	sbiw	r24, 0x01	; 1
    5418:	f1 f7       	brne	.-4      	; 0x5416 <HLCD_vidCreatCustomChar+0x116>
    541a:	9a 83       	std	Y+2, r25	; 0x02
    541c:	89 83       	std	Y+1, r24	; 0x01
		_delay_ms(1);
		for (Uint8_t i = 0; i < 8 ; i++)
    541e:	1f 86       	std	Y+15, r1	; 0x0f
    5420:	0e c0       	rjmp	.+28     	; 0x543e <HLCD_vidCreatCustomChar+0x13e>
		{
			HLCD_vidWriteChar(pu8custom[i]);
    5422:	8f 85       	ldd	r24, Y+15	; 0x0f
    5424:	28 2f       	mov	r18, r24
    5426:	30 e0       	ldi	r19, 0x00	; 0
    5428:	88 89       	ldd	r24, Y+16	; 0x10
    542a:	99 89       	ldd	r25, Y+17	; 0x11
    542c:	fc 01       	movw	r30, r24
    542e:	e2 0f       	add	r30, r18
    5430:	f3 1f       	adc	r31, r19
    5432:	80 81       	ld	r24, Z
    5434:	0e 94 5e 24 	call	0x48bc	; 0x48bc <HLCD_vidWriteChar>
{
	if (u8Location < 8)  // CGRAM only store 8 characters
	{
		HLCD_vidWritecmd(LCD_SET_CGRAM_ADDR_CMD + (u8Location*8));
		_delay_ms(1);
		for (Uint8_t i = 0; i < 8 ; i++)
    5438:	8f 85       	ldd	r24, Y+15	; 0x0f
    543a:	8f 5f       	subi	r24, 0xFF	; 255
    543c:	8f 87       	std	Y+15, r24	; 0x0f
    543e:	8f 85       	ldd	r24, Y+15	; 0x0f
    5440:	88 30       	cpi	r24, 0x08	; 8
    5442:	78 f3       	brcs	.-34     	; 0x5422 <HLCD_vidCreatCustomChar+0x122>
		{
			HLCD_vidWriteChar(pu8custom[i]);
		}
	}
}
    5444:	62 96       	adiw	r28, 0x12	; 18
    5446:	0f b6       	in	r0, 0x3f	; 63
    5448:	f8 94       	cli
    544a:	de bf       	out	0x3e, r29	; 62
    544c:	0f be       	out	0x3f, r0	; 63
    544e:	cd bf       	out	0x3d, r28	; 61
    5450:	cf 91       	pop	r28
    5452:	df 91       	pop	r29
    5454:	08 95       	ret

00005456 <HExtInt_enInit>:
#endif

ptr_func cbf = NULL;

enu_HExtIntError_t HExtInt_enInit(enu_int_type_t enExtint, enu_sns_ctrl_t snsCtrl)
{
    5456:	df 93       	push	r29
    5458:	cf 93       	push	r28
    545a:	00 d0       	rcall	.+0      	; 0x545c <HExtInt_enInit+0x6>
    545c:	0f 92       	push	r0
    545e:	cd b7       	in	r28, 0x3d	; 61
    5460:	de b7       	in	r29, 0x3e	; 62
    5462:	8a 83       	std	Y+2, r24	; 0x02
    5464:	6b 83       	std	Y+3, r22	; 0x03
	enu_HExtIntError_t errorStatus = HEXTINT_OK;
    5466:	81 e0       	ldi	r24, 0x01	; 1
    5468:	89 83       	std	Y+1, r24	; 0x01

	if (enExtint == INT_0)
    546a:	8a 81       	ldd	r24, Y+2	; 0x02
    546c:	88 23       	and	r24, r24
    546e:	29 f4       	brne	.+10     	; 0x547a <HExtInt_enInit+0x24>
	{
		DIO_s8SETPinVal(DIO_PIND_2, HIGH);
    5470:	8a e1       	ldi	r24, 0x1A	; 26
    5472:	61 e0       	ldi	r22, 0x01	; 1
    5474:	0e 94 46 18 	call	0x308c	; 0x308c <DIO_s8SETPinVal>
    5478:	07 c0       	rjmp	.+14     	; 0x5488 <HExtInt_enInit+0x32>
	}
	else if (enExtint == INT_1)
    547a:	8a 81       	ldd	r24, Y+2	; 0x02
    547c:	81 30       	cpi	r24, 0x01	; 1
    547e:	21 f4       	brne	.+8      	; 0x5488 <HExtInt_enInit+0x32>
	{
		DIO_s8SETPinVal(DIO_PIND_3, HIGH);
    5480:	8b e1       	ldi	r24, 0x1B	; 27
    5482:	61 e0       	ldi	r22, 0x01	; 1
    5484:	0e 94 46 18 	call	0x308c	; 0x308c <DIO_s8SETPinVal>
	else
	{
		// do nothing
	}

	vidExtInt_init(enExtint , snsCtrl );
    5488:	8a 81       	ldd	r24, Y+2	; 0x02
    548a:	6b 81       	ldd	r22, Y+3	; 0x03
    548c:	0e 94 23 15 	call	0x2a46	; 0x2a46 <vidExtInt_init>

	return errorStatus;
    5490:	89 81       	ldd	r24, Y+1	; 0x01

}
    5492:	0f 90       	pop	r0
    5494:	0f 90       	pop	r0
    5496:	0f 90       	pop	r0
    5498:	cf 91       	pop	r28
    549a:	df 91       	pop	r29
    549c:	08 95       	ret

0000549e <HExtInt_enCBF>:

enu_HExtIntError_t HExtInt_enCBF(ptr_func pFunc)
{
    549e:	df 93       	push	r29
    54a0:	cf 93       	push	r28
    54a2:	00 d0       	rcall	.+0      	; 0x54a4 <HExtInt_enCBF+0x6>
    54a4:	0f 92       	push	r0
    54a6:	cd b7       	in	r28, 0x3d	; 61
    54a8:	de b7       	in	r29, 0x3e	; 62
    54aa:	9b 83       	std	Y+3, r25	; 0x03
    54ac:	8a 83       	std	Y+2, r24	; 0x02
	enu_HExtIntError_t errorStatus = HEXTINT_OK;
    54ae:	81 e0       	ldi	r24, 0x01	; 1
    54b0:	89 83       	std	Y+1, r24	; 0x01

	if (pFunc != NULL)
    54b2:	8a 81       	ldd	r24, Y+2	; 0x02
    54b4:	9b 81       	ldd	r25, Y+3	; 0x03
    54b6:	00 97       	sbiw	r24, 0x00	; 0
    54b8:	29 f0       	breq	.+10     	; 0x54c4 <HExtInt_enCBF+0x26>
	{
		MEXTINT_vidCallBackFunc(pFunc);
    54ba:	8a 81       	ldd	r24, Y+2	; 0x02
    54bc:	9b 81       	ldd	r25, Y+3	; 0x03
    54be:	0e 94 55 16 	call	0x2caa	; 0x2caa <MEXTINT_vidCallBackFunc>
    54c2:	01 c0       	rjmp	.+2      	; 0x54c6 <HExtInt_enCBF+0x28>
	}
	else
	{
		errorStatus = HEXTINT_NOK;
    54c4:	19 82       	std	Y+1, r1	; 0x01
	}
	return errorStatus;
    54c6:	89 81       	ldd	r24, Y+1	; 0x01
}
    54c8:	0f 90       	pop	r0
    54ca:	0f 90       	pop	r0
    54cc:	0f 90       	pop	r0
    54ce:	cf 91       	pop	r28
    54d0:	df 91       	pop	r29
    54d2:	08 95       	ret

000054d4 <HExtInt_enCBFInt1>:

enu_HExtIntError_t HExtInt_enCBFInt1(ptr_func pFunc)
{
    54d4:	df 93       	push	r29
    54d6:	cf 93       	push	r28
    54d8:	00 d0       	rcall	.+0      	; 0x54da <HExtInt_enCBFInt1+0x6>
    54da:	0f 92       	push	r0
    54dc:	cd b7       	in	r28, 0x3d	; 61
    54de:	de b7       	in	r29, 0x3e	; 62
    54e0:	9b 83       	std	Y+3, r25	; 0x03
    54e2:	8a 83       	std	Y+2, r24	; 0x02
	enu_HExtIntError_t errorStatus = HEXTINT_OK;
    54e4:	81 e0       	ldi	r24, 0x01	; 1
    54e6:	89 83       	std	Y+1, r24	; 0x01

	if (pFunc != NULL)
    54e8:	8a 81       	ldd	r24, Y+2	; 0x02
    54ea:	9b 81       	ldd	r25, Y+3	; 0x03
    54ec:	00 97       	sbiw	r24, 0x00	; 0
    54ee:	29 f0       	breq	.+10     	; 0x54fa <HExtInt_enCBFInt1+0x26>
	{
		MEXTINT_vidCallBackFuncInt1(pFunc);
    54f0:	8a 81       	ldd	r24, Y+2	; 0x02
    54f2:	9b 81       	ldd	r25, Y+3	; 0x03
    54f4:	0e 94 67 16 	call	0x2cce	; 0x2cce <MEXTINT_vidCallBackFuncInt1>
    54f8:	01 c0       	rjmp	.+2      	; 0x54fc <HExtInt_enCBFInt1+0x28>
	}
	else
	{
		errorStatus = HEXTINT_NOK;
    54fa:	19 82       	std	Y+1, r1	; 0x01
	}
	return errorStatus;
    54fc:	89 81       	ldd	r24, Y+1	; 0x01
}
    54fe:	0f 90       	pop	r0
    5500:	0f 90       	pop	r0
    5502:	0f 90       	pop	r0
    5504:	cf 91       	pop	r28
    5506:	df 91       	pop	r29
    5508:	08 95       	ret

0000550a <HExtInt_enCBFInt2>:


enu_HExtIntError_t HExtInt_enCBFInt2(ptr_func pFunc)
{
    550a:	df 93       	push	r29
    550c:	cf 93       	push	r28
    550e:	00 d0       	rcall	.+0      	; 0x5510 <HExtInt_enCBFInt2+0x6>
    5510:	0f 92       	push	r0
    5512:	cd b7       	in	r28, 0x3d	; 61
    5514:	de b7       	in	r29, 0x3e	; 62
    5516:	9b 83       	std	Y+3, r25	; 0x03
    5518:	8a 83       	std	Y+2, r24	; 0x02
	enu_HExtIntError_t errorStatus = HEXTINT_OK;
    551a:	81 e0       	ldi	r24, 0x01	; 1
    551c:	89 83       	std	Y+1, r24	; 0x01

	if (pFunc != NULL)
    551e:	8a 81       	ldd	r24, Y+2	; 0x02
    5520:	9b 81       	ldd	r25, Y+3	; 0x03
    5522:	00 97       	sbiw	r24, 0x00	; 0
    5524:	29 f0       	breq	.+10     	; 0x5530 <HExtInt_enCBFInt2+0x26>
	{
		MEXTINT_vidCallBackFuncInt2(pFunc);
    5526:	8a 81       	ldd	r24, Y+2	; 0x02
    5528:	9b 81       	ldd	r25, Y+3	; 0x03
    552a:	0e 94 79 16 	call	0x2cf2	; 0x2cf2 <MEXTINT_vidCallBackFuncInt2>
    552e:	01 c0       	rjmp	.+2      	; 0x5532 <HExtInt_enCBFInt2+0x28>
	}
	else
	{
		errorStatus = HEXTINT_NOK;
    5530:	19 82       	std	Y+1, r1	; 0x01
	}
	return errorStatus;
    5532:	89 81       	ldd	r24, Y+1	; 0x01
}
    5534:	0f 90       	pop	r0
    5536:	0f 90       	pop	r0
    5538:	0f 90       	pop	r0
    553a:	cf 91       	pop	r28
    553c:	df 91       	pop	r29
    553e:	08 95       	ret

00005540 <eeprom_init>:
#define EEPROM_ADDRESS		0b01010000



void eeprom_init(void)
{
    5540:	df 93       	push	r29
    5542:	cf 93       	push	r28
    5544:	cd b7       	in	r28, 0x3d	; 61
    5546:	de b7       	in	r29, 0x3e	; 62
	i2c_init_master();
    5548:	0e 94 58 13 	call	0x26b0	; 0x26b0 <i2c_init_master>
}
    554c:	cf 91       	pop	r28
    554e:	df 91       	pop	r29
    5550:	08 95       	ret

00005552 <eeprom_write_byte>:


void eeprom_write_byte(Uint16_t address, Uint8_t data)  // address is 10 bit
{
    5552:	df 93       	push	r29
    5554:	cf 93       	push	r28
    5556:	00 d0       	rcall	.+0      	; 0x5558 <eeprom_write_byte+0x6>
    5558:	00 d0       	rcall	.+0      	; 0x555a <eeprom_write_byte+0x8>
    555a:	0f 92       	push	r0
    555c:	cd b7       	in	r28, 0x3d	; 61
    555e:	de b7       	in	r29, 0x3e	; 62
    5560:	9c 83       	std	Y+4, r25	; 0x04
    5562:	8b 83       	std	Y+3, r24	; 0x03
    5564:	6d 83       	std	Y+5, r22	; 0x05
	Uint8_t deviceAddress;
	Uint8_t dataAddress;

	deviceAddress = EEPROM_ADDRESS | ((address >> 8) & 0x0003);
    5566:	8b 81       	ldd	r24, Y+3	; 0x03
    5568:	9c 81       	ldd	r25, Y+4	; 0x04
    556a:	89 2f       	mov	r24, r25
    556c:	99 27       	eor	r25, r25
    556e:	83 70       	andi	r24, 0x03	; 3
    5570:	80 65       	ori	r24, 0x50	; 80
    5572:	8a 83       	std	Y+2, r24	; 0x02
//	dataAddress = (address & 0b0011111111);

	/* Send start condition */
	i2c_start();
    5574:	0e 94 8e 13 	call	0x271c	; 0x271c <i2c_start>
	/* Send slave address */
	i2c_send_slave_address_with_write_req(deviceAddress);     // i2c_write_byte(0x50 | (address >> 8) & 0x00000111 );
    5578:	8a 81       	ldd	r24, Y+2	; 0x02
    557a:	0e 94 c2 13 	call	0x2784	; 0x2784 <i2c_send_slave_address_with_write_req>
	 	 	 	 	 	 	 	 	 	 	 	 	 	 	  // 520 = 0b 01010 0  0  1   1 01110 11
	 	 	 	 	 	 	 	 	 	 	 	 	 	 	  //                A2 P1 P2  B7      B0
	/* Send data location */
	i2c_write_byte((Uint8_t) address); // or i2c_write_byte(dataAddress);
    557e:	8b 81       	ldd	r24, Y+3	; 0x03
    5580:	0e 94 0a 14 	call	0x2814	; 0x2814 <i2c_write_byte>
	/* Send data */
	i2c_write_byte(data);
    5584:	8d 81       	ldd	r24, Y+5	; 0x05
    5586:	0e 94 0a 14 	call	0x2814	; 0x2814 <i2c_write_byte>
	/* Send Stop Condition */
	i2c_stop();
    558a:	0e 94 48 14 	call	0x2890	; 0x2890 <i2c_stop>
}
    558e:	0f 90       	pop	r0
    5590:	0f 90       	pop	r0
    5592:	0f 90       	pop	r0
    5594:	0f 90       	pop	r0
    5596:	0f 90       	pop	r0
    5598:	cf 91       	pop	r28
    559a:	df 91       	pop	r29
    559c:	08 95       	ret

0000559e <eeprom_read_byte>:


Uint8_t eeprom_read_byte(Uint16_t address)
{
    559e:	df 93       	push	r29
    55a0:	cf 93       	push	r28
    55a2:	00 d0       	rcall	.+0      	; 0x55a4 <eeprom_read_byte+0x6>
    55a4:	00 d0       	rcall	.+0      	; 0x55a6 <eeprom_read_byte+0x8>
    55a6:	0f 92       	push	r0
    55a8:	cd b7       	in	r28, 0x3d	; 61
    55aa:	de b7       	in	r29, 0x3e	; 62
    55ac:	9d 83       	std	Y+5, r25	; 0x05
    55ae:	8c 83       	std	Y+4, r24	; 0x04
	Uint8_t deviceAddress;
	Uint8_t dataAddress;
	Uint8_t data;
	deviceAddress = EEPROM_ADDRESS | ((address >> 8) & 0x0003);
    55b0:	8c 81       	ldd	r24, Y+4	; 0x04
    55b2:	9d 81       	ldd	r25, Y+5	; 0x05
    55b4:	89 2f       	mov	r24, r25
    55b6:	99 27       	eor	r25, r25
    55b8:	83 70       	andi	r24, 0x03	; 3
    55ba:	80 65       	ori	r24, 0x50	; 80
    55bc:	8b 83       	std	Y+3, r24	; 0x03

	/* Send start condition */
	i2c_start();
    55be:	0e 94 8e 13 	call	0x271c	; 0x271c <i2c_start>
	/* Send slave address with write request*/
	i2c_send_slave_address_with_write_req(deviceAddress);
    55c2:	8b 81       	ldd	r24, Y+3	; 0x03
    55c4:	0e 94 c2 13 	call	0x2784	; 0x2784 <i2c_send_slave_address_with_write_req>
	/* Send Data location*/
	i2c_write_byte((Uint8_t) address);
    55c8:	8c 81       	ldd	r24, Y+4	; 0x04
    55ca:	0e 94 0a 14 	call	0x2814	; 0x2814 <i2c_write_byte>
	/* Send Repeated Start Condition*/
	i2c_repeated_start();
    55ce:	0e 94 a8 13 	call	0x2750	; 0x2750 <i2c_repeated_start>
	/* Send slave address with read request*/
	i2c_send_slave_address_with_read_req(deviceAddress);
    55d2:	8b 81       	ldd	r24, Y+3	; 0x03
    55d4:	0e 94 eb 13 	call	0x27d6	; 0x27d6 <i2c_send_slave_address_with_read_req>
	/*Read Received Byte*/
	data = i2c_read_byte();
    55d8:	0e 94 35 14 	call	0x286a	; 0x286a <i2c_read_byte>
    55dc:	89 83       	std	Y+1, r24	; 0x01
	/* Send Stop Condition */
	i2c_stop();
    55de:	0e 94 48 14 	call	0x2890	; 0x2890 <i2c_stop>

	return data;
    55e2:	89 81       	ldd	r24, Y+1	; 0x01
}
    55e4:	0f 90       	pop	r0
    55e6:	0f 90       	pop	r0
    55e8:	0f 90       	pop	r0
    55ea:	0f 90       	pop	r0
    55ec:	0f 90       	pop	r0
    55ee:	cf 91       	pop	r28
    55f0:	df 91       	pop	r29
    55f2:	08 95       	ret

000055f4 <eeprom_write_string>:



void eeprom_write_string(Uint16_t Copy_u8Address, const Uint8_t* str)
{
    55f4:	df 93       	push	r29
    55f6:	cf 93       	push	r28
    55f8:	cd b7       	in	r28, 0x3d	; 61
    55fa:	de b7       	in	r29, 0x3e	; 62
    55fc:	27 97       	sbiw	r28, 0x07	; 7
    55fe:	0f b6       	in	r0, 0x3f	; 63
    5600:	f8 94       	cli
    5602:	de bf       	out	0x3e, r29	; 62
    5604:	0f be       	out	0x3f, r0	; 63
    5606:	cd bf       	out	0x3d, r28	; 61
    5608:	9d 83       	std	Y+5, r25	; 0x05
    560a:	8c 83       	std	Y+4, r24	; 0x04
    560c:	7f 83       	std	Y+7, r23	; 0x07
    560e:	6e 83       	std	Y+6, r22	; 0x06
	Uint8_t sendedAddress;
	Uint8_t dataAddress;
	Uint8_t count = 0;
    5610:	19 82       	std	Y+1, r1	; 0x01
    5612:	03 c0       	rjmp	.+6      	; 0x561a <eeprom_write_string+0x26>

	while(str[count] != '\0')
	{
		count++;
    5614:	89 81       	ldd	r24, Y+1	; 0x01
    5616:	8f 5f       	subi	r24, 0xFF	; 255
    5618:	89 83       	std	Y+1, r24	; 0x01
{
	Uint8_t sendedAddress;
	Uint8_t dataAddress;
	Uint8_t count = 0;

	while(str[count] != '\0')
    561a:	89 81       	ldd	r24, Y+1	; 0x01
    561c:	28 2f       	mov	r18, r24
    561e:	30 e0       	ldi	r19, 0x00	; 0
    5620:	8e 81       	ldd	r24, Y+6	; 0x06
    5622:	9f 81       	ldd	r25, Y+7	; 0x07
    5624:	fc 01       	movw	r30, r24
    5626:	e2 0f       	add	r30, r18
    5628:	f3 1f       	adc	r31, r19
    562a:	80 81       	ld	r24, Z
    562c:	88 23       	and	r24, r24
    562e:	91 f7       	brne	.-28     	; 0x5614 <eeprom_write_string+0x20>
	{
		count++;

	}
	sendedAddress = EEPROM_ADDRESS | ((Copy_u8Address >> 8) & 0x0003);
    5630:	8c 81       	ldd	r24, Y+4	; 0x04
    5632:	9d 81       	ldd	r25, Y+5	; 0x05
    5634:	89 2f       	mov	r24, r25
    5636:	99 27       	eor	r25, r25
    5638:	83 70       	andi	r24, 0x03	; 3
    563a:	80 65       	ori	r24, 0x50	; 80
    563c:	8b 83       	std	Y+3, r24	; 0x03
	dataAddress = (Uint8_t)Copy_u8Address;
    563e:	8c 81       	ldd	r24, Y+4	; 0x04
    5640:	8a 83       	std	Y+2, r24	; 0x02
	i2c_start();
    5642:	0e 94 8e 13 	call	0x271c	; 0x271c <i2c_start>

	i2c_send_slave_address_with_write_req(sendedAddress);
    5646:	8b 81       	ldd	r24, Y+3	; 0x03
    5648:	0e 94 c2 13 	call	0x2784	; 0x2784 <i2c_send_slave_address_with_write_req>
	i2c_write_byte((Uint8_t) dataAddress);
    564c:	8a 81       	ldd	r24, Y+2	; 0x02
    564e:	0e 94 0a 14 	call	0x2814	; 0x2814 <i2c_write_byte>
    5652:	0a c0       	rjmp	.+20     	; 0x5668 <eeprom_write_string+0x74>

    //i2c_write_byte(count);

	while(*str != '\0')
	{
		i2c_write_byte(*str);
    5654:	ee 81       	ldd	r30, Y+6	; 0x06
    5656:	ff 81       	ldd	r31, Y+7	; 0x07
    5658:	80 81       	ld	r24, Z
    565a:	0e 94 0a 14 	call	0x2814	; 0x2814 <i2c_write_byte>
		str++;
    565e:	8e 81       	ldd	r24, Y+6	; 0x06
    5660:	9f 81       	ldd	r25, Y+7	; 0x07
    5662:	01 96       	adiw	r24, 0x01	; 1
    5664:	9f 83       	std	Y+7, r25	; 0x07
    5666:	8e 83       	std	Y+6, r24	; 0x06
	i2c_send_slave_address_with_write_req(sendedAddress);
	i2c_write_byte((Uint8_t) dataAddress);

    //i2c_write_byte(count);

	while(*str != '\0')
    5668:	ee 81       	ldd	r30, Y+6	; 0x06
    566a:	ff 81       	ldd	r31, Y+7	; 0x07
    566c:	80 81       	ld	r24, Z
    566e:	88 23       	and	r24, r24
    5670:	89 f7       	brne	.-30     	; 0x5654 <eeprom_write_string+0x60>
//	    {
//		    i2c_write_byte(*str++);
//	    }
	   // i2c_write_byte('\0');

		i2c_stop();
    5672:	0e 94 48 14 	call	0x2890	; 0x2890 <i2c_stop>
}
    5676:	27 96       	adiw	r28, 0x07	; 7
    5678:	0f b6       	in	r0, 0x3f	; 63
    567a:	f8 94       	cli
    567c:	de bf       	out	0x3e, r29	; 62
    567e:	0f be       	out	0x3f, r0	; 63
    5680:	cd bf       	out	0x3d, r28	; 61
    5682:	cf 91       	pop	r28
    5684:	df 91       	pop	r29
    5686:	08 95       	ret

00005688 <eeprom_read_string>:



void eeprom_read_string(Uint16_t Copy_u8Address, Uint8_t* str)
{
    5688:	0f 93       	push	r16
    568a:	1f 93       	push	r17
    568c:	df 93       	push	r29
    568e:	cf 93       	push	r28
    5690:	cd b7       	in	r28, 0x3d	; 61
    5692:	de b7       	in	r29, 0x3e	; 62
    5694:	27 97       	sbiw	r28, 0x07	; 7
    5696:	0f b6       	in	r0, 0x3f	; 63
    5698:	f8 94       	cli
    569a:	de bf       	out	0x3e, r29	; 62
    569c:	0f be       	out	0x3f, r0	; 63
    569e:	cd bf       	out	0x3d, r28	; 61
    56a0:	9d 83       	std	Y+5, r25	; 0x05
    56a2:	8c 83       	std	Y+4, r24	; 0x04
    56a4:	7f 83       	std	Y+7, r23	; 0x07
    56a6:	6e 83       	std	Y+6, r22	; 0x06
	Uint8_t len ,count = 0;
    56a8:	1a 82       	std	Y+2, r1	; 0x02
	len = eeprom_read_byte(Copy_u8Address);
    56aa:	8c 81       	ldd	r24, Y+4	; 0x04
    56ac:	9d 81       	ldd	r25, Y+5	; 0x05
    56ae:	0e 94 cf 2a 	call	0x559e	; 0x559e <eeprom_read_byte>
    56b2:	8b 83       	std	Y+3, r24	; 0x03

	 for(Uint8_t i=0;i<len;i++)
    56b4:	19 82       	std	Y+1, r1	; 0x01
    56b6:	19 c0       	rjmp	.+50     	; 0x56ea <eeprom_read_string+0x62>
	 {
		 str[count++] = eeprom_read_byte(++Copy_u8Address);;
    56b8:	8a 81       	ldd	r24, Y+2	; 0x02
    56ba:	28 2f       	mov	r18, r24
    56bc:	30 e0       	ldi	r19, 0x00	; 0
    56be:	8e 81       	ldd	r24, Y+6	; 0x06
    56c0:	9f 81       	ldd	r25, Y+7	; 0x07
    56c2:	8c 01       	movw	r16, r24
    56c4:	02 0f       	add	r16, r18
    56c6:	13 1f       	adc	r17, r19
    56c8:	8c 81       	ldd	r24, Y+4	; 0x04
    56ca:	9d 81       	ldd	r25, Y+5	; 0x05
    56cc:	01 96       	adiw	r24, 0x01	; 1
    56ce:	9d 83       	std	Y+5, r25	; 0x05
    56d0:	8c 83       	std	Y+4, r24	; 0x04
    56d2:	8c 81       	ldd	r24, Y+4	; 0x04
    56d4:	9d 81       	ldd	r25, Y+5	; 0x05
    56d6:	0e 94 cf 2a 	call	0x559e	; 0x559e <eeprom_read_byte>
    56da:	f8 01       	movw	r30, r16
    56dc:	80 83       	st	Z, r24
    56de:	8a 81       	ldd	r24, Y+2	; 0x02
    56e0:	8f 5f       	subi	r24, 0xFF	; 255
    56e2:	8a 83       	std	Y+2, r24	; 0x02
void eeprom_read_string(Uint16_t Copy_u8Address, Uint8_t* str)
{
	Uint8_t len ,count = 0;
	len = eeprom_read_byte(Copy_u8Address);

	 for(Uint8_t i=0;i<len;i++)
    56e4:	89 81       	ldd	r24, Y+1	; 0x01
    56e6:	8f 5f       	subi	r24, 0xFF	; 255
    56e8:	89 83       	std	Y+1, r24	; 0x01
    56ea:	99 81       	ldd	r25, Y+1	; 0x01
    56ec:	8b 81       	ldd	r24, Y+3	; 0x03
    56ee:	98 17       	cp	r25, r24
    56f0:	18 f3       	brcs	.-58     	; 0x56b8 <eeprom_read_string+0x30>
	 {
		 str[count++] = eeprom_read_byte(++Copy_u8Address);;
	 }

	 str[count] = '\0';
    56f2:	8a 81       	ldd	r24, Y+2	; 0x02
    56f4:	28 2f       	mov	r18, r24
    56f6:	30 e0       	ldi	r19, 0x00	; 0
    56f8:	8e 81       	ldd	r24, Y+6	; 0x06
    56fa:	9f 81       	ldd	r25, Y+7	; 0x07
    56fc:	fc 01       	movw	r30, r24
    56fe:	e2 0f       	add	r30, r18
    5700:	f3 1f       	adc	r31, r19
    5702:	10 82       	st	Z, r1
}
    5704:	27 96       	adiw	r28, 0x07	; 7
    5706:	0f b6       	in	r0, 0x3f	; 63
    5708:	f8 94       	cli
    570a:	de bf       	out	0x3e, r29	; 62
    570c:	0f be       	out	0x3f, r0	; 63
    570e:	cd bf       	out	0x3d, r28	; 61
    5710:	cf 91       	pop	r28
    5712:	df 91       	pop	r29
    5714:	1f 91       	pop	r17
    5716:	0f 91       	pop	r16
    5718:	08 95       	ret

0000571a <HButton_Init>:
* FUNCTION			: HButton_Init
* DESCRIPTION		: Initialize specified pin as input and pull up
* RETURN			: enu_buttonError_t {BUTTON_NOK, BUTTON_OK}
*/
enu_buttonError_t HButton_Init(enu_pin en_pinx)
{
    571a:	df 93       	push	r29
    571c:	cf 93       	push	r28
    571e:	00 d0       	rcall	.+0      	; 0x5720 <HButton_Init+0x6>
    5720:	cd b7       	in	r28, 0x3d	; 61
    5722:	de b7       	in	r29, 0x3e	; 62
    5724:	8a 83       	std	Y+2, r24	; 0x02
	enu_buttonError_t errorStatus = BUTTON_OK;
    5726:	81 e0       	ldi	r24, 0x01	; 1
    5728:	89 83       	std	Y+1, r24	; 0x01

	if ( en_pinx < PIN_INVALID )
    572a:	8a 81       	ldd	r24, Y+2	; 0x02
    572c:	80 32       	cpi	r24, 0x20	; 32
    572e:	48 f4       	brcc	.+18     	; 0x5742 <HButton_Init+0x28>
	{
		DIO_s8SETPinDir(en_pinx, INPUT);
    5730:	8a 81       	ldd	r24, Y+2	; 0x02
    5732:	60 e0       	ldi	r22, 0x00	; 0
    5734:	0e 94 d0 17 	call	0x2fa0	; 0x2fa0 <DIO_s8SETPinDir>
		DIO_s8SETPinVal(en_pinx, HIGH);
    5738:	8a 81       	ldd	r24, Y+2	; 0x02
    573a:	61 e0       	ldi	r22, 0x01	; 1
    573c:	0e 94 46 18 	call	0x308c	; 0x308c <DIO_s8SETPinVal>
    5740:	02 c0       	rjmp	.+4      	; 0x5746 <HButton_Init+0x2c>
	}
	else
	{
		errorStatus = BUTTON_OK;
    5742:	81 e0       	ldi	r24, 0x01	; 1
    5744:	89 83       	std	Y+1, r24	; 0x01
	}

	return errorStatus;
    5746:	89 81       	ldd	r24, Y+1	; 0x01
}
    5748:	0f 90       	pop	r0
    574a:	0f 90       	pop	r0
    574c:	cf 91       	pop	r28
    574e:	df 91       	pop	r29
    5750:	08 95       	ret

00005752 <HButton_ExtIntInit>:
* FUNCTION			: HButton_ExtIntInit
* DESCRIPTION		: Initialize specified as pull up for external interrupt
* RETURN			: enu_buttonError_t {BUTTON_NOK, BUTTON_OK}
*/
enu_buttonError_t HButton_ExtIntInit(enu_pin en_pinx)
{
    5752:	df 93       	push	r29
    5754:	cf 93       	push	r28
    5756:	00 d0       	rcall	.+0      	; 0x5758 <HButton_ExtIntInit+0x6>
    5758:	cd b7       	in	r28, 0x3d	; 61
    575a:	de b7       	in	r29, 0x3e	; 62
    575c:	8a 83       	std	Y+2, r24	; 0x02
	enu_buttonError_t errorStatus = BUTTON_OK;
    575e:	81 e0       	ldi	r24, 0x01	; 1
    5760:	89 83       	std	Y+1, r24	; 0x01

	if ( en_pinx < PIN_INVALID )
    5762:	8a 81       	ldd	r24, Y+2	; 0x02
    5764:	80 32       	cpi	r24, 0x20	; 32
    5766:	28 f4       	brcc	.+10     	; 0x5772 <HButton_ExtIntInit+0x20>
	{
		DIO_s8SETPinVal(en_pinx, HIGH);
    5768:	8a 81       	ldd	r24, Y+2	; 0x02
    576a:	61 e0       	ldi	r22, 0x01	; 1
    576c:	0e 94 46 18 	call	0x308c	; 0x308c <DIO_s8SETPinVal>
    5770:	02 c0       	rjmp	.+4      	; 0x5776 <HButton_ExtIntInit+0x24>
	}
	else
	{
		errorStatus = BUTTON_OK;
    5772:	81 e0       	ldi	r24, 0x01	; 1
    5774:	89 83       	std	Y+1, r24	; 0x01
	}

	return errorStatus;
    5776:	89 81       	ldd	r24, Y+1	; 0x01
}
    5778:	0f 90       	pop	r0
    577a:	0f 90       	pop	r0
    577c:	cf 91       	pop	r28
    577e:	df 91       	pop	r29
    5780:	08 95       	ret

00005782 <HButton_getPinVal>:
* FUNCTION			: HButton_getPinVal
* DESCRIPTION		: Get pin status if it is high or low
* RETURN			: enu_buttonError_t {BUTTON_NOK, BUTTON_OK}
*/
enu_buttonError_t HButton_getPinVal(enu_pin en_pinx,  Uint8_t* pu8_refVal )
{
    5782:	df 93       	push	r29
    5784:	cf 93       	push	r28
    5786:	00 d0       	rcall	.+0      	; 0x5788 <HButton_getPinVal+0x6>
    5788:	00 d0       	rcall	.+0      	; 0x578a <HButton_getPinVal+0x8>
    578a:	cd b7       	in	r28, 0x3d	; 61
    578c:	de b7       	in	r29, 0x3e	; 62
    578e:	8a 83       	std	Y+2, r24	; 0x02
    5790:	7c 83       	std	Y+4, r23	; 0x04
    5792:	6b 83       	std	Y+3, r22	; 0x03
	enu_buttonError_t errorStatus = BUTTON_OK;
    5794:	81 e0       	ldi	r24, 0x01	; 1
    5796:	89 83       	std	Y+1, r24	; 0x01

	if ( en_pinx < PIN_INVALID && pu8_refVal != NULL )
    5798:	8a 81       	ldd	r24, Y+2	; 0x02
    579a:	80 32       	cpi	r24, 0x20	; 32
    579c:	58 f4       	brcc	.+22     	; 0x57b4 <HButton_getPinVal+0x32>
    579e:	8b 81       	ldd	r24, Y+3	; 0x03
    57a0:	9c 81       	ldd	r25, Y+4	; 0x04
    57a2:	00 97       	sbiw	r24, 0x00	; 0
    57a4:	39 f0       	breq	.+14     	; 0x57b4 <HButton_getPinVal+0x32>
	{
		(void)DIO_s8GETPinVal(en_pinx, pu8_refVal);
    57a6:	2b 81       	ldd	r18, Y+3	; 0x03
    57a8:	3c 81       	ldd	r19, Y+4	; 0x04
    57aa:	8a 81       	ldd	r24, Y+2	; 0x02
    57ac:	b9 01       	movw	r22, r18
    57ae:	0e 94 fe 18 	call	0x31fc	; 0x31fc <DIO_s8GETPinVal>
    57b2:	02 c0       	rjmp	.+4      	; 0x57b8 <HButton_getPinVal+0x36>
	}
	else
	{
		errorStatus = BUTTON_OK;
    57b4:	81 e0       	ldi	r24, 0x01	; 1
    57b6:	89 83       	std	Y+1, r24	; 0x01
	}

	return errorStatus;
    57b8:	89 81       	ldd	r24, Y+1	; 0x01

}
    57ba:	0f 90       	pop	r0
    57bc:	0f 90       	pop	r0
    57be:	0f 90       	pop	r0
    57c0:	0f 90       	pop	r0
    57c2:	cf 91       	pop	r28
    57c4:	df 91       	pop	r29
    57c6:	08 95       	ret

000057c8 <resetFunc>:
extern volatile Uint32_t g_u32_ovf_count;



void resetFunc(void)
{
    57c8:	df 93       	push	r29
    57ca:	cf 93       	push	r28
    57cc:	cd b7       	in	r28, 0x3d	; 61
    57ce:	de b7       	in	r29, 0x3e	; 62
    gl_reset_is_set = 1;
    57d0:	81 e0       	ldi	r24, 0x01	; 1
    57d2:	80 93 f2 03 	sts	0x03F2, r24
    //myMode = NO_MODE;
}
    57d6:	cf 91       	pop	r28
    57d8:	df 91       	pop	r29
    57da:	08 95       	ret

000057dc <vid_appInit>:




void vid_appInit(void)
{
    57dc:	df 93       	push	r29
    57de:	cf 93       	push	r28
    57e0:	cd b7       	in	r28, 0x3d	; 61
    57e2:	de b7       	in	r29, 0x3e	; 62
	(void) HTimer_enInit();
    57e4:	0e 94 66 1c 	call	0x38cc	; 0x38cc <HTimer_enInit>
	(void) HGPT0_enInit();
    57e8:	0e 94 bf 1c 	call	0x397e	; 0x397e <HGPT0_enInit>
	(void) HSPI_enSlaveInit();
    57ec:	0e 94 45 1d 	call	0x3a8a	; 0x3a8a <HSPI_enSlaveInit>
		   HLCD_vidInit();
    57f0:	0e 94 30 1e 	call	0x3c60	; 0x3c60 <HLCD_vidInit>
		   KEYPAD_vidInit_V2();
    57f4:	0e 94 98 19 	call	0x3330	; 0x3330 <KEYPAD_vidInit_V2>
	(void) HExtInt_enInit(INT_0, FALL_EDGE);
    57f8:	80 e0       	ldi	r24, 0x00	; 0
    57fa:	62 e0       	ldi	r22, 0x02	; 2
    57fc:	0e 94 2b 2a 	call	0x5456	; 0x5456 <HExtInt_enInit>
	(void) HExtInt_enCBF(resetFunc);
    5800:	84 ee       	ldi	r24, 0xE4	; 228
    5802:	9b e2       	ldi	r25, 0x2B	; 43
    5804:	0e 94 4f 2a 	call	0x549e	; 0x549e <HExtInt_enCBF>
	(void) HExtInt_enInit(INT_2, RISE_EDGE);
    5808:	82 e0       	ldi	r24, 0x02	; 2
    580a:	63 e0       	ldi	r22, 0x03	; 3
    580c:	0e 94 2b 2a 	call	0x5456	; 0x5456 <HExtInt_enInit>
	(void) HExtInt_enCBFInt2(APP_enterZeroButton);
    5810:	80 e3       	ldi	r24, 0x30	; 48
    5812:	9f e2       	ldi	r25, 0x2F	; 47
    5814:	0e 94 85 2a 	call	0x550a	; 0x550a <HExtInt_enCBFInt2>




	//HLed_Init(DIO_PINB_0); // For Trigger
}
    5818:	cf 91       	pop	r28
    581a:	df 91       	pop	r29
    581c:	08 95       	ret

0000581e <vid_appStart>:

void vid_appStart(void)
{
    581e:	df 93       	push	r29
    5820:	cf 93       	push	r28
    5822:	cd b7       	in	r28, 0x3d	; 61
    5824:	de b7       	in	r29, 0x3e	; 62
    5826:	cf 54       	subi	r28, 0x4F	; 79
    5828:	d0 40       	sbci	r29, 0x00	; 0
    582a:	0f b6       	in	r0, 0x3f	; 63
    582c:	f8 94       	cli
    582e:	de bf       	out	0x3e, r29	; 62
    5830:	0f be       	out	0x3f, r0	; 63
    5832:	cd bf       	out	0x3d, r28	; 61
	Uint8_t shift = LCD_SHIFT_FIRST_INDEX_PIN , l_u8_received_PAN[RECEIVED_STR_MAX_SIZE] , l_u8_received_PIN[RECEIVED_PIN_MAX_SIZE];
    5834:	8a e0       	ldi	r24, 0x0A	; 10
    5836:	89 87       	std	Y+9, r24	; 0x09
	Uint8_t l_u8_converted_pin[RECEIVED_PIN_MAX_SIZE];
	Uint32_t number_to_display = 0 ;
    5838:	1d 82       	std	Y+5, r1	; 0x05
    583a:	1e 82       	std	Y+6, r1	; 0x06
    583c:	1f 82       	std	Y+7, r1	; 0x07
    583e:	18 86       	std	Y+8, r1	; 0x08
	Uint8_t l_u8_repeat_write_pin = 0 , l_u8_is_pin_correct = 0, l_u8_shift_transation = LCD_SHIFT_FIRST_INDEX_TRANSACTION;
    5840:	1c 82       	std	Y+4, r1	; 0x04
    5842:	1b 82       	std	Y+3, r1	; 0x03
    5844:	8f e0       	ldi	r24, 0x0F	; 15
    5846:	8a 83       	std	Y+2, r24	; 0x02

	GLI();
    5848:	af e5       	ldi	r26, 0x5F	; 95
    584a:	b0 e0       	ldi	r27, 0x00	; 0
    584c:	ef e5       	ldi	r30, 0x5F	; 95
    584e:	f0 e0       	ldi	r31, 0x00	; 0
    5850:	80 81       	ld	r24, Z
    5852:	80 68       	ori	r24, 0x80	; 128
    5854:	8c 93       	st	X, r24
	HGPT0_vidDelayMs(100);
    5856:	64 e6       	ldi	r22, 0x64	; 100
    5858:	70 e0       	ldi	r23, 0x00	; 0
    585a:	80 e0       	ldi	r24, 0x00	; 0
    585c:	90 e0       	ldi	r25, 0x00	; 0
    585e:	0e 94 d6 1c 	call	0x39ac	; 0x39ac <HGPT0_vidDelayMs>

	HLCD_gotoXY(0, 0);
    5862:	80 e0       	ldi	r24, 0x00	; 0
    5864:	60 e0       	ldi	r22, 0x00	; 0
    5866:	0e 94 bc 28 	call	0x5178	; 0x5178 <HLCD_gotoXY>
	HLCD_WriteString((Uint8_t*) "Welcome to ATM");
    586a:	8c e6       	ldi	r24, 0x6C	; 108
    586c:	90 e0       	ldi	r25, 0x00	; 0
    586e:	0e 94 df 28 	call	0x51be	; 0x51be <HLCD_WriteString>
	HTimer_vidDelayMs( 500);
    5872:	64 ef       	ldi	r22, 0xF4	; 244
    5874:	71 e0       	ldi	r23, 0x01	; 1
    5876:	80 e0       	ldi	r24, 0x00	; 0
    5878:	90 e0       	ldi	r25, 0x00	; 0
    587a:	0e 94 7a 1c 	call	0x38f4	; 0x38f4 <HTimer_vidDelayMs>
	HLCD_ClrDisplay();
    587e:	0e 94 37 27 	call	0x4e6e	; 0x4e6e <HLCD_ClrDisplay>
	HLCD_gotoXY(0, 0);
    5882:	80 e0       	ldi	r24, 0x00	; 0
    5884:	60 e0       	ldi	r22, 0x00	; 0
    5886:	0e 94 bc 28 	call	0x5178	; 0x5178 <HLCD_gotoXY>
	HLCD_WriteString((Uint8_t*) "Insert a card");
    588a:	8b e7       	ldi	r24, 0x7B	; 123
    588c:	90 e0       	ldi	r25, 0x00	; 0
    588e:	0e 94 df 28 	call	0x51be	; 0x51be <HLCD_WriteString>


	while(1)
	{
		if (gl_reset_is_set == 1)
    5892:	80 91 f2 03 	lds	r24, 0x03F2
    5896:	81 30       	cpi	r24, 0x01	; 1
    5898:	09 f0       	breq	.+2      	; 0x589c <vid_appStart+0x7e>
    589a:	cc c2       	rjmp	.+1432   	; 0x5e34 <vid_appStart+0x616>
		{
			gl_reset_is_set = 0;
    589c:	10 92 f2 03 	sts	0x03F2, r1
			HTimer_vidDelayMs( 500);
    58a0:	64 ef       	ldi	r22, 0xF4	; 244
    58a2:	71 e0       	ldi	r23, 0x01	; 1
    58a4:	80 e0       	ldi	r24, 0x00	; 0
    58a6:	90 e0       	ldi	r25, 0x00	; 0
    58a8:	0e 94 7a 1c 	call	0x38f4	; 0x38f4 <HTimer_vidDelayMs>
			HLCD_ClrDisplay();
    58ac:	0e 94 37 27 	call	0x4e6e	; 0x4e6e <HLCD_ClrDisplay>
			if (g_u8_stringComplete == 1)
    58b0:	80 91 e6 03 	lds	r24, 0x03E6
    58b4:	81 30       	cpi	r24, 0x01	; 1
    58b6:	09 f0       	breq	.+2      	; 0x58ba <vid_appStart+0x9c>
    58b8:	bd c2       	rjmp	.+1402   	; 0x5e34 <vid_appStart+0x616>
			{
				g_u8_stringComplete = 0;
    58ba:	10 92 e6 03 	sts	0x03E6, r1
				strcpy(l_u8_received_PAN, st_dataBuffer[0].receivedBuffer);
    58be:	ce 01       	movw	r24, r28
    58c0:	0a 96       	adiw	r24, 0x0a	; 10
    58c2:	29 e3       	ldi	r18, 0x39	; 57
    58c4:	34 e0       	ldi	r19, 0x04	; 4
    58c6:	b9 01       	movw	r22, r18
    58c8:	0e 94 3b 30 	call	0x6076	; 0x6076 <strcpy>
				strcpy(l_u8_received_PIN, st_dataBuffer[1].receivedBuffer);
    58cc:	ce 01       	movw	r24, r28
    58ce:	cc 96       	adiw	r24, 0x3c	; 60
    58d0:	2b e6       	ldi	r18, 0x6B	; 107
    58d2:	34 e0       	ldi	r19, 0x04	; 4
    58d4:	b9 01       	movw	r22, r18
    58d6:	0e 94 3b 30 	call	0x6076	; 0x6076 <strcpy>

				for (Uint8_t databaseIndex = 0; databaseIndex < DATABASE_BUFFER_SIZE; databaseIndex++)
    58da:	19 82       	std	Y+1, r1	; 0x01
    58dc:	21 c0       	rjmp	.+66     	; 0x5920 <vid_appStart+0x102>
				{
					if ( (strcmp(st_database[databaseIndex].accountNumber , l_u8_received_PAN)) == 0 )
    58de:	89 81       	ldd	r24, Y+1	; 0x01
    58e0:	28 2f       	mov	r18, r24
    58e2:	30 e0       	ldi	r19, 0x00	; 0
    58e4:	8b e4       	ldi	r24, 0x4B	; 75
    58e6:	90 e0       	ldi	r25, 0x00	; 0
    58e8:	ac 01       	movw	r20, r24
    58ea:	24 9f       	mul	r18, r20
    58ec:	c0 01       	movw	r24, r0
    58ee:	25 9f       	mul	r18, r21
    58f0:	90 0d       	add	r25, r0
    58f2:	34 9f       	mul	r19, r20
    58f4:	90 0d       	add	r25, r0
    58f6:	11 24       	eor	r1, r1
    58f8:	88 5a       	subi	r24, 0xA8	; 168
    58fa:	9d 4f       	sbci	r25, 0xFD	; 253
    58fc:	9e 01       	movw	r18, r28
    58fe:	26 5f       	subi	r18, 0xF6	; 246
    5900:	3f 4f       	sbci	r19, 0xFF	; 255
    5902:	b9 01       	movw	r22, r18
    5904:	0e 94 32 30 	call	0x6064	; 0x6064 <strcmp>
    5908:	00 97       	sbiw	r24, 0x00	; 0
    590a:	39 f4       	brne	.+14     	; 0x591a <vid_appStart+0xfc>
					{
						g_u8_database_index = databaseIndex;
    590c:	89 81       	ldd	r24, Y+1	; 0x01
    590e:	80 93 f7 03 	sts	0x03F7, r24
						g_u8_is_PAN_exist = PAN_FOUND;
    5912:	81 e0       	ldi	r24, 0x01	; 1
    5914:	80 93 f5 03 	sts	0x03F5, r24
    5918:	06 c0       	rjmp	.+12     	; 0x5926 <vid_appStart+0x108>
			{
				g_u8_stringComplete = 0;
				strcpy(l_u8_received_PAN, st_dataBuffer[0].receivedBuffer);
				strcpy(l_u8_received_PIN, st_dataBuffer[1].receivedBuffer);

				for (Uint8_t databaseIndex = 0; databaseIndex < DATABASE_BUFFER_SIZE; databaseIndex++)
    591a:	89 81       	ldd	r24, Y+1	; 0x01
    591c:	8f 5f       	subi	r24, 0xFF	; 255
    591e:	89 83       	std	Y+1, r24	; 0x01
    5920:	89 81       	ldd	r24, Y+1	; 0x01
    5922:	85 30       	cpi	r24, 0x05	; 5
    5924:	e0 f2       	brcs	.-72     	; 0x58de <vid_appStart+0xc0>
						break;
					}
					else {}
				}

				if (g_u8_is_PAN_exist == PAN_FOUND)
    5926:	80 91 f5 03 	lds	r24, 0x03F5
    592a:	81 30       	cpi	r24, 0x01	; 1
    592c:	09 f0       	breq	.+2      	; 0x5930 <vid_appStart+0x112>
    592e:	74 c2       	rjmp	.+1256   	; 0x5e18 <vid_appStart+0x5fa>
				{
					HLCD_gotoXY(0, 0);
    5930:	80 e0       	ldi	r24, 0x00	; 0
    5932:	60 e0       	ldi	r22, 0x00	; 0
    5934:	0e 94 bc 28 	call	0x5178	; 0x5178 <HLCD_gotoXY>
					HLCD_WriteString( (Uint8_t*) "APPROVED" );
    5938:	89 e8       	ldi	r24, 0x89	; 137
    593a:	90 e0       	ldi	r25, 0x00	; 0
    593c:	0e 94 df 28 	call	0x51be	; 0x51be <HLCD_WriteString>
    5940:	ba c0       	rjmp	.+372    	; 0x5ab6 <vid_appStart+0x298>
					while (l_u8_repeat_write_pin < PIN_MAX_REPEAT_COUNT)
					{
						HLCD_gotoXY(1, 7);
    5942:	81 e0       	ldi	r24, 0x01	; 1
    5944:	67 e0       	ldi	r22, 0x07	; 7
    5946:	0e 94 bc 28 	call	0x5178	; 0x5178 <HLCD_gotoXY>
						HLCD_WriteString( (Uint8_t*) "0000" );
    594a:	82 e9       	ldi	r24, 0x92	; 146
    594c:	90 e0       	ldi	r25, 0x00	; 0
    594e:	0e 94 df 28 	call	0x51be	; 0x51be <HLCD_WriteString>
    5952:	55 c0       	rjmp	.+170    	; 0x59fe <vid_appStart+0x1e0>
						while ( g_u8_key != '#')
						{
							if(g_u8_z_e_val == '\0')
    5954:	80 91 f4 03 	lds	r24, 0x03F4
    5958:	88 23       	and	r24, r24
    595a:	29 f4       	brne	.+10     	; 0x5966 <vid_appStart+0x148>
							{
								g_u8_key = KEYPAD_u8GetPressed_V2();
    595c:	0e 94 ea 19 	call	0x33d4	; 0x33d4 <KEYPAD_u8GetPressed_V2>
    5960:	80 93 f3 03 	sts	0x03F3, r24
    5964:	0e c0       	rjmp	.+28     	; 0x5982 <vid_appStart+0x164>
							}
							else if ( (g_u8_z_e_val == '0') || (g_u8_z_e_val == '#'))
    5966:	80 91 f4 03 	lds	r24, 0x03F4
    596a:	80 33       	cpi	r24, 0x30	; 48
    596c:	21 f0       	breq	.+8      	; 0x5976 <vid_appStart+0x158>
    596e:	80 91 f4 03 	lds	r24, 0x03F4
    5972:	83 32       	cpi	r24, 0x23	; 35
    5974:	31 f4       	brne	.+12     	; 0x5982 <vid_appStart+0x164>
							{
								g_u8_key = g_u8_z_e_val;
    5976:	80 91 f4 03 	lds	r24, 0x03F4
    597a:	80 93 f3 03 	sts	0x03F3, r24
								g_u8_z_e_val = '\0';
    597e:	10 92 f4 03 	sts	0x03F4, r1
							}

							if (g_u8_key != '\0')
    5982:	80 91 f3 03 	lds	r24, 0x03F3
    5986:	88 23       	and	r24, r24
    5988:	d1 f1       	breq	.+116    	; 0x59fe <vid_appStart+0x1e0>
							{
								if ( g_u8_key >= '0' && g_u8_key <= '9')
    598a:	80 91 f3 03 	lds	r24, 0x03F3
    598e:	80 33       	cpi	r24, 0x30	; 48
    5990:	b0 f1       	brcs	.+108    	; 0x59fe <vid_appStart+0x1e0>
    5992:	80 91 f3 03 	lds	r24, 0x03F3
    5996:	8a 33       	cpi	r24, 0x3A	; 58
    5998:	90 f5       	brcc	.+100    	; 0x59fe <vid_appStart+0x1e0>
								{
									number_to_display = number_to_display * 10 + (Uint32_t)(g_u8_key - '0');
    599a:	8d 81       	ldd	r24, Y+5	; 0x05
    599c:	9e 81       	ldd	r25, Y+6	; 0x06
    599e:	af 81       	ldd	r26, Y+7	; 0x07
    59a0:	b8 85       	ldd	r27, Y+8	; 0x08
    59a2:	2a e0       	ldi	r18, 0x0A	; 10
    59a4:	30 e0       	ldi	r19, 0x00	; 0
    59a6:	40 e0       	ldi	r20, 0x00	; 0
    59a8:	50 e0       	ldi	r21, 0x00	; 0
    59aa:	bc 01       	movw	r22, r24
    59ac:	cd 01       	movw	r24, r26
    59ae:	0e 94 93 2f 	call	0x5f26	; 0x5f26 <__mulsi3>
    59b2:	9b 01       	movw	r18, r22
    59b4:	ac 01       	movw	r20, r24
    59b6:	80 91 f3 03 	lds	r24, 0x03F3
    59ba:	88 2f       	mov	r24, r24
    59bc:	90 e0       	ldi	r25, 0x00	; 0
    59be:	c0 97       	sbiw	r24, 0x30	; 48
    59c0:	aa 27       	eor	r26, r26
    59c2:	97 fd       	sbrc	r25, 7
    59c4:	a0 95       	com	r26
    59c6:	ba 2f       	mov	r27, r26
    59c8:	82 0f       	add	r24, r18
    59ca:	93 1f       	adc	r25, r19
    59cc:	a4 1f       	adc	r26, r20
    59ce:	b5 1f       	adc	r27, r21
    59d0:	8d 83       	std	Y+5, r24	; 0x05
    59d2:	9e 83       	std	Y+6, r25	; 0x06
    59d4:	af 83       	std	Y+7, r26	; 0x07
    59d6:	b8 87       	std	Y+8, r27	; 0x08
									HLCD_gotoXY(1, shift);
    59d8:	81 e0       	ldi	r24, 0x01	; 1
    59da:	69 85       	ldd	r22, Y+9	; 0x09
    59dc:	0e 94 bc 28 	call	0x5178	; 0x5178 <HLCD_gotoXY>
									HLCD_vidWriteChar('*');
    59e0:	8a e2       	ldi	r24, 0x2A	; 42
    59e2:	0e 94 5e 24 	call	0x48bc	; 0x48bc <HLCD_vidWriteChar>
//									HLCD_WriteInt(number_to_display);
									shift--;
    59e6:	89 85       	ldd	r24, Y+9	; 0x09
    59e8:	81 50       	subi	r24, 0x01	; 1
    59ea:	89 87       	std	Y+9, r24	; 0x09
									if(shift == LCD_SHIFT_FIRST_INDEX_PIN - 5)
    59ec:	89 85       	ldd	r24, Y+9	; 0x09
    59ee:	85 30       	cpi	r24, 0x05	; 5
    59f0:	31 f4       	brne	.+12     	; 0x59fe <vid_appStart+0x1e0>
									{
										//HLCD_backspace_Left();
										number_to_display = 0;
    59f2:	1d 82       	std	Y+5, r1	; 0x05
    59f4:	1e 82       	std	Y+6, r1	; 0x06
    59f6:	1f 82       	std	Y+7, r1	; 0x07
    59f8:	18 86       	std	Y+8, r1	; 0x08
										shift = LCD_SHIFT_FIRST_INDEX_PIN;
    59fa:	8a e0       	ldi	r24, 0x0A	; 10
    59fc:	89 87       	std	Y+9, r24	; 0x09
					HLCD_WriteString( (Uint8_t*) "APPROVED" );
					while (l_u8_repeat_write_pin < PIN_MAX_REPEAT_COUNT)
					{
						HLCD_gotoXY(1, 7);
						HLCD_WriteString( (Uint8_t*) "0000" );
						while ( g_u8_key != '#')
    59fe:	80 91 f3 03 	lds	r24, 0x03F3
    5a02:	83 32       	cpi	r24, 0x23	; 35
    5a04:	09 f0       	breq	.+2      	; 0x5a08 <vid_appStart+0x1ea>
    5a06:	a6 cf       	rjmp	.-180    	; 0x5954 <vid_appStart+0x136>
										shift = LCD_SHIFT_FIRST_INDEX_PIN;
									}
								}
							}
						}
						sprintf(l_u8_converted_pin , "%ld", number_to_display);
    5a08:	8d b7       	in	r24, 0x3d	; 61
    5a0a:	9e b7       	in	r25, 0x3e	; 62
    5a0c:	08 97       	sbiw	r24, 0x08	; 8
    5a0e:	0f b6       	in	r0, 0x3f	; 63
    5a10:	f8 94       	cli
    5a12:	9e bf       	out	0x3e, r25	; 62
    5a14:	0f be       	out	0x3f, r0	; 63
    5a16:	8d bf       	out	0x3d, r24	; 61
    5a18:	ed b7       	in	r30, 0x3d	; 61
    5a1a:	fe b7       	in	r31, 0x3e	; 62
    5a1c:	31 96       	adiw	r30, 0x01	; 1
    5a1e:	ce 01       	movw	r24, r28
    5a20:	8a 5b       	subi	r24, 0xBA	; 186
    5a22:	9f 4f       	sbci	r25, 0xFF	; 255
    5a24:	91 83       	std	Z+1, r25	; 0x01
    5a26:	80 83       	st	Z, r24
    5a28:	87 e9       	ldi	r24, 0x97	; 151
    5a2a:	90 e0       	ldi	r25, 0x00	; 0
    5a2c:	93 83       	std	Z+3, r25	; 0x03
    5a2e:	82 83       	std	Z+2, r24	; 0x02
    5a30:	8d 81       	ldd	r24, Y+5	; 0x05
    5a32:	9e 81       	ldd	r25, Y+6	; 0x06
    5a34:	af 81       	ldd	r26, Y+7	; 0x07
    5a36:	b8 85       	ldd	r27, Y+8	; 0x08
    5a38:	84 83       	std	Z+4, r24	; 0x04
    5a3a:	95 83       	std	Z+5, r25	; 0x05
    5a3c:	a6 83       	std	Z+6, r26	; 0x06
    5a3e:	b7 83       	std	Z+7, r27	; 0x07
    5a40:	0e 94 42 30 	call	0x6084	; 0x6084 <sprintf>
    5a44:	ed b7       	in	r30, 0x3d	; 61
    5a46:	fe b7       	in	r31, 0x3e	; 62
    5a48:	38 96       	adiw	r30, 0x08	; 8
    5a4a:	0f b6       	in	r0, 0x3f	; 63
    5a4c:	f8 94       	cli
    5a4e:	fe bf       	out	0x3e, r31	; 62
    5a50:	0f be       	out	0x3f, r0	; 63
    5a52:	ed bf       	out	0x3d, r30	; 61
						if( (strcmp(l_u8_converted_pin , l_u8_received_PIN)) == 0 )
    5a54:	ce 01       	movw	r24, r28
    5a56:	8a 5b       	subi	r24, 0xBA	; 186
    5a58:	9f 4f       	sbci	r25, 0xFF	; 255
    5a5a:	9e 01       	movw	r18, r28
    5a5c:	24 5c       	subi	r18, 0xC4	; 196
    5a5e:	3f 4f       	sbci	r19, 0xFF	; 255
    5a60:	b9 01       	movw	r22, r18
    5a62:	0e 94 32 30 	call	0x6064	; 0x6064 <strcmp>
    5a66:	00 97       	sbiw	r24, 0x00	; 0
    5a68:	29 f4       	brne	.+10     	; 0x5a74 <vid_appStart+0x256>
						{
							l_u8_is_pin_correct = 1;
    5a6a:	81 e0       	ldi	r24, 0x01	; 1
    5a6c:	8b 83       	std	Y+3, r24	; 0x03
							l_u8_repeat_write_pin = PIN_MAX_REPEAT_COUNT + 1;
    5a6e:	84 e0       	ldi	r24, 0x04	; 4
    5a70:	8c 83       	std	Y+4, r24	; 0x04
    5a72:	21 c0       	rjmp	.+66     	; 0x5ab6 <vid_appStart+0x298>
						}
						else if ((strcmp(l_u8_converted_pin , l_u8_received_PIN)) != 0)
    5a74:	ce 01       	movw	r24, r28
    5a76:	8a 5b       	subi	r24, 0xBA	; 186
    5a78:	9f 4f       	sbci	r25, 0xFF	; 255
    5a7a:	9e 01       	movw	r18, r28
    5a7c:	24 5c       	subi	r18, 0xC4	; 196
    5a7e:	3f 4f       	sbci	r19, 0xFF	; 255
    5a80:	b9 01       	movw	r22, r18
    5a82:	0e 94 32 30 	call	0x6064	; 0x6064 <strcmp>
    5a86:	00 97       	sbiw	r24, 0x00	; 0
    5a88:	b1 f0       	breq	.+44     	; 0x5ab6 <vid_appStart+0x298>
						{
							HLCD_ClrDisplay();
    5a8a:	0e 94 37 27 	call	0x4e6e	; 0x4e6e <HLCD_ClrDisplay>
							HLCD_gotoXY(0, 2);
    5a8e:	80 e0       	ldi	r24, 0x00	; 0
    5a90:	62 e0       	ldi	r22, 0x02	; 2
    5a92:	0e 94 bc 28 	call	0x5178	; 0x5178 <HLCD_gotoXY>
							HLCD_WriteString( (Uint8_t*) "try again" );
    5a96:	8b e9       	ldi	r24, 0x9B	; 155
    5a98:	90 e0       	ldi	r25, 0x00	; 0
    5a9a:	0e 94 df 28 	call	0x51be	; 0x51be <HLCD_WriteString>
							l_u8_is_pin_correct = 0;
    5a9e:	1b 82       	std	Y+3, r1	; 0x03
							l_u8_repeat_write_pin++;
    5aa0:	8c 81       	ldd	r24, Y+4	; 0x04
    5aa2:	8f 5f       	subi	r24, 0xFF	; 255
    5aa4:	8c 83       	std	Y+4, r24	; 0x04
							number_to_display = 0;
    5aa6:	1d 82       	std	Y+5, r1	; 0x05
    5aa8:	1e 82       	std	Y+6, r1	; 0x06
    5aaa:	1f 82       	std	Y+7, r1	; 0x07
    5aac:	18 86       	std	Y+8, r1	; 0x08
							shift = 10;
    5aae:	8a e0       	ldi	r24, 0x0A	; 10
    5ab0:	89 87       	std	Y+9, r24	; 0x09
							g_u8_key = '\0';
    5ab2:	10 92 f3 03 	sts	0x03F3, r1

				if (g_u8_is_PAN_exist == PAN_FOUND)
				{
					HLCD_gotoXY(0, 0);
					HLCD_WriteString( (Uint8_t*) "APPROVED" );
					while (l_u8_repeat_write_pin < PIN_MAX_REPEAT_COUNT)
    5ab6:	8c 81       	ldd	r24, Y+4	; 0x04
    5ab8:	83 30       	cpi	r24, 0x03	; 3
    5aba:	08 f4       	brcc	.+2      	; 0x5abe <vid_appStart+0x2a0>
    5abc:	42 cf       	rjmp	.-380    	; 0x5942 <vid_appStart+0x124>
							number_to_display = 0;
							shift = 10;
							g_u8_key = '\0';
						}
					}
					if (l_u8_is_pin_correct == 0)
    5abe:	8b 81       	ldd	r24, Y+3	; 0x03
    5ac0:	88 23       	and	r24, r24
    5ac2:	f1 f4       	brne	.+60     	; 0x5b00 <vid_appStart+0x2e2>
					{
						HLCD_ClrDisplay();
    5ac4:	0e 94 37 27 	call	0x4e6e	; 0x4e6e <HLCD_ClrDisplay>
						HLCD_gotoXY(0, 7);
    5ac8:	80 e0       	ldi	r24, 0x00	; 0
    5aca:	67 e0       	ldi	r22, 0x07	; 7
    5acc:	0e 94 bc 28 	call	0x5178	; 0x5178 <HLCD_gotoXY>
						HLCD_WriteString( (Uint8_t*) "BLOCKED" );
    5ad0:	85 ea       	ldi	r24, 0xA5	; 165
    5ad2:	90 e0       	ldi	r25, 0x00	; 0
    5ad4:	0e 94 df 28 	call	0x51be	; 0x51be <HLCD_WriteString>
						st_database[g_u8_database_index].en_accountState = BLOCKED;
    5ad8:	80 91 f7 03 	lds	r24, 0x03F7
    5adc:	28 2f       	mov	r18, r24
    5ade:	30 e0       	ldi	r19, 0x00	; 0
    5ae0:	8b e4       	ldi	r24, 0x4B	; 75
    5ae2:	90 e0       	ldi	r25, 0x00	; 0
    5ae4:	ac 01       	movw	r20, r24
    5ae6:	24 9f       	mul	r18, r20
    5ae8:	c0 01       	movw	r24, r0
    5aea:	25 9f       	mul	r18, r21
    5aec:	90 0d       	add	r25, r0
    5aee:	34 9f       	mul	r19, r20
    5af0:	90 0d       	add	r25, r0
    5af2:	11 24       	eor	r1, r1
    5af4:	fc 01       	movw	r30, r24
    5af6:	e2 56       	subi	r30, 0x62	; 98
    5af8:	fd 4f       	sbci	r31, 0xFD	; 253
    5afa:	81 e0       	ldi	r24, 0x01	; 1
    5afc:	80 83       	st	Z, r24
    5afe:	9a c1       	rjmp	.+820    	; 0x5e34 <vid_appStart+0x616>
					}
					else if (l_u8_is_pin_correct == 1)
    5b00:	8b 81       	ldd	r24, Y+3	; 0x03
    5b02:	81 30       	cpi	r24, 0x01	; 1
    5b04:	09 f0       	breq	.+2      	; 0x5b08 <vid_appStart+0x2ea>
    5b06:	96 c1       	rjmp	.+812    	; 0x5e34 <vid_appStart+0x616>
					{
						HLCD_ClrDisplay();
    5b08:	0e 94 37 27 	call	0x4e6e	; 0x4e6e <HLCD_ClrDisplay>
						HLCD_gotoXY(0, 0);
    5b0c:	80 e0       	ldi	r24, 0x00	; 0
    5b0e:	60 e0       	ldi	r22, 0x00	; 0
    5b10:	0e 94 bc 28 	call	0x5178	; 0x5178 <HLCD_gotoXY>
						HLCD_WriteString( (Uint8_t*) "HELLO" );
    5b14:	8d ea       	ldi	r24, 0xAD	; 173
    5b16:	90 e0       	ldi	r25, 0x00	; 0
    5b18:	0e 94 df 28 	call	0x51be	; 0x51be <HLCD_WriteString>
						HLCD_gotoXY(0, 7);
    5b1c:	80 e0       	ldi	r24, 0x00	; 0
    5b1e:	67 e0       	ldi	r22, 0x07	; 7
    5b20:	0e 94 bc 28 	call	0x5178	; 0x5178 <HLCD_gotoXY>
						HLCD_WriteString( (Uint8_t*) st_database[g_u8_database_index].name );
    5b24:	80 91 f7 03 	lds	r24, 0x03F7
    5b28:	28 2f       	mov	r18, r24
    5b2a:	30 e0       	ldi	r19, 0x00	; 0
    5b2c:	8b e4       	ldi	r24, 0x4B	; 75
    5b2e:	90 e0       	ldi	r25, 0x00	; 0
    5b30:	fc 01       	movw	r30, r24
    5b32:	2e 9f       	mul	r18, r30
    5b34:	c0 01       	movw	r24, r0
    5b36:	2f 9f       	mul	r18, r31
    5b38:	90 0d       	add	r25, r0
    5b3a:	3e 9f       	mul	r19, r30
    5b3c:	90 0d       	add	r25, r0
    5b3e:	11 24       	eor	r1, r1
    5b40:	44 96       	adiw	r24, 0x14	; 20
    5b42:	88 5a       	subi	r24, 0xA8	; 168
    5b44:	9d 4f       	sbci	r25, 0xFD	; 253
    5b46:	0e 94 df 28 	call	0x51be	; 0x51be <HLCD_WriteString>
						HTimer_vidDelayMs( 500);
    5b4a:	64 ef       	ldi	r22, 0xF4	; 244
    5b4c:	71 e0       	ldi	r23, 0x01	; 1
    5b4e:	80 e0       	ldi	r24, 0x00	; 0
    5b50:	90 e0       	ldi	r25, 0x00	; 0
    5b52:	0e 94 7a 1c 	call	0x38f4	; 0x38f4 <HTimer_vidDelayMs>

						if (st_database[g_u8_database_index].en_accountState == RUNNING)
    5b56:	80 91 f7 03 	lds	r24, 0x03F7
    5b5a:	28 2f       	mov	r18, r24
    5b5c:	30 e0       	ldi	r19, 0x00	; 0
    5b5e:	8b e4       	ldi	r24, 0x4B	; 75
    5b60:	90 e0       	ldi	r25, 0x00	; 0
    5b62:	ac 01       	movw	r20, r24
    5b64:	24 9f       	mul	r18, r20
    5b66:	c0 01       	movw	r24, r0
    5b68:	25 9f       	mul	r18, r21
    5b6a:	90 0d       	add	r25, r0
    5b6c:	34 9f       	mul	r19, r20
    5b6e:	90 0d       	add	r25, r0
    5b70:	11 24       	eor	r1, r1
    5b72:	fc 01       	movw	r30, r24
    5b74:	e2 56       	subi	r30, 0x62	; 98
    5b76:	fd 4f       	sbci	r31, 0xFD	; 253
    5b78:	80 81       	ld	r24, Z
    5b7a:	84 30       	cpi	r24, 0x04	; 4
    5b7c:	09 f0       	breq	.+2      	; 0x5b80 <vid_appStart+0x362>
    5b7e:	2d c1       	rjmp	.+602    	; 0x5dda <vid_appStart+0x5bc>
						{
							HLCD_ClrDisplay();
    5b80:	0e 94 37 27 	call	0x4e6e	; 0x4e6e <HLCD_ClrDisplay>
							HLCD_gotoXY(0, 2);
    5b84:	80 e0       	ldi	r24, 0x00	; 0
    5b86:	62 e0       	ldi	r22, 0x02	; 2
    5b88:	0e 94 bc 28 	call	0x5178	; 0x5178 <HLCD_gotoXY>
							HLCD_WriteString( (Uint8_t*) "Enter ur val" );
    5b8c:	83 eb       	ldi	r24, 0xB3	; 179
    5b8e:	90 e0       	ldi	r25, 0x00	; 0
    5b90:	0e 94 df 28 	call	0x51be	; 0x51be <HLCD_WriteString>
							HLCD_gotoXY(1, (LCD_SHIFT_FIRST_INDEX_TRANSACTION - 3));
    5b94:	81 e0       	ldi	r24, 0x01	; 1
    5b96:	6c e0       	ldi	r22, 0x0C	; 12
    5b98:	0e 94 bc 28 	call	0x5178	; 0x5178 <HLCD_gotoXY>
							HLCD_WriteString( (Uint8_t*) "0000" );
    5b9c:	82 e9       	ldi	r24, 0x92	; 146
    5b9e:	90 e0       	ldi	r25, 0x00	; 0
    5ba0:	0e 94 df 28 	call	0x51be	; 0x51be <HLCD_WriteString>
							g_u8_key = '\0';
    5ba4:	10 92 f3 03 	sts	0x03F3, r1
							number_to_display = 0;
    5ba8:	1d 82       	std	Y+5, r1	; 0x05
    5baa:	1e 82       	std	Y+6, r1	; 0x06
    5bac:	1f 82       	std	Y+7, r1	; 0x07
    5bae:	18 86       	std	Y+8, r1	; 0x08
    5bb0:	5b c0       	rjmp	.+182    	; 0x5c68 <vid_appStart+0x44a>
							while ( g_u8_key != '#')
							{
								if(g_u8_z_e_val == '\0')
    5bb2:	80 91 f4 03 	lds	r24, 0x03F4
    5bb6:	88 23       	and	r24, r24
    5bb8:	29 f4       	brne	.+10     	; 0x5bc4 <vid_appStart+0x3a6>
								{
									g_u8_key = KEYPAD_u8GetPressed_V2();
    5bba:	0e 94 ea 19 	call	0x33d4	; 0x33d4 <KEYPAD_u8GetPressed_V2>
    5bbe:	80 93 f3 03 	sts	0x03F3, r24
    5bc2:	0e c0       	rjmp	.+28     	; 0x5be0 <vid_appStart+0x3c2>
								}
								else if ( (g_u8_z_e_val == '0') || (g_u8_z_e_val == '#'))
    5bc4:	80 91 f4 03 	lds	r24, 0x03F4
    5bc8:	80 33       	cpi	r24, 0x30	; 48
    5bca:	21 f0       	breq	.+8      	; 0x5bd4 <vid_appStart+0x3b6>
    5bcc:	80 91 f4 03 	lds	r24, 0x03F4
    5bd0:	83 32       	cpi	r24, 0x23	; 35
    5bd2:	31 f4       	brne	.+12     	; 0x5be0 <vid_appStart+0x3c2>
								{
									g_u8_key = g_u8_z_e_val;
    5bd4:	80 91 f4 03 	lds	r24, 0x03F4
    5bd8:	80 93 f3 03 	sts	0x03F3, r24
									g_u8_z_e_val = '\0';
    5bdc:	10 92 f4 03 	sts	0x03F4, r1
								}
								if (g_u8_key != '\0')
    5be0:	80 91 f3 03 	lds	r24, 0x03F3
    5be4:	88 23       	and	r24, r24
    5be6:	09 f4       	brne	.+2      	; 0x5bea <vid_appStart+0x3cc>
    5be8:	3f c0       	rjmp	.+126    	; 0x5c68 <vid_appStart+0x44a>
								{
									if ( g_u8_key >= '0' && g_u8_key <= '9')
    5bea:	80 91 f3 03 	lds	r24, 0x03F3
    5bee:	80 33       	cpi	r24, 0x30	; 48
    5bf0:	d8 f1       	brcs	.+118    	; 0x5c68 <vid_appStart+0x44a>
    5bf2:	80 91 f3 03 	lds	r24, 0x03F3
    5bf6:	8a 33       	cpi	r24, 0x3A	; 58
    5bf8:	b8 f5       	brcc	.+110    	; 0x5c68 <vid_appStart+0x44a>
									{
										number_to_display = number_to_display * 10 + (Uint32_t)(g_u8_key - '0');
    5bfa:	8d 81       	ldd	r24, Y+5	; 0x05
    5bfc:	9e 81       	ldd	r25, Y+6	; 0x06
    5bfe:	af 81       	ldd	r26, Y+7	; 0x07
    5c00:	b8 85       	ldd	r27, Y+8	; 0x08
    5c02:	2a e0       	ldi	r18, 0x0A	; 10
    5c04:	30 e0       	ldi	r19, 0x00	; 0
    5c06:	40 e0       	ldi	r20, 0x00	; 0
    5c08:	50 e0       	ldi	r21, 0x00	; 0
    5c0a:	bc 01       	movw	r22, r24
    5c0c:	cd 01       	movw	r24, r26
    5c0e:	0e 94 93 2f 	call	0x5f26	; 0x5f26 <__mulsi3>
    5c12:	9b 01       	movw	r18, r22
    5c14:	ac 01       	movw	r20, r24
    5c16:	80 91 f3 03 	lds	r24, 0x03F3
    5c1a:	88 2f       	mov	r24, r24
    5c1c:	90 e0       	ldi	r25, 0x00	; 0
    5c1e:	c0 97       	sbiw	r24, 0x30	; 48
    5c20:	aa 27       	eor	r26, r26
    5c22:	97 fd       	sbrc	r25, 7
    5c24:	a0 95       	com	r26
    5c26:	ba 2f       	mov	r27, r26
    5c28:	82 0f       	add	r24, r18
    5c2a:	93 1f       	adc	r25, r19
    5c2c:	a4 1f       	adc	r26, r20
    5c2e:	b5 1f       	adc	r27, r21
    5c30:	8d 83       	std	Y+5, r24	; 0x05
    5c32:	9e 83       	std	Y+6, r25	; 0x06
    5c34:	af 83       	std	Y+7, r26	; 0x07
    5c36:	b8 87       	std	Y+8, r27	; 0x08
										HLCD_gotoXY(1, l_u8_shift_transation);
    5c38:	81 e0       	ldi	r24, 0x01	; 1
    5c3a:	6a 81       	ldd	r22, Y+2	; 0x02
    5c3c:	0e 94 bc 28 	call	0x5178	; 0x5178 <HLCD_gotoXY>
										HLCD_WriteInt(number_to_display);
    5c40:	8d 81       	ldd	r24, Y+5	; 0x05
    5c42:	9e 81       	ldd	r25, Y+6	; 0x06
    5c44:	af 81       	ldd	r26, Y+7	; 0x07
    5c46:	b8 85       	ldd	r27, Y+8	; 0x08
    5c48:	bc 01       	movw	r22, r24
    5c4a:	cd 01       	movw	r24, r26
    5c4c:	0e 94 10 29 	call	0x5220	; 0x5220 <HLCD_WriteInt>
										l_u8_shift_transation--;
    5c50:	8a 81       	ldd	r24, Y+2	; 0x02
    5c52:	81 50       	subi	r24, 0x01	; 1
    5c54:	8a 83       	std	Y+2, r24	; 0x02
										if(l_u8_shift_transation == ( LCD_SHIFT_FIRST_INDEX_TRANSACTION - 5) )
    5c56:	8a 81       	ldd	r24, Y+2	; 0x02
    5c58:	8a 30       	cpi	r24, 0x0A	; 10
    5c5a:	31 f4       	brne	.+12     	; 0x5c68 <vid_appStart+0x44a>
										{
											//HLCD_backspace_Left();
											number_to_display = 0;
    5c5c:	1d 82       	std	Y+5, r1	; 0x05
    5c5e:	1e 82       	std	Y+6, r1	; 0x06
    5c60:	1f 82       	std	Y+7, r1	; 0x07
    5c62:	18 86       	std	Y+8, r1	; 0x08
											l_u8_shift_transation = LCD_SHIFT_FIRST_INDEX_TRANSACTION;
    5c64:	8f e0       	ldi	r24, 0x0F	; 15
    5c66:	8a 83       	std	Y+2, r24	; 0x02
							HLCD_WriteString( (Uint8_t*) "Enter ur val" );
							HLCD_gotoXY(1, (LCD_SHIFT_FIRST_INDEX_TRANSACTION - 3));
							HLCD_WriteString( (Uint8_t*) "0000" );
							g_u8_key = '\0';
							number_to_display = 0;
							while ( g_u8_key != '#')
    5c68:	80 91 f3 03 	lds	r24, 0x03F3
    5c6c:	83 32       	cpi	r24, 0x23	; 35
    5c6e:	09 f0       	breq	.+2      	; 0x5c72 <vid_appStart+0x454>
    5c70:	a0 cf       	rjmp	.-192    	; 0x5bb2 <vid_appStart+0x394>
										}
									}
								}
							}

							if (number_to_display > MAX_DAILY_LIMIT)
    5c72:	6d 81       	ldd	r22, Y+5	; 0x05
    5c74:	7e 81       	ldd	r23, Y+6	; 0x06
    5c76:	8f 81       	ldd	r24, Y+7	; 0x07
    5c78:	98 85       	ldd	r25, Y+8	; 0x08
    5c7a:	0e 94 a9 04 	call	0x952	; 0x952 <__floatunsisf>
    5c7e:	dc 01       	movw	r26, r24
    5c80:	cb 01       	movw	r24, r22
    5c82:	bc 01       	movw	r22, r24
    5c84:	cd 01       	movw	r24, r26
    5c86:	20 e0       	ldi	r18, 0x00	; 0
    5c88:	30 e4       	ldi	r19, 0x40	; 64
    5c8a:	4c e9       	ldi	r20, 0x9C	; 156
    5c8c:	55 e4       	ldi	r21, 0x45	; 69
    5c8e:	0e 94 c5 03 	call	0x78a	; 0x78a <__gtsf2>
    5c92:	18 16       	cp	r1, r24
    5c94:	8c f4       	brge	.+34     	; 0x5cb8 <vid_appStart+0x49a>
							{
								HLCD_ClrDisplay();
    5c96:	0e 94 37 27 	call	0x4e6e	; 0x4e6e <HLCD_ClrDisplay>
								HLCD_gotoXY(0, 0);
    5c9a:	80 e0       	ldi	r24, 0x00	; 0
    5c9c:	60 e0       	ldi	r22, 0x00	; 0
    5c9e:	0e 94 bc 28 	call	0x5178	; 0x5178 <HLCD_gotoXY>
								HLCD_WriteString( (Uint8_t*) "MAX_LIMIT_EXCEED" );
    5ca2:	80 ec       	ldi	r24, 0xC0	; 192
    5ca4:	90 e0       	ldi	r25, 0x00	; 0
    5ca6:	0e 94 df 28 	call	0x51be	; 0x51be <HLCD_WriteString>
								HTimer_vidDelayMs( 500);
    5caa:	64 ef       	ldi	r22, 0xF4	; 244
    5cac:	71 e0       	ldi	r23, 0x01	; 1
    5cae:	80 e0       	ldi	r24, 0x00	; 0
    5cb0:	90 e0       	ldi	r25, 0x00	; 0
    5cb2:	0e 94 7a 1c 	call	0x38f4	; 0x38f4 <HTimer_vidDelayMs>
    5cb6:	be c0       	rjmp	.+380    	; 0x5e34 <vid_appStart+0x616>
							}
							else if (number_to_display > st_database[g_u8_database_index].balance)
    5cb8:	80 91 f7 03 	lds	r24, 0x03F7
    5cbc:	28 2f       	mov	r18, r24
    5cbe:	30 e0       	ldi	r19, 0x00	; 0
    5cc0:	8b e4       	ldi	r24, 0x4B	; 75
    5cc2:	90 e0       	ldi	r25, 0x00	; 0
    5cc4:	fc 01       	movw	r30, r24
    5cc6:	2e 9f       	mul	r18, r30
    5cc8:	c0 01       	movw	r24, r0
    5cca:	2f 9f       	mul	r18, r31
    5ccc:	90 0d       	add	r25, r0
    5cce:	3e 9f       	mul	r19, r30
    5cd0:	90 0d       	add	r25, r0
    5cd2:	11 24       	eor	r1, r1
    5cd4:	fc 01       	movw	r30, r24
    5cd6:	e1 56       	subi	r30, 0x61	; 97
    5cd8:	fd 4f       	sbci	r31, 0xFD	; 253
    5cda:	20 81       	ld	r18, Z
    5cdc:	31 81       	ldd	r19, Z+1	; 0x01
    5cde:	42 81       	ldd	r20, Z+2	; 0x02
    5ce0:	53 81       	ldd	r21, Z+3	; 0x03
    5ce2:	8d 81       	ldd	r24, Y+5	; 0x05
    5ce4:	9e 81       	ldd	r25, Y+6	; 0x06
    5ce6:	af 81       	ldd	r26, Y+7	; 0x07
    5ce8:	b8 85       	ldd	r27, Y+8	; 0x08
    5cea:	28 17       	cp	r18, r24
    5cec:	39 07       	cpc	r19, r25
    5cee:	4a 07       	cpc	r20, r26
    5cf0:	5b 07       	cpc	r21, r27
    5cf2:	88 f4       	brcc	.+34     	; 0x5d16 <vid_appStart+0x4f8>
							{
								HLCD_ClrDisplay();
    5cf4:	0e 94 37 27 	call	0x4e6e	; 0x4e6e <HLCD_ClrDisplay>
								HLCD_gotoXY(0, 0);
    5cf8:	80 e0       	ldi	r24, 0x00	; 0
    5cfa:	60 e0       	ldi	r22, 0x00	; 0
    5cfc:	0e 94 bc 28 	call	0x5178	; 0x5178 <HLCD_gotoXY>
								HLCD_WriteString( (Uint8_t*) "INSUFFICIENT_FUND" );
    5d00:	81 ed       	ldi	r24, 0xD1	; 209
    5d02:	90 e0       	ldi	r25, 0x00	; 0
    5d04:	0e 94 df 28 	call	0x51be	; 0x51be <HLCD_WriteString>
								HTimer_vidDelayMs( 500);
    5d08:	64 ef       	ldi	r22, 0xF4	; 244
    5d0a:	71 e0       	ldi	r23, 0x01	; 1
    5d0c:	80 e0       	ldi	r24, 0x00	; 0
    5d0e:	90 e0       	ldi	r25, 0x00	; 0
    5d10:	0e 94 7a 1c 	call	0x38f4	; 0x38f4 <HTimer_vidDelayMs>
    5d14:	8f c0       	rjmp	.+286    	; 0x5e34 <vid_appStart+0x616>
							}
							else if (number_to_display <= st_database[g_u8_database_index].balance)
    5d16:	80 91 f7 03 	lds	r24, 0x03F7
    5d1a:	28 2f       	mov	r18, r24
    5d1c:	30 e0       	ldi	r19, 0x00	; 0
    5d1e:	8b e4       	ldi	r24, 0x4B	; 75
    5d20:	90 e0       	ldi	r25, 0x00	; 0
    5d22:	ac 01       	movw	r20, r24
    5d24:	24 9f       	mul	r18, r20
    5d26:	c0 01       	movw	r24, r0
    5d28:	25 9f       	mul	r18, r21
    5d2a:	90 0d       	add	r25, r0
    5d2c:	34 9f       	mul	r19, r20
    5d2e:	90 0d       	add	r25, r0
    5d30:	11 24       	eor	r1, r1
    5d32:	fc 01       	movw	r30, r24
    5d34:	e1 56       	subi	r30, 0x61	; 97
    5d36:	fd 4f       	sbci	r31, 0xFD	; 253
    5d38:	20 81       	ld	r18, Z
    5d3a:	31 81       	ldd	r19, Z+1	; 0x01
    5d3c:	42 81       	ldd	r20, Z+2	; 0x02
    5d3e:	53 81       	ldd	r21, Z+3	; 0x03
    5d40:	8d 81       	ldd	r24, Y+5	; 0x05
    5d42:	9e 81       	ldd	r25, Y+6	; 0x06
    5d44:	af 81       	ldd	r26, Y+7	; 0x07
    5d46:	b8 85       	ldd	r27, Y+8	; 0x08
    5d48:	28 17       	cp	r18, r24
    5d4a:	39 07       	cpc	r19, r25
    5d4c:	4a 07       	cpc	r20, r26
    5d4e:	5b 07       	cpc	r21, r27
    5d50:	08 f4       	brcc	.+2      	; 0x5d54 <vid_appStart+0x536>
    5d52:	70 c0       	rjmp	.+224    	; 0x5e34 <vid_appStart+0x616>
							{
								HLCD_ClrDisplay();
    5d54:	0e 94 37 27 	call	0x4e6e	; 0x4e6e <HLCD_ClrDisplay>
								HLCD_gotoXY(0, 0);
    5d58:	80 e0       	ldi	r24, 0x00	; 0
    5d5a:	60 e0       	ldi	r22, 0x00	; 0
    5d5c:	0e 94 bc 28 	call	0x5178	; 0x5178 <HLCD_gotoXY>
								HLCD_WriteString( (Uint8_t*) "APPROVED" );
    5d60:	89 e8       	ldi	r24, 0x89	; 137
    5d62:	90 e0       	ldi	r25, 0x00	; 0
    5d64:	0e 94 df 28 	call	0x51be	; 0x51be <HLCD_WriteString>
								HTimer_vidDelayMs( 500);
    5d68:	64 ef       	ldi	r22, 0xF4	; 244
    5d6a:	71 e0       	ldi	r23, 0x01	; 1
    5d6c:	80 e0       	ldi	r24, 0x00	; 0
    5d6e:	90 e0       	ldi	r25, 0x00	; 0
    5d70:	0e 94 7a 1c 	call	0x38f4	; 0x38f4 <HTimer_vidDelayMs>
								st_database[g_u8_database_index].balance -= number_to_display;
    5d74:	80 91 f7 03 	lds	r24, 0x03F7
    5d78:	68 2f       	mov	r22, r24
    5d7a:	70 e0       	ldi	r23, 0x00	; 0
    5d7c:	80 91 f7 03 	lds	r24, 0x03F7
    5d80:	28 2f       	mov	r18, r24
    5d82:	30 e0       	ldi	r19, 0x00	; 0
    5d84:	8b e4       	ldi	r24, 0x4B	; 75
    5d86:	90 e0       	ldi	r25, 0x00	; 0
    5d88:	fc 01       	movw	r30, r24
    5d8a:	2e 9f       	mul	r18, r30
    5d8c:	c0 01       	movw	r24, r0
    5d8e:	2f 9f       	mul	r18, r31
    5d90:	90 0d       	add	r25, r0
    5d92:	3e 9f       	mul	r19, r30
    5d94:	90 0d       	add	r25, r0
    5d96:	11 24       	eor	r1, r1
    5d98:	fc 01       	movw	r30, r24
    5d9a:	e1 56       	subi	r30, 0x61	; 97
    5d9c:	fd 4f       	sbci	r31, 0xFD	; 253
    5d9e:	20 81       	ld	r18, Z
    5da0:	31 81       	ldd	r19, Z+1	; 0x01
    5da2:	42 81       	ldd	r20, Z+2	; 0x02
    5da4:	53 81       	ldd	r21, Z+3	; 0x03
    5da6:	8d 81       	ldd	r24, Y+5	; 0x05
    5da8:	9e 81       	ldd	r25, Y+6	; 0x06
    5daa:	af 81       	ldd	r26, Y+7	; 0x07
    5dac:	b8 85       	ldd	r27, Y+8	; 0x08
    5dae:	28 1b       	sub	r18, r24
    5db0:	39 0b       	sbc	r19, r25
    5db2:	4a 0b       	sbc	r20, r26
    5db4:	5b 0b       	sbc	r21, r27
    5db6:	8b e4       	ldi	r24, 0x4B	; 75
    5db8:	90 e0       	ldi	r25, 0x00	; 0
    5dba:	fc 01       	movw	r30, r24
    5dbc:	6e 9f       	mul	r22, r30
    5dbe:	c0 01       	movw	r24, r0
    5dc0:	6f 9f       	mul	r22, r31
    5dc2:	90 0d       	add	r25, r0
    5dc4:	7e 9f       	mul	r23, r30
    5dc6:	90 0d       	add	r25, r0
    5dc8:	11 24       	eor	r1, r1
    5dca:	fc 01       	movw	r30, r24
    5dcc:	e1 56       	subi	r30, 0x61	; 97
    5dce:	fd 4f       	sbci	r31, 0xFD	; 253
    5dd0:	20 83       	st	Z, r18
    5dd2:	31 83       	std	Z+1, r19	; 0x01
    5dd4:	42 83       	std	Z+2, r20	; 0x02
    5dd6:	53 83       	std	Z+3, r21	; 0x03
    5dd8:	2d c0       	rjmp	.+90     	; 0x5e34 <vid_appStart+0x616>
							}
						}
						else if(st_database[g_u8_database_index].en_accountState == BLOCKED)
    5dda:	80 91 f7 03 	lds	r24, 0x03F7
    5dde:	28 2f       	mov	r18, r24
    5de0:	30 e0       	ldi	r19, 0x00	; 0
    5de2:	8b e4       	ldi	r24, 0x4B	; 75
    5de4:	90 e0       	ldi	r25, 0x00	; 0
    5de6:	ac 01       	movw	r20, r24
    5de8:	24 9f       	mul	r18, r20
    5dea:	c0 01       	movw	r24, r0
    5dec:	25 9f       	mul	r18, r21
    5dee:	90 0d       	add	r25, r0
    5df0:	34 9f       	mul	r19, r20
    5df2:	90 0d       	add	r25, r0
    5df4:	11 24       	eor	r1, r1
    5df6:	fc 01       	movw	r30, r24
    5df8:	e2 56       	subi	r30, 0x62	; 98
    5dfa:	fd 4f       	sbci	r31, 0xFD	; 253
    5dfc:	80 81       	ld	r24, Z
    5dfe:	81 30       	cpi	r24, 0x01	; 1
    5e00:	c9 f4       	brne	.+50     	; 0x5e34 <vid_appStart+0x616>
						{
							HLCD_ClrDisplay();
    5e02:	0e 94 37 27 	call	0x4e6e	; 0x4e6e <HLCD_ClrDisplay>
							HLCD_gotoXY(0, 0);
    5e06:	80 e0       	ldi	r24, 0x00	; 0
    5e08:	60 e0       	ldi	r22, 0x00	; 0
    5e0a:	0e 94 bc 28 	call	0x5178	; 0x5178 <HLCD_gotoXY>
							HLCD_WriteString( (Uint8_t*) "CARD stolen" );
    5e0e:	83 ee       	ldi	r24, 0xE3	; 227
    5e10:	90 e0       	ldi	r25, 0x00	; 0
    5e12:	0e 94 df 28 	call	0x51be	; 0x51be <HLCD_WriteString>
    5e16:	0e c0       	rjmp	.+28     	; 0x5e34 <vid_appStart+0x616>
						{
							/* do nothing */
						}
					}
				}
				else if (g_u8_is_PAN_exist == PAN_UNFOUND)
    5e18:	80 91 f5 03 	lds	r24, 0x03F5
    5e1c:	88 23       	and	r24, r24
    5e1e:	51 f4       	brne	.+20     	; 0x5e34 <vid_appStart+0x616>
				{
					HLCD_ClrDisplay();
    5e20:	0e 94 37 27 	call	0x4e6e	; 0x4e6e <HLCD_ClrDisplay>
					HLCD_gotoXY(0, 0);
    5e24:	80 e0       	ldi	r24, 0x00	; 0
    5e26:	60 e0       	ldi	r22, 0x00	; 0
    5e28:	0e 94 bc 28 	call	0x5178	; 0x5178 <HLCD_gotoXY>
					HLCD_WriteString( (Uint8_t*) "FRAUD CARD" );
    5e2c:	8f ee       	ldi	r24, 0xEF	; 239
    5e2e:	90 e0       	ldi	r25, 0x00	; 0
    5e30:	0e 94 df 28 	call	0x51be	; 0x51be <HLCD_WriteString>
					/* do nothing */
				}
			}
		}

		if (gs_u8_is_transaction_complete == DONE)
    5e34:	80 91 cf 03 	lds	r24, 0x03CF
    5e38:	88 23       	and	r24, r24
    5e3a:	09 f0       	breq	.+2      	; 0x5e3e <vid_appStart+0x620>
    5e3c:	2a cd       	rjmp	.-1452   	; 0x5892 <vid_appStart+0x74>
		{
			HLCD_ClrDisplay();
    5e3e:	0e 94 37 27 	call	0x4e6e	; 0x4e6e <HLCD_ClrDisplay>
			HLCD_gotoXY(0, 0);
    5e42:	80 e0       	ldi	r24, 0x00	; 0
    5e44:	60 e0       	ldi	r22, 0x00	; 0
    5e46:	0e 94 bc 28 	call	0x5178	; 0x5178 <HLCD_gotoXY>
			HLCD_WriteString( (Uint8_t*) "eject card" );
    5e4a:	8a ef       	ldi	r24, 0xFA	; 250
    5e4c:	90 e0       	ldi	r25, 0x00	; 0
    5e4e:	0e 94 df 28 	call	0x51be	; 0x51be <HLCD_WriteString>
			HTimer_vidDelayMs( 500);
    5e52:	64 ef       	ldi	r22, 0xF4	; 244
    5e54:	71 e0       	ldi	r23, 0x01	; 1
    5e56:	80 e0       	ldi	r24, 0x00	; 0
    5e58:	90 e0       	ldi	r25, 0x00	; 0
    5e5a:	0e 94 7a 1c 	call	0x38f4	; 0x38f4 <HTimer_vidDelayMs>
    5e5e:	19 cd       	rjmp	.-1486   	; 0x5892 <vid_appStart+0x74>

00005e60 <APP_enterZeroButton>:

}


void APP_enterZeroButton(void)
{
    5e60:	df 93       	push	r29
    5e62:	cf 93       	push	r28
    5e64:	cd b7       	in	r28, 0x3d	; 61
    5e66:	de b7       	in	r29, 0x3e	; 62
	if (gs_u8_interrupt_counting == 0)
    5e68:	80 91 f6 03 	lds	r24, 0x03F6
    5e6c:	88 23       	and	r24, r24
    5e6e:	91 f4       	brne	.+36     	; 0x5e94 <APP_enterZeroButton+0x34>
	{
		g_u32_ovf_count = 0;
    5e70:	10 92 dd 03 	sts	0x03DD, r1
    5e74:	10 92 de 03 	sts	0x03DE, r1
    5e78:	10 92 df 03 	sts	0x03DF, r1
    5e7c:	10 92 e0 03 	sts	0x03E0, r1
		HGPT0_vidStart();
    5e80:	0e 94 ef 1c 	call	0x39de	; 0x39de <HGPT0_vidStart>
		(void) HExtInt_enInit(INT_2, FALL_EDGE);
    5e84:	82 e0       	ldi	r24, 0x02	; 2
    5e86:	62 e0       	ldi	r22, 0x02	; 2
    5e88:	0e 94 2b 2a 	call	0x5456	; 0x5456 <HExtInt_enInit>
		gs_u8_interrupt_counting = 1;
    5e8c:	81 e0       	ldi	r24, 0x01	; 1
    5e8e:	80 93 f6 03 	sts	0x03F6, r24
    5e92:	39 c0       	rjmp	.+114    	; 0x5f06 <APP_enterZeroButton+0xa6>
	}
	else if (gs_u8_interrupt_counting == 1)
    5e94:	80 91 f6 03 	lds	r24, 0x03F6
    5e98:	81 30       	cpi	r24, 0x01	; 1
    5e9a:	a9 f5       	brne	.+106    	; 0x5f06 <APP_enterZeroButton+0xa6>
	{
		gs_u8_interrupt_counting = 0;
    5e9c:	10 92 f6 03 	sts	0x03F6, r1
		HGPT0_vidStop();
    5ea0:	0e 94 f8 1c 	call	0x39f0	; 0x39f0 <HGPT0_vidStop>
		(void) HExtInt_enInit(INT_2, RISE_EDGE);
    5ea4:	82 e0       	ldi	r24, 0x02	; 2
    5ea6:	63 e0       	ldi	r22, 0x03	; 3
    5ea8:	0e 94 2b 2a 	call	0x5456	; 0x5456 <HExtInt_enInit>
		if ((g_u32_ovf_count < 10) && (g_u32_ovf_count != 0) )
    5eac:	80 91 dd 03 	lds	r24, 0x03DD
    5eb0:	90 91 de 03 	lds	r25, 0x03DE
    5eb4:	a0 91 df 03 	lds	r26, 0x03DF
    5eb8:	b0 91 e0 03 	lds	r27, 0x03E0
    5ebc:	8a 30       	cpi	r24, 0x0A	; 10
    5ebe:	91 05       	cpc	r25, r1
    5ec0:	a1 05       	cpc	r26, r1
    5ec2:	b1 05       	cpc	r27, r1
    5ec4:	80 f4       	brcc	.+32     	; 0x5ee6 <APP_enterZeroButton+0x86>
    5ec6:	80 91 dd 03 	lds	r24, 0x03DD
    5eca:	90 91 de 03 	lds	r25, 0x03DE
    5ece:	a0 91 df 03 	lds	r26, 0x03DF
    5ed2:	b0 91 e0 03 	lds	r27, 0x03E0
    5ed6:	00 97       	sbiw	r24, 0x00	; 0
    5ed8:	a1 05       	cpc	r26, r1
    5eda:	b1 05       	cpc	r27, r1
    5edc:	21 f0       	breq	.+8      	; 0x5ee6 <APP_enterZeroButton+0x86>
		{
			g_u8_z_e_val = '0';
    5ede:	80 e3       	ldi	r24, 0x30	; 48
    5ee0:	80 93 f4 03 	sts	0x03F4, r24
    5ee4:	10 c0       	rjmp	.+32     	; 0x5f06 <APP_enterZeroButton+0xa6>
		}
		else if (g_u32_ovf_count >= 10)
    5ee6:	80 91 dd 03 	lds	r24, 0x03DD
    5eea:	90 91 de 03 	lds	r25, 0x03DE
    5eee:	a0 91 df 03 	lds	r26, 0x03DF
    5ef2:	b0 91 e0 03 	lds	r27, 0x03E0
    5ef6:	8a 30       	cpi	r24, 0x0A	; 10
    5ef8:	91 05       	cpc	r25, r1
    5efa:	a1 05       	cpc	r26, r1
    5efc:	b1 05       	cpc	r27, r1
    5efe:	18 f0       	brcs	.+6      	; 0x5f06 <APP_enterZeroButton+0xa6>
		{
			g_u8_z_e_val = '#';
    5f00:	83 e2       	ldi	r24, 0x23	; 35
    5f02:	80 93 f4 03 	sts	0x03F4, r24
	}
	else
	{
		/* do nothing */
	}
}
    5f06:	cf 91       	pop	r28
    5f08:	df 91       	pop	r29
    5f0a:	08 95       	ret

00005f0c <main>:
 *      Author: hp
 */

#include "APP/app.h"
int main()
{
    5f0c:	df 93       	push	r29
    5f0e:	cf 93       	push	r28
    5f10:	cd b7       	in	r28, 0x3d	; 61
    5f12:	de b7       	in	r29, 0x3e	; 62
	vid_appInit();
    5f14:	0e 94 ee 2b 	call	0x57dc	; 0x57dc <vid_appInit>
	vid_appStart();
    5f18:	0e 94 0f 2c 	call	0x581e	; 0x581e <vid_appStart>

	return 0;
    5f1c:	80 e0       	ldi	r24, 0x00	; 0
    5f1e:	90 e0       	ldi	r25, 0x00	; 0
}
    5f20:	cf 91       	pop	r28
    5f22:	df 91       	pop	r29
    5f24:	08 95       	ret

00005f26 <__mulsi3>:
    5f26:	62 9f       	mul	r22, r18
    5f28:	d0 01       	movw	r26, r0
    5f2a:	73 9f       	mul	r23, r19
    5f2c:	f0 01       	movw	r30, r0
    5f2e:	82 9f       	mul	r24, r18
    5f30:	e0 0d       	add	r30, r0
    5f32:	f1 1d       	adc	r31, r1
    5f34:	64 9f       	mul	r22, r20
    5f36:	e0 0d       	add	r30, r0
    5f38:	f1 1d       	adc	r31, r1
    5f3a:	92 9f       	mul	r25, r18
    5f3c:	f0 0d       	add	r31, r0
    5f3e:	83 9f       	mul	r24, r19
    5f40:	f0 0d       	add	r31, r0
    5f42:	74 9f       	mul	r23, r20
    5f44:	f0 0d       	add	r31, r0
    5f46:	65 9f       	mul	r22, r21
    5f48:	f0 0d       	add	r31, r0
    5f4a:	99 27       	eor	r25, r25
    5f4c:	72 9f       	mul	r23, r18
    5f4e:	b0 0d       	add	r27, r0
    5f50:	e1 1d       	adc	r30, r1
    5f52:	f9 1f       	adc	r31, r25
    5f54:	63 9f       	mul	r22, r19
    5f56:	b0 0d       	add	r27, r0
    5f58:	e1 1d       	adc	r30, r1
    5f5a:	f9 1f       	adc	r31, r25
    5f5c:	bd 01       	movw	r22, r26
    5f5e:	cf 01       	movw	r24, r30
    5f60:	11 24       	eor	r1, r1
    5f62:	08 95       	ret

00005f64 <__divmodhi4>:
    5f64:	97 fb       	bst	r25, 7
    5f66:	09 2e       	mov	r0, r25
    5f68:	07 26       	eor	r0, r23
    5f6a:	0a d0       	rcall	.+20     	; 0x5f80 <__divmodhi4_neg1>
    5f6c:	77 fd       	sbrc	r23, 7
    5f6e:	04 d0       	rcall	.+8      	; 0x5f78 <__divmodhi4_neg2>
    5f70:	2e d0       	rcall	.+92     	; 0x5fce <__udivmodhi4>
    5f72:	06 d0       	rcall	.+12     	; 0x5f80 <__divmodhi4_neg1>
    5f74:	00 20       	and	r0, r0
    5f76:	1a f4       	brpl	.+6      	; 0x5f7e <__divmodhi4_exit>

00005f78 <__divmodhi4_neg2>:
    5f78:	70 95       	com	r23
    5f7a:	61 95       	neg	r22
    5f7c:	7f 4f       	sbci	r23, 0xFF	; 255

00005f7e <__divmodhi4_exit>:
    5f7e:	08 95       	ret

00005f80 <__divmodhi4_neg1>:
    5f80:	f6 f7       	brtc	.-4      	; 0x5f7e <__divmodhi4_exit>
    5f82:	90 95       	com	r25
    5f84:	81 95       	neg	r24
    5f86:	9f 4f       	sbci	r25, 0xFF	; 255
    5f88:	08 95       	ret

00005f8a <__udivmodsi4>:
    5f8a:	a1 e2       	ldi	r26, 0x21	; 33
    5f8c:	1a 2e       	mov	r1, r26
    5f8e:	aa 1b       	sub	r26, r26
    5f90:	bb 1b       	sub	r27, r27
    5f92:	fd 01       	movw	r30, r26
    5f94:	0d c0       	rjmp	.+26     	; 0x5fb0 <__udivmodsi4_ep>

00005f96 <__udivmodsi4_loop>:
    5f96:	aa 1f       	adc	r26, r26
    5f98:	bb 1f       	adc	r27, r27
    5f9a:	ee 1f       	adc	r30, r30
    5f9c:	ff 1f       	adc	r31, r31
    5f9e:	a2 17       	cp	r26, r18
    5fa0:	b3 07       	cpc	r27, r19
    5fa2:	e4 07       	cpc	r30, r20
    5fa4:	f5 07       	cpc	r31, r21
    5fa6:	20 f0       	brcs	.+8      	; 0x5fb0 <__udivmodsi4_ep>
    5fa8:	a2 1b       	sub	r26, r18
    5faa:	b3 0b       	sbc	r27, r19
    5fac:	e4 0b       	sbc	r30, r20
    5fae:	f5 0b       	sbc	r31, r21

00005fb0 <__udivmodsi4_ep>:
    5fb0:	66 1f       	adc	r22, r22
    5fb2:	77 1f       	adc	r23, r23
    5fb4:	88 1f       	adc	r24, r24
    5fb6:	99 1f       	adc	r25, r25
    5fb8:	1a 94       	dec	r1
    5fba:	69 f7       	brne	.-38     	; 0x5f96 <__udivmodsi4_loop>
    5fbc:	60 95       	com	r22
    5fbe:	70 95       	com	r23
    5fc0:	80 95       	com	r24
    5fc2:	90 95       	com	r25
    5fc4:	9b 01       	movw	r18, r22
    5fc6:	ac 01       	movw	r20, r24
    5fc8:	bd 01       	movw	r22, r26
    5fca:	cf 01       	movw	r24, r30
    5fcc:	08 95       	ret

00005fce <__udivmodhi4>:
    5fce:	aa 1b       	sub	r26, r26
    5fd0:	bb 1b       	sub	r27, r27
    5fd2:	51 e1       	ldi	r21, 0x11	; 17
    5fd4:	07 c0       	rjmp	.+14     	; 0x5fe4 <__udivmodhi4_ep>

00005fd6 <__udivmodhi4_loop>:
    5fd6:	aa 1f       	adc	r26, r26
    5fd8:	bb 1f       	adc	r27, r27
    5fda:	a6 17       	cp	r26, r22
    5fdc:	b7 07       	cpc	r27, r23
    5fde:	10 f0       	brcs	.+4      	; 0x5fe4 <__udivmodhi4_ep>
    5fe0:	a6 1b       	sub	r26, r22
    5fe2:	b7 0b       	sbc	r27, r23

00005fe4 <__udivmodhi4_ep>:
    5fe4:	88 1f       	adc	r24, r24
    5fe6:	99 1f       	adc	r25, r25
    5fe8:	5a 95       	dec	r21
    5fea:	a9 f7       	brne	.-22     	; 0x5fd6 <__udivmodhi4_loop>
    5fec:	80 95       	com	r24
    5fee:	90 95       	com	r25
    5ff0:	bc 01       	movw	r22, r24
    5ff2:	cd 01       	movw	r24, r26
    5ff4:	08 95       	ret

00005ff6 <__prologue_saves__>:
    5ff6:	2f 92       	push	r2
    5ff8:	3f 92       	push	r3
    5ffa:	4f 92       	push	r4
    5ffc:	5f 92       	push	r5
    5ffe:	6f 92       	push	r6
    6000:	7f 92       	push	r7
    6002:	8f 92       	push	r8
    6004:	9f 92       	push	r9
    6006:	af 92       	push	r10
    6008:	bf 92       	push	r11
    600a:	cf 92       	push	r12
    600c:	df 92       	push	r13
    600e:	ef 92       	push	r14
    6010:	ff 92       	push	r15
    6012:	0f 93       	push	r16
    6014:	1f 93       	push	r17
    6016:	cf 93       	push	r28
    6018:	df 93       	push	r29
    601a:	cd b7       	in	r28, 0x3d	; 61
    601c:	de b7       	in	r29, 0x3e	; 62
    601e:	ca 1b       	sub	r28, r26
    6020:	db 0b       	sbc	r29, r27
    6022:	0f b6       	in	r0, 0x3f	; 63
    6024:	f8 94       	cli
    6026:	de bf       	out	0x3e, r29	; 62
    6028:	0f be       	out	0x3f, r0	; 63
    602a:	cd bf       	out	0x3d, r28	; 61
    602c:	09 94       	ijmp

0000602e <__epilogue_restores__>:
    602e:	2a 88       	ldd	r2, Y+18	; 0x12
    6030:	39 88       	ldd	r3, Y+17	; 0x11
    6032:	48 88       	ldd	r4, Y+16	; 0x10
    6034:	5f 84       	ldd	r5, Y+15	; 0x0f
    6036:	6e 84       	ldd	r6, Y+14	; 0x0e
    6038:	7d 84       	ldd	r7, Y+13	; 0x0d
    603a:	8c 84       	ldd	r8, Y+12	; 0x0c
    603c:	9b 84       	ldd	r9, Y+11	; 0x0b
    603e:	aa 84       	ldd	r10, Y+10	; 0x0a
    6040:	b9 84       	ldd	r11, Y+9	; 0x09
    6042:	c8 84       	ldd	r12, Y+8	; 0x08
    6044:	df 80       	ldd	r13, Y+7	; 0x07
    6046:	ee 80       	ldd	r14, Y+6	; 0x06
    6048:	fd 80       	ldd	r15, Y+5	; 0x05
    604a:	0c 81       	ldd	r16, Y+4	; 0x04
    604c:	1b 81       	ldd	r17, Y+3	; 0x03
    604e:	aa 81       	ldd	r26, Y+2	; 0x02
    6050:	b9 81       	ldd	r27, Y+1	; 0x01
    6052:	ce 0f       	add	r28, r30
    6054:	d1 1d       	adc	r29, r1
    6056:	0f b6       	in	r0, 0x3f	; 63
    6058:	f8 94       	cli
    605a:	de bf       	out	0x3e, r29	; 62
    605c:	0f be       	out	0x3f, r0	; 63
    605e:	cd bf       	out	0x3d, r28	; 61
    6060:	ed 01       	movw	r28, r26
    6062:	08 95       	ret

00006064 <strcmp>:
    6064:	fb 01       	movw	r30, r22
    6066:	dc 01       	movw	r26, r24
    6068:	8d 91       	ld	r24, X+
    606a:	01 90       	ld	r0, Z+
    606c:	80 19       	sub	r24, r0
    606e:	01 10       	cpse	r0, r1
    6070:	d9 f3       	breq	.-10     	; 0x6068 <strcmp+0x4>
    6072:	99 0b       	sbc	r25, r25
    6074:	08 95       	ret

00006076 <strcpy>:
    6076:	fb 01       	movw	r30, r22
    6078:	dc 01       	movw	r26, r24
    607a:	01 90       	ld	r0, Z+
    607c:	0d 92       	st	X+, r0
    607e:	00 20       	and	r0, r0
    6080:	e1 f7       	brne	.-8      	; 0x607a <strcpy+0x4>
    6082:	08 95       	ret

00006084 <sprintf>:
    6084:	ae e0       	ldi	r26, 0x0E	; 14
    6086:	b0 e0       	ldi	r27, 0x00	; 0
    6088:	e8 e4       	ldi	r30, 0x48	; 72
    608a:	f0 e3       	ldi	r31, 0x30	; 48
    608c:	0c 94 09 30 	jmp	0x6012	; 0x6012 <__prologue_saves__+0x1c>
    6090:	0d 89       	ldd	r16, Y+21	; 0x15
    6092:	1e 89       	ldd	r17, Y+22	; 0x16
    6094:	86 e0       	ldi	r24, 0x06	; 6
    6096:	8c 83       	std	Y+4, r24	; 0x04
    6098:	1a 83       	std	Y+2, r17	; 0x02
    609a:	09 83       	std	Y+1, r16	; 0x01
    609c:	8f ef       	ldi	r24, 0xFF	; 255
    609e:	9f e7       	ldi	r25, 0x7F	; 127
    60a0:	9e 83       	std	Y+6, r25	; 0x06
    60a2:	8d 83       	std	Y+5, r24	; 0x05
    60a4:	9e 01       	movw	r18, r28
    60a6:	27 5e       	subi	r18, 0xE7	; 231
    60a8:	3f 4f       	sbci	r19, 0xFF	; 255
    60aa:	ce 01       	movw	r24, r28
    60ac:	01 96       	adiw	r24, 0x01	; 1
    60ae:	6f 89       	ldd	r22, Y+23	; 0x17
    60b0:	78 8d       	ldd	r23, Y+24	; 0x18
    60b2:	a9 01       	movw	r20, r18
    60b4:	0e 94 66 30 	call	0x60cc	; 0x60cc <vfprintf>
    60b8:	2f 81       	ldd	r18, Y+7	; 0x07
    60ba:	38 85       	ldd	r19, Y+8	; 0x08
    60bc:	02 0f       	add	r16, r18
    60be:	13 1f       	adc	r17, r19
    60c0:	f8 01       	movw	r30, r16
    60c2:	10 82       	st	Z, r1
    60c4:	2e 96       	adiw	r28, 0x0e	; 14
    60c6:	e4 e0       	ldi	r30, 0x04	; 4
    60c8:	0c 94 25 30 	jmp	0x604a	; 0x604a <__epilogue_restores__+0x1c>

000060cc <vfprintf>:
    60cc:	ab e0       	ldi	r26, 0x0B	; 11
    60ce:	b0 e0       	ldi	r27, 0x00	; 0
    60d0:	ec e6       	ldi	r30, 0x6C	; 108
    60d2:	f0 e3       	ldi	r31, 0x30	; 48
    60d4:	0c 94 fb 2f 	jmp	0x5ff6	; 0x5ff6 <__prologue_saves__>
    60d8:	3c 01       	movw	r6, r24
    60da:	2b 01       	movw	r4, r22
    60dc:	5a 01       	movw	r10, r20
    60de:	fc 01       	movw	r30, r24
    60e0:	17 82       	std	Z+7, r1	; 0x07
    60e2:	16 82       	std	Z+6, r1	; 0x06
    60e4:	83 81       	ldd	r24, Z+3	; 0x03
    60e6:	81 fd       	sbrc	r24, 1
    60e8:	03 c0       	rjmp	.+6      	; 0x60f0 <vfprintf+0x24>
    60ea:	6f ef       	ldi	r22, 0xFF	; 255
    60ec:	7f ef       	ldi	r23, 0xFF	; 255
    60ee:	c6 c1       	rjmp	.+908    	; 0x647c <vfprintf+0x3b0>
    60f0:	9a e0       	ldi	r25, 0x0A	; 10
    60f2:	89 2e       	mov	r8, r25
    60f4:	1e 01       	movw	r2, r28
    60f6:	08 94       	sec
    60f8:	21 1c       	adc	r2, r1
    60fa:	31 1c       	adc	r3, r1
    60fc:	f3 01       	movw	r30, r6
    60fe:	23 81       	ldd	r18, Z+3	; 0x03
    6100:	f2 01       	movw	r30, r4
    6102:	23 fd       	sbrc	r18, 3
    6104:	85 91       	lpm	r24, Z+
    6106:	23 ff       	sbrs	r18, 3
    6108:	81 91       	ld	r24, Z+
    610a:	2f 01       	movw	r4, r30
    610c:	88 23       	and	r24, r24
    610e:	09 f4       	brne	.+2      	; 0x6112 <vfprintf+0x46>
    6110:	b2 c1       	rjmp	.+868    	; 0x6476 <vfprintf+0x3aa>
    6112:	85 32       	cpi	r24, 0x25	; 37
    6114:	39 f4       	brne	.+14     	; 0x6124 <vfprintf+0x58>
    6116:	23 fd       	sbrc	r18, 3
    6118:	85 91       	lpm	r24, Z+
    611a:	23 ff       	sbrs	r18, 3
    611c:	81 91       	ld	r24, Z+
    611e:	2f 01       	movw	r4, r30
    6120:	85 32       	cpi	r24, 0x25	; 37
    6122:	29 f4       	brne	.+10     	; 0x612e <vfprintf+0x62>
    6124:	90 e0       	ldi	r25, 0x00	; 0
    6126:	b3 01       	movw	r22, r6
    6128:	0e 94 59 32 	call	0x64b2	; 0x64b2 <fputc>
    612c:	e7 cf       	rjmp	.-50     	; 0x60fc <vfprintf+0x30>
    612e:	98 2f       	mov	r25, r24
    6130:	ff 24       	eor	r15, r15
    6132:	ee 24       	eor	r14, r14
    6134:	99 24       	eor	r9, r9
    6136:	ff e1       	ldi	r31, 0x1F	; 31
    6138:	ff 15       	cp	r31, r15
    613a:	d0 f0       	brcs	.+52     	; 0x6170 <vfprintf+0xa4>
    613c:	9b 32       	cpi	r25, 0x2B	; 43
    613e:	69 f0       	breq	.+26     	; 0x615a <vfprintf+0x8e>
    6140:	9c 32       	cpi	r25, 0x2C	; 44
    6142:	28 f4       	brcc	.+10     	; 0x614e <vfprintf+0x82>
    6144:	90 32       	cpi	r25, 0x20	; 32
    6146:	59 f0       	breq	.+22     	; 0x615e <vfprintf+0x92>
    6148:	93 32       	cpi	r25, 0x23	; 35
    614a:	91 f4       	brne	.+36     	; 0x6170 <vfprintf+0xa4>
    614c:	0e c0       	rjmp	.+28     	; 0x616a <vfprintf+0x9e>
    614e:	9d 32       	cpi	r25, 0x2D	; 45
    6150:	49 f0       	breq	.+18     	; 0x6164 <vfprintf+0x98>
    6152:	90 33       	cpi	r25, 0x30	; 48
    6154:	69 f4       	brne	.+26     	; 0x6170 <vfprintf+0xa4>
    6156:	41 e0       	ldi	r20, 0x01	; 1
    6158:	24 c0       	rjmp	.+72     	; 0x61a2 <vfprintf+0xd6>
    615a:	52 e0       	ldi	r21, 0x02	; 2
    615c:	f5 2a       	or	r15, r21
    615e:	84 e0       	ldi	r24, 0x04	; 4
    6160:	f8 2a       	or	r15, r24
    6162:	28 c0       	rjmp	.+80     	; 0x61b4 <vfprintf+0xe8>
    6164:	98 e0       	ldi	r25, 0x08	; 8
    6166:	f9 2a       	or	r15, r25
    6168:	25 c0       	rjmp	.+74     	; 0x61b4 <vfprintf+0xe8>
    616a:	e0 e1       	ldi	r30, 0x10	; 16
    616c:	fe 2a       	or	r15, r30
    616e:	22 c0       	rjmp	.+68     	; 0x61b4 <vfprintf+0xe8>
    6170:	f7 fc       	sbrc	r15, 7
    6172:	29 c0       	rjmp	.+82     	; 0x61c6 <vfprintf+0xfa>
    6174:	89 2f       	mov	r24, r25
    6176:	80 53       	subi	r24, 0x30	; 48
    6178:	8a 30       	cpi	r24, 0x0A	; 10
    617a:	70 f4       	brcc	.+28     	; 0x6198 <vfprintf+0xcc>
    617c:	f6 fe       	sbrs	r15, 6
    617e:	05 c0       	rjmp	.+10     	; 0x618a <vfprintf+0xbe>
    6180:	98 9c       	mul	r9, r8
    6182:	90 2c       	mov	r9, r0
    6184:	11 24       	eor	r1, r1
    6186:	98 0e       	add	r9, r24
    6188:	15 c0       	rjmp	.+42     	; 0x61b4 <vfprintf+0xe8>
    618a:	e8 9c       	mul	r14, r8
    618c:	e0 2c       	mov	r14, r0
    618e:	11 24       	eor	r1, r1
    6190:	e8 0e       	add	r14, r24
    6192:	f0 e2       	ldi	r31, 0x20	; 32
    6194:	ff 2a       	or	r15, r31
    6196:	0e c0       	rjmp	.+28     	; 0x61b4 <vfprintf+0xe8>
    6198:	9e 32       	cpi	r25, 0x2E	; 46
    619a:	29 f4       	brne	.+10     	; 0x61a6 <vfprintf+0xda>
    619c:	f6 fc       	sbrc	r15, 6
    619e:	6b c1       	rjmp	.+726    	; 0x6476 <vfprintf+0x3aa>
    61a0:	40 e4       	ldi	r20, 0x40	; 64
    61a2:	f4 2a       	or	r15, r20
    61a4:	07 c0       	rjmp	.+14     	; 0x61b4 <vfprintf+0xe8>
    61a6:	9c 36       	cpi	r25, 0x6C	; 108
    61a8:	19 f4       	brne	.+6      	; 0x61b0 <vfprintf+0xe4>
    61aa:	50 e8       	ldi	r21, 0x80	; 128
    61ac:	f5 2a       	or	r15, r21
    61ae:	02 c0       	rjmp	.+4      	; 0x61b4 <vfprintf+0xe8>
    61b0:	98 36       	cpi	r25, 0x68	; 104
    61b2:	49 f4       	brne	.+18     	; 0x61c6 <vfprintf+0xfa>
    61b4:	f2 01       	movw	r30, r4
    61b6:	23 fd       	sbrc	r18, 3
    61b8:	95 91       	lpm	r25, Z+
    61ba:	23 ff       	sbrs	r18, 3
    61bc:	91 91       	ld	r25, Z+
    61be:	2f 01       	movw	r4, r30
    61c0:	99 23       	and	r25, r25
    61c2:	09 f0       	breq	.+2      	; 0x61c6 <vfprintf+0xfa>
    61c4:	b8 cf       	rjmp	.-144    	; 0x6136 <vfprintf+0x6a>
    61c6:	89 2f       	mov	r24, r25
    61c8:	85 54       	subi	r24, 0x45	; 69
    61ca:	83 30       	cpi	r24, 0x03	; 3
    61cc:	18 f0       	brcs	.+6      	; 0x61d4 <vfprintf+0x108>
    61ce:	80 52       	subi	r24, 0x20	; 32
    61d0:	83 30       	cpi	r24, 0x03	; 3
    61d2:	38 f4       	brcc	.+14     	; 0x61e2 <vfprintf+0x116>
    61d4:	44 e0       	ldi	r20, 0x04	; 4
    61d6:	50 e0       	ldi	r21, 0x00	; 0
    61d8:	a4 0e       	add	r10, r20
    61da:	b5 1e       	adc	r11, r21
    61dc:	5f e3       	ldi	r21, 0x3F	; 63
    61de:	59 83       	std	Y+1, r21	; 0x01
    61e0:	0f c0       	rjmp	.+30     	; 0x6200 <vfprintf+0x134>
    61e2:	93 36       	cpi	r25, 0x63	; 99
    61e4:	31 f0       	breq	.+12     	; 0x61f2 <vfprintf+0x126>
    61e6:	93 37       	cpi	r25, 0x73	; 115
    61e8:	79 f0       	breq	.+30     	; 0x6208 <vfprintf+0x13c>
    61ea:	93 35       	cpi	r25, 0x53	; 83
    61ec:	09 f0       	breq	.+2      	; 0x61f0 <vfprintf+0x124>
    61ee:	56 c0       	rjmp	.+172    	; 0x629c <vfprintf+0x1d0>
    61f0:	20 c0       	rjmp	.+64     	; 0x6232 <vfprintf+0x166>
    61f2:	f5 01       	movw	r30, r10
    61f4:	80 81       	ld	r24, Z
    61f6:	89 83       	std	Y+1, r24	; 0x01
    61f8:	42 e0       	ldi	r20, 0x02	; 2
    61fa:	50 e0       	ldi	r21, 0x00	; 0
    61fc:	a4 0e       	add	r10, r20
    61fe:	b5 1e       	adc	r11, r21
    6200:	61 01       	movw	r12, r2
    6202:	01 e0       	ldi	r16, 0x01	; 1
    6204:	10 e0       	ldi	r17, 0x00	; 0
    6206:	12 c0       	rjmp	.+36     	; 0x622c <vfprintf+0x160>
    6208:	f5 01       	movw	r30, r10
    620a:	c0 80       	ld	r12, Z
    620c:	d1 80       	ldd	r13, Z+1	; 0x01
    620e:	f6 fc       	sbrc	r15, 6
    6210:	03 c0       	rjmp	.+6      	; 0x6218 <vfprintf+0x14c>
    6212:	6f ef       	ldi	r22, 0xFF	; 255
    6214:	7f ef       	ldi	r23, 0xFF	; 255
    6216:	02 c0       	rjmp	.+4      	; 0x621c <vfprintf+0x150>
    6218:	69 2d       	mov	r22, r9
    621a:	70 e0       	ldi	r23, 0x00	; 0
    621c:	42 e0       	ldi	r20, 0x02	; 2
    621e:	50 e0       	ldi	r21, 0x00	; 0
    6220:	a4 0e       	add	r10, r20
    6222:	b5 1e       	adc	r11, r21
    6224:	c6 01       	movw	r24, r12
    6226:	0e 94 4e 32 	call	0x649c	; 0x649c <strnlen>
    622a:	8c 01       	movw	r16, r24
    622c:	5f e7       	ldi	r21, 0x7F	; 127
    622e:	f5 22       	and	r15, r21
    6230:	14 c0       	rjmp	.+40     	; 0x625a <vfprintf+0x18e>
    6232:	f5 01       	movw	r30, r10
    6234:	c0 80       	ld	r12, Z
    6236:	d1 80       	ldd	r13, Z+1	; 0x01
    6238:	f6 fc       	sbrc	r15, 6
    623a:	03 c0       	rjmp	.+6      	; 0x6242 <vfprintf+0x176>
    623c:	6f ef       	ldi	r22, 0xFF	; 255
    623e:	7f ef       	ldi	r23, 0xFF	; 255
    6240:	02 c0       	rjmp	.+4      	; 0x6246 <vfprintf+0x17a>
    6242:	69 2d       	mov	r22, r9
    6244:	70 e0       	ldi	r23, 0x00	; 0
    6246:	42 e0       	ldi	r20, 0x02	; 2
    6248:	50 e0       	ldi	r21, 0x00	; 0
    624a:	a4 0e       	add	r10, r20
    624c:	b5 1e       	adc	r11, r21
    624e:	c6 01       	movw	r24, r12
    6250:	0e 94 43 32 	call	0x6486	; 0x6486 <strnlen_P>
    6254:	8c 01       	movw	r16, r24
    6256:	50 e8       	ldi	r21, 0x80	; 128
    6258:	f5 2a       	or	r15, r21
    625a:	f3 fe       	sbrs	r15, 3
    625c:	07 c0       	rjmp	.+14     	; 0x626c <vfprintf+0x1a0>
    625e:	1a c0       	rjmp	.+52     	; 0x6294 <vfprintf+0x1c8>
    6260:	80 e2       	ldi	r24, 0x20	; 32
    6262:	90 e0       	ldi	r25, 0x00	; 0
    6264:	b3 01       	movw	r22, r6
    6266:	0e 94 59 32 	call	0x64b2	; 0x64b2 <fputc>
    626a:	ea 94       	dec	r14
    626c:	8e 2d       	mov	r24, r14
    626e:	90 e0       	ldi	r25, 0x00	; 0
    6270:	08 17       	cp	r16, r24
    6272:	19 07       	cpc	r17, r25
    6274:	a8 f3       	brcs	.-22     	; 0x6260 <vfprintf+0x194>
    6276:	0e c0       	rjmp	.+28     	; 0x6294 <vfprintf+0x1c8>
    6278:	f6 01       	movw	r30, r12
    627a:	f7 fc       	sbrc	r15, 7
    627c:	85 91       	lpm	r24, Z+
    627e:	f7 fe       	sbrs	r15, 7
    6280:	81 91       	ld	r24, Z+
    6282:	6f 01       	movw	r12, r30
    6284:	90 e0       	ldi	r25, 0x00	; 0
    6286:	b3 01       	movw	r22, r6
    6288:	0e 94 59 32 	call	0x64b2	; 0x64b2 <fputc>
    628c:	e1 10       	cpse	r14, r1
    628e:	ea 94       	dec	r14
    6290:	01 50       	subi	r16, 0x01	; 1
    6292:	10 40       	sbci	r17, 0x00	; 0
    6294:	01 15       	cp	r16, r1
    6296:	11 05       	cpc	r17, r1
    6298:	79 f7       	brne	.-34     	; 0x6278 <vfprintf+0x1ac>
    629a:	ea c0       	rjmp	.+468    	; 0x6470 <vfprintf+0x3a4>
    629c:	94 36       	cpi	r25, 0x64	; 100
    629e:	11 f0       	breq	.+4      	; 0x62a4 <vfprintf+0x1d8>
    62a0:	99 36       	cpi	r25, 0x69	; 105
    62a2:	69 f5       	brne	.+90     	; 0x62fe <vfprintf+0x232>
    62a4:	f7 fe       	sbrs	r15, 7
    62a6:	08 c0       	rjmp	.+16     	; 0x62b8 <vfprintf+0x1ec>
    62a8:	f5 01       	movw	r30, r10
    62aa:	20 81       	ld	r18, Z
    62ac:	31 81       	ldd	r19, Z+1	; 0x01
    62ae:	42 81       	ldd	r20, Z+2	; 0x02
    62b0:	53 81       	ldd	r21, Z+3	; 0x03
    62b2:	84 e0       	ldi	r24, 0x04	; 4
    62b4:	90 e0       	ldi	r25, 0x00	; 0
    62b6:	0a c0       	rjmp	.+20     	; 0x62cc <vfprintf+0x200>
    62b8:	f5 01       	movw	r30, r10
    62ba:	80 81       	ld	r24, Z
    62bc:	91 81       	ldd	r25, Z+1	; 0x01
    62be:	9c 01       	movw	r18, r24
    62c0:	44 27       	eor	r20, r20
    62c2:	37 fd       	sbrc	r19, 7
    62c4:	40 95       	com	r20
    62c6:	54 2f       	mov	r21, r20
    62c8:	82 e0       	ldi	r24, 0x02	; 2
    62ca:	90 e0       	ldi	r25, 0x00	; 0
    62cc:	a8 0e       	add	r10, r24
    62ce:	b9 1e       	adc	r11, r25
    62d0:	9f e6       	ldi	r25, 0x6F	; 111
    62d2:	f9 22       	and	r15, r25
    62d4:	57 ff       	sbrs	r21, 7
    62d6:	09 c0       	rjmp	.+18     	; 0x62ea <vfprintf+0x21e>
    62d8:	50 95       	com	r21
    62da:	40 95       	com	r20
    62dc:	30 95       	com	r19
    62de:	21 95       	neg	r18
    62e0:	3f 4f       	sbci	r19, 0xFF	; 255
    62e2:	4f 4f       	sbci	r20, 0xFF	; 255
    62e4:	5f 4f       	sbci	r21, 0xFF	; 255
    62e6:	e0 e8       	ldi	r30, 0x80	; 128
    62e8:	fe 2a       	or	r15, r30
    62ea:	ca 01       	movw	r24, r20
    62ec:	b9 01       	movw	r22, r18
    62ee:	a1 01       	movw	r20, r2
    62f0:	2a e0       	ldi	r18, 0x0A	; 10
    62f2:	30 e0       	ldi	r19, 0x00	; 0
    62f4:	0e 94 85 32 	call	0x650a	; 0x650a <__ultoa_invert>
    62f8:	d8 2e       	mov	r13, r24
    62fa:	d2 18       	sub	r13, r2
    62fc:	40 c0       	rjmp	.+128    	; 0x637e <vfprintf+0x2b2>
    62fe:	95 37       	cpi	r25, 0x75	; 117
    6300:	29 f4       	brne	.+10     	; 0x630c <vfprintf+0x240>
    6302:	1f 2d       	mov	r17, r15
    6304:	1f 7e       	andi	r17, 0xEF	; 239
    6306:	2a e0       	ldi	r18, 0x0A	; 10
    6308:	30 e0       	ldi	r19, 0x00	; 0
    630a:	1d c0       	rjmp	.+58     	; 0x6346 <vfprintf+0x27a>
    630c:	1f 2d       	mov	r17, r15
    630e:	19 7f       	andi	r17, 0xF9	; 249
    6310:	9f 36       	cpi	r25, 0x6F	; 111
    6312:	61 f0       	breq	.+24     	; 0x632c <vfprintf+0x260>
    6314:	90 37       	cpi	r25, 0x70	; 112
    6316:	20 f4       	brcc	.+8      	; 0x6320 <vfprintf+0x254>
    6318:	98 35       	cpi	r25, 0x58	; 88
    631a:	09 f0       	breq	.+2      	; 0x631e <vfprintf+0x252>
    631c:	ac c0       	rjmp	.+344    	; 0x6476 <vfprintf+0x3aa>
    631e:	0f c0       	rjmp	.+30     	; 0x633e <vfprintf+0x272>
    6320:	90 37       	cpi	r25, 0x70	; 112
    6322:	39 f0       	breq	.+14     	; 0x6332 <vfprintf+0x266>
    6324:	98 37       	cpi	r25, 0x78	; 120
    6326:	09 f0       	breq	.+2      	; 0x632a <vfprintf+0x25e>
    6328:	a6 c0       	rjmp	.+332    	; 0x6476 <vfprintf+0x3aa>
    632a:	04 c0       	rjmp	.+8      	; 0x6334 <vfprintf+0x268>
    632c:	28 e0       	ldi	r18, 0x08	; 8
    632e:	30 e0       	ldi	r19, 0x00	; 0
    6330:	0a c0       	rjmp	.+20     	; 0x6346 <vfprintf+0x27a>
    6332:	10 61       	ori	r17, 0x10	; 16
    6334:	14 fd       	sbrc	r17, 4
    6336:	14 60       	ori	r17, 0x04	; 4
    6338:	20 e1       	ldi	r18, 0x10	; 16
    633a:	30 e0       	ldi	r19, 0x00	; 0
    633c:	04 c0       	rjmp	.+8      	; 0x6346 <vfprintf+0x27a>
    633e:	14 fd       	sbrc	r17, 4
    6340:	16 60       	ori	r17, 0x06	; 6
    6342:	20 e1       	ldi	r18, 0x10	; 16
    6344:	32 e0       	ldi	r19, 0x02	; 2
    6346:	17 ff       	sbrs	r17, 7
    6348:	08 c0       	rjmp	.+16     	; 0x635a <vfprintf+0x28e>
    634a:	f5 01       	movw	r30, r10
    634c:	60 81       	ld	r22, Z
    634e:	71 81       	ldd	r23, Z+1	; 0x01
    6350:	82 81       	ldd	r24, Z+2	; 0x02
    6352:	93 81       	ldd	r25, Z+3	; 0x03
    6354:	44 e0       	ldi	r20, 0x04	; 4
    6356:	50 e0       	ldi	r21, 0x00	; 0
    6358:	08 c0       	rjmp	.+16     	; 0x636a <vfprintf+0x29e>
    635a:	f5 01       	movw	r30, r10
    635c:	80 81       	ld	r24, Z
    635e:	91 81       	ldd	r25, Z+1	; 0x01
    6360:	bc 01       	movw	r22, r24
    6362:	80 e0       	ldi	r24, 0x00	; 0
    6364:	90 e0       	ldi	r25, 0x00	; 0
    6366:	42 e0       	ldi	r20, 0x02	; 2
    6368:	50 e0       	ldi	r21, 0x00	; 0
    636a:	a4 0e       	add	r10, r20
    636c:	b5 1e       	adc	r11, r21
    636e:	a1 01       	movw	r20, r2
    6370:	0e 94 85 32 	call	0x650a	; 0x650a <__ultoa_invert>
    6374:	d8 2e       	mov	r13, r24
    6376:	d2 18       	sub	r13, r2
    6378:	8f e7       	ldi	r24, 0x7F	; 127
    637a:	f8 2e       	mov	r15, r24
    637c:	f1 22       	and	r15, r17
    637e:	f6 fe       	sbrs	r15, 6
    6380:	0b c0       	rjmp	.+22     	; 0x6398 <vfprintf+0x2cc>
    6382:	5e ef       	ldi	r21, 0xFE	; 254
    6384:	f5 22       	and	r15, r21
    6386:	d9 14       	cp	r13, r9
    6388:	38 f4       	brcc	.+14     	; 0x6398 <vfprintf+0x2cc>
    638a:	f4 fe       	sbrs	r15, 4
    638c:	07 c0       	rjmp	.+14     	; 0x639c <vfprintf+0x2d0>
    638e:	f2 fc       	sbrc	r15, 2
    6390:	05 c0       	rjmp	.+10     	; 0x639c <vfprintf+0x2d0>
    6392:	8f ee       	ldi	r24, 0xEF	; 239
    6394:	f8 22       	and	r15, r24
    6396:	02 c0       	rjmp	.+4      	; 0x639c <vfprintf+0x2d0>
    6398:	1d 2d       	mov	r17, r13
    639a:	01 c0       	rjmp	.+2      	; 0x639e <vfprintf+0x2d2>
    639c:	19 2d       	mov	r17, r9
    639e:	f4 fe       	sbrs	r15, 4
    63a0:	0d c0       	rjmp	.+26     	; 0x63bc <vfprintf+0x2f0>
    63a2:	fe 01       	movw	r30, r28
    63a4:	ed 0d       	add	r30, r13
    63a6:	f1 1d       	adc	r31, r1
    63a8:	80 81       	ld	r24, Z
    63aa:	80 33       	cpi	r24, 0x30	; 48
    63ac:	19 f4       	brne	.+6      	; 0x63b4 <vfprintf+0x2e8>
    63ae:	99 ee       	ldi	r25, 0xE9	; 233
    63b0:	f9 22       	and	r15, r25
    63b2:	08 c0       	rjmp	.+16     	; 0x63c4 <vfprintf+0x2f8>
    63b4:	1f 5f       	subi	r17, 0xFF	; 255
    63b6:	f2 fe       	sbrs	r15, 2
    63b8:	05 c0       	rjmp	.+10     	; 0x63c4 <vfprintf+0x2f8>
    63ba:	03 c0       	rjmp	.+6      	; 0x63c2 <vfprintf+0x2f6>
    63bc:	8f 2d       	mov	r24, r15
    63be:	86 78       	andi	r24, 0x86	; 134
    63c0:	09 f0       	breq	.+2      	; 0x63c4 <vfprintf+0x2f8>
    63c2:	1f 5f       	subi	r17, 0xFF	; 255
    63c4:	0f 2d       	mov	r16, r15
    63c6:	f3 fc       	sbrc	r15, 3
    63c8:	14 c0       	rjmp	.+40     	; 0x63f2 <vfprintf+0x326>
    63ca:	f0 fe       	sbrs	r15, 0
    63cc:	0f c0       	rjmp	.+30     	; 0x63ec <vfprintf+0x320>
    63ce:	1e 15       	cp	r17, r14
    63d0:	10 f0       	brcs	.+4      	; 0x63d6 <vfprintf+0x30a>
    63d2:	9d 2c       	mov	r9, r13
    63d4:	0b c0       	rjmp	.+22     	; 0x63ec <vfprintf+0x320>
    63d6:	9d 2c       	mov	r9, r13
    63d8:	9e 0c       	add	r9, r14
    63da:	91 1a       	sub	r9, r17
    63dc:	1e 2d       	mov	r17, r14
    63de:	06 c0       	rjmp	.+12     	; 0x63ec <vfprintf+0x320>
    63e0:	80 e2       	ldi	r24, 0x20	; 32
    63e2:	90 e0       	ldi	r25, 0x00	; 0
    63e4:	b3 01       	movw	r22, r6
    63e6:	0e 94 59 32 	call	0x64b2	; 0x64b2 <fputc>
    63ea:	1f 5f       	subi	r17, 0xFF	; 255
    63ec:	1e 15       	cp	r17, r14
    63ee:	c0 f3       	brcs	.-16     	; 0x63e0 <vfprintf+0x314>
    63f0:	04 c0       	rjmp	.+8      	; 0x63fa <vfprintf+0x32e>
    63f2:	1e 15       	cp	r17, r14
    63f4:	10 f4       	brcc	.+4      	; 0x63fa <vfprintf+0x32e>
    63f6:	e1 1a       	sub	r14, r17
    63f8:	01 c0       	rjmp	.+2      	; 0x63fc <vfprintf+0x330>
    63fa:	ee 24       	eor	r14, r14
    63fc:	04 ff       	sbrs	r16, 4
    63fe:	0f c0       	rjmp	.+30     	; 0x641e <vfprintf+0x352>
    6400:	80 e3       	ldi	r24, 0x30	; 48
    6402:	90 e0       	ldi	r25, 0x00	; 0
    6404:	b3 01       	movw	r22, r6
    6406:	0e 94 59 32 	call	0x64b2	; 0x64b2 <fputc>
    640a:	02 ff       	sbrs	r16, 2
    640c:	1d c0       	rjmp	.+58     	; 0x6448 <vfprintf+0x37c>
    640e:	01 fd       	sbrc	r16, 1
    6410:	03 c0       	rjmp	.+6      	; 0x6418 <vfprintf+0x34c>
    6412:	88 e7       	ldi	r24, 0x78	; 120
    6414:	90 e0       	ldi	r25, 0x00	; 0
    6416:	0e c0       	rjmp	.+28     	; 0x6434 <vfprintf+0x368>
    6418:	88 e5       	ldi	r24, 0x58	; 88
    641a:	90 e0       	ldi	r25, 0x00	; 0
    641c:	0b c0       	rjmp	.+22     	; 0x6434 <vfprintf+0x368>
    641e:	80 2f       	mov	r24, r16
    6420:	86 78       	andi	r24, 0x86	; 134
    6422:	91 f0       	breq	.+36     	; 0x6448 <vfprintf+0x37c>
    6424:	01 ff       	sbrs	r16, 1
    6426:	02 c0       	rjmp	.+4      	; 0x642c <vfprintf+0x360>
    6428:	8b e2       	ldi	r24, 0x2B	; 43
    642a:	01 c0       	rjmp	.+2      	; 0x642e <vfprintf+0x362>
    642c:	80 e2       	ldi	r24, 0x20	; 32
    642e:	f7 fc       	sbrc	r15, 7
    6430:	8d e2       	ldi	r24, 0x2D	; 45
    6432:	90 e0       	ldi	r25, 0x00	; 0
    6434:	b3 01       	movw	r22, r6
    6436:	0e 94 59 32 	call	0x64b2	; 0x64b2 <fputc>
    643a:	06 c0       	rjmp	.+12     	; 0x6448 <vfprintf+0x37c>
    643c:	80 e3       	ldi	r24, 0x30	; 48
    643e:	90 e0       	ldi	r25, 0x00	; 0
    6440:	b3 01       	movw	r22, r6
    6442:	0e 94 59 32 	call	0x64b2	; 0x64b2 <fputc>
    6446:	9a 94       	dec	r9
    6448:	d9 14       	cp	r13, r9
    644a:	c0 f3       	brcs	.-16     	; 0x643c <vfprintf+0x370>
    644c:	da 94       	dec	r13
    644e:	f1 01       	movw	r30, r2
    6450:	ed 0d       	add	r30, r13
    6452:	f1 1d       	adc	r31, r1
    6454:	80 81       	ld	r24, Z
    6456:	90 e0       	ldi	r25, 0x00	; 0
    6458:	b3 01       	movw	r22, r6
    645a:	0e 94 59 32 	call	0x64b2	; 0x64b2 <fputc>
    645e:	dd 20       	and	r13, r13
    6460:	a9 f7       	brne	.-22     	; 0x644c <vfprintf+0x380>
    6462:	06 c0       	rjmp	.+12     	; 0x6470 <vfprintf+0x3a4>
    6464:	80 e2       	ldi	r24, 0x20	; 32
    6466:	90 e0       	ldi	r25, 0x00	; 0
    6468:	b3 01       	movw	r22, r6
    646a:	0e 94 59 32 	call	0x64b2	; 0x64b2 <fputc>
    646e:	ea 94       	dec	r14
    6470:	ee 20       	and	r14, r14
    6472:	c1 f7       	brne	.-16     	; 0x6464 <vfprintf+0x398>
    6474:	43 ce       	rjmp	.-890    	; 0x60fc <vfprintf+0x30>
    6476:	f3 01       	movw	r30, r6
    6478:	66 81       	ldd	r22, Z+6	; 0x06
    647a:	77 81       	ldd	r23, Z+7	; 0x07
    647c:	cb 01       	movw	r24, r22
    647e:	2b 96       	adiw	r28, 0x0b	; 11
    6480:	e2 e1       	ldi	r30, 0x12	; 18
    6482:	0c 94 17 30 	jmp	0x602e	; 0x602e <__epilogue_restores__>

00006486 <strnlen_P>:
    6486:	fc 01       	movw	r30, r24
    6488:	05 90       	lpm	r0, Z+
    648a:	61 50       	subi	r22, 0x01	; 1
    648c:	70 40       	sbci	r23, 0x00	; 0
    648e:	01 10       	cpse	r0, r1
    6490:	d8 f7       	brcc	.-10     	; 0x6488 <strnlen_P+0x2>
    6492:	80 95       	com	r24
    6494:	90 95       	com	r25
    6496:	8e 0f       	add	r24, r30
    6498:	9f 1f       	adc	r25, r31
    649a:	08 95       	ret

0000649c <strnlen>:
    649c:	fc 01       	movw	r30, r24
    649e:	61 50       	subi	r22, 0x01	; 1
    64a0:	70 40       	sbci	r23, 0x00	; 0
    64a2:	01 90       	ld	r0, Z+
    64a4:	01 10       	cpse	r0, r1
    64a6:	d8 f7       	brcc	.-10     	; 0x649e <strnlen+0x2>
    64a8:	80 95       	com	r24
    64aa:	90 95       	com	r25
    64ac:	8e 0f       	add	r24, r30
    64ae:	9f 1f       	adc	r25, r31
    64b0:	08 95       	ret

000064b2 <fputc>:
    64b2:	0f 93       	push	r16
    64b4:	1f 93       	push	r17
    64b6:	cf 93       	push	r28
    64b8:	df 93       	push	r29
    64ba:	8c 01       	movw	r16, r24
    64bc:	eb 01       	movw	r28, r22
    64be:	8b 81       	ldd	r24, Y+3	; 0x03
    64c0:	81 ff       	sbrs	r24, 1
    64c2:	1b c0       	rjmp	.+54     	; 0x64fa <fputc+0x48>
    64c4:	82 ff       	sbrs	r24, 2
    64c6:	0d c0       	rjmp	.+26     	; 0x64e2 <fputc+0x30>
    64c8:	2e 81       	ldd	r18, Y+6	; 0x06
    64ca:	3f 81       	ldd	r19, Y+7	; 0x07
    64cc:	8c 81       	ldd	r24, Y+4	; 0x04
    64ce:	9d 81       	ldd	r25, Y+5	; 0x05
    64d0:	28 17       	cp	r18, r24
    64d2:	39 07       	cpc	r19, r25
    64d4:	64 f4       	brge	.+24     	; 0x64ee <fputc+0x3c>
    64d6:	e8 81       	ld	r30, Y
    64d8:	f9 81       	ldd	r31, Y+1	; 0x01
    64da:	01 93       	st	Z+, r16
    64dc:	f9 83       	std	Y+1, r31	; 0x01
    64de:	e8 83       	st	Y, r30
    64e0:	06 c0       	rjmp	.+12     	; 0x64ee <fputc+0x3c>
    64e2:	e8 85       	ldd	r30, Y+8	; 0x08
    64e4:	f9 85       	ldd	r31, Y+9	; 0x09
    64e6:	80 2f       	mov	r24, r16
    64e8:	09 95       	icall
    64ea:	89 2b       	or	r24, r25
    64ec:	31 f4       	brne	.+12     	; 0x64fa <fputc+0x48>
    64ee:	8e 81       	ldd	r24, Y+6	; 0x06
    64f0:	9f 81       	ldd	r25, Y+7	; 0x07
    64f2:	01 96       	adiw	r24, 0x01	; 1
    64f4:	9f 83       	std	Y+7, r25	; 0x07
    64f6:	8e 83       	std	Y+6, r24	; 0x06
    64f8:	02 c0       	rjmp	.+4      	; 0x64fe <fputc+0x4c>
    64fa:	0f ef       	ldi	r16, 0xFF	; 255
    64fc:	1f ef       	ldi	r17, 0xFF	; 255
    64fe:	c8 01       	movw	r24, r16
    6500:	df 91       	pop	r29
    6502:	cf 91       	pop	r28
    6504:	1f 91       	pop	r17
    6506:	0f 91       	pop	r16
    6508:	08 95       	ret

0000650a <__ultoa_invert>:
    650a:	fa 01       	movw	r30, r20
    650c:	aa 27       	eor	r26, r26
    650e:	28 30       	cpi	r18, 0x08	; 8
    6510:	51 f1       	breq	.+84     	; 0x6566 <__ultoa_invert+0x5c>
    6512:	20 31       	cpi	r18, 0x10	; 16
    6514:	81 f1       	breq	.+96     	; 0x6576 <__ultoa_invert+0x6c>
    6516:	e8 94       	clt
    6518:	6f 93       	push	r22
    651a:	6e 7f       	andi	r22, 0xFE	; 254
    651c:	6e 5f       	subi	r22, 0xFE	; 254
    651e:	7f 4f       	sbci	r23, 0xFF	; 255
    6520:	8f 4f       	sbci	r24, 0xFF	; 255
    6522:	9f 4f       	sbci	r25, 0xFF	; 255
    6524:	af 4f       	sbci	r26, 0xFF	; 255
    6526:	b1 e0       	ldi	r27, 0x01	; 1
    6528:	3e d0       	rcall	.+124    	; 0x65a6 <__ultoa_invert+0x9c>
    652a:	b4 e0       	ldi	r27, 0x04	; 4
    652c:	3c d0       	rcall	.+120    	; 0x65a6 <__ultoa_invert+0x9c>
    652e:	67 0f       	add	r22, r23
    6530:	78 1f       	adc	r23, r24
    6532:	89 1f       	adc	r24, r25
    6534:	9a 1f       	adc	r25, r26
    6536:	a1 1d       	adc	r26, r1
    6538:	68 0f       	add	r22, r24
    653a:	79 1f       	adc	r23, r25
    653c:	8a 1f       	adc	r24, r26
    653e:	91 1d       	adc	r25, r1
    6540:	a1 1d       	adc	r26, r1
    6542:	6a 0f       	add	r22, r26
    6544:	71 1d       	adc	r23, r1
    6546:	81 1d       	adc	r24, r1
    6548:	91 1d       	adc	r25, r1
    654a:	a1 1d       	adc	r26, r1
    654c:	20 d0       	rcall	.+64     	; 0x658e <__ultoa_invert+0x84>
    654e:	09 f4       	brne	.+2      	; 0x6552 <__ultoa_invert+0x48>
    6550:	68 94       	set
    6552:	3f 91       	pop	r19
    6554:	2a e0       	ldi	r18, 0x0A	; 10
    6556:	26 9f       	mul	r18, r22
    6558:	11 24       	eor	r1, r1
    655a:	30 19       	sub	r19, r0
    655c:	30 5d       	subi	r19, 0xD0	; 208
    655e:	31 93       	st	Z+, r19
    6560:	de f6       	brtc	.-74     	; 0x6518 <__ultoa_invert+0xe>
    6562:	cf 01       	movw	r24, r30
    6564:	08 95       	ret
    6566:	46 2f       	mov	r20, r22
    6568:	47 70       	andi	r20, 0x07	; 7
    656a:	40 5d       	subi	r20, 0xD0	; 208
    656c:	41 93       	st	Z+, r20
    656e:	b3 e0       	ldi	r27, 0x03	; 3
    6570:	0f d0       	rcall	.+30     	; 0x6590 <__ultoa_invert+0x86>
    6572:	c9 f7       	brne	.-14     	; 0x6566 <__ultoa_invert+0x5c>
    6574:	f6 cf       	rjmp	.-20     	; 0x6562 <__ultoa_invert+0x58>
    6576:	46 2f       	mov	r20, r22
    6578:	4f 70       	andi	r20, 0x0F	; 15
    657a:	40 5d       	subi	r20, 0xD0	; 208
    657c:	4a 33       	cpi	r20, 0x3A	; 58
    657e:	18 f0       	brcs	.+6      	; 0x6586 <__ultoa_invert+0x7c>
    6580:	49 5d       	subi	r20, 0xD9	; 217
    6582:	31 fd       	sbrc	r19, 1
    6584:	40 52       	subi	r20, 0x20	; 32
    6586:	41 93       	st	Z+, r20
    6588:	02 d0       	rcall	.+4      	; 0x658e <__ultoa_invert+0x84>
    658a:	a9 f7       	brne	.-22     	; 0x6576 <__ultoa_invert+0x6c>
    658c:	ea cf       	rjmp	.-44     	; 0x6562 <__ultoa_invert+0x58>
    658e:	b4 e0       	ldi	r27, 0x04	; 4
    6590:	a6 95       	lsr	r26
    6592:	97 95       	ror	r25
    6594:	87 95       	ror	r24
    6596:	77 95       	ror	r23
    6598:	67 95       	ror	r22
    659a:	ba 95       	dec	r27
    659c:	c9 f7       	brne	.-14     	; 0x6590 <__ultoa_invert+0x86>
    659e:	00 97       	sbiw	r24, 0x00	; 0
    65a0:	61 05       	cpc	r22, r1
    65a2:	71 05       	cpc	r23, r1
    65a4:	08 95       	ret
    65a6:	9b 01       	movw	r18, r22
    65a8:	ac 01       	movw	r20, r24
    65aa:	0a 2e       	mov	r0, r26
    65ac:	06 94       	lsr	r0
    65ae:	57 95       	ror	r21
    65b0:	47 95       	ror	r20
    65b2:	37 95       	ror	r19
    65b4:	27 95       	ror	r18
    65b6:	ba 95       	dec	r27
    65b8:	c9 f7       	brne	.-14     	; 0x65ac <__ultoa_invert+0xa2>
    65ba:	62 0f       	add	r22, r18
    65bc:	73 1f       	adc	r23, r19
    65be:	84 1f       	adc	r24, r20
    65c0:	95 1f       	adc	r25, r21
    65c2:	a0 1d       	adc	r26, r0
    65c4:	08 95       	ret

000065c6 <_exit>:
    65c6:	f8 94       	cli

000065c8 <__stop_program>:
    65c8:	ff cf       	rjmp	.-2      	; 0x65c8 <__stop_program>
